Component: Arm Compiler for Embedded 6.19 Tool: armlink [5e73cb00]

==============================================================================

Section Cross References

    main.o(.text._ZN9EmbSysLib2Hw23DisplayGraphic_OTM8009A4initEv) refers to lib.o(.text._ZN9EmbSysLib2Hw6System13delayMilliSecEt) for EmbSysLib::Hw::System::delayMilliSec(unsigned short)
    main.o(.ARM.exidx.text._ZN9EmbSysLib2Hw23DisplayGraphic_OTM8009A4initEv) refers to main.o(.text._ZN9EmbSysLib2Hw23DisplayGraphic_OTM8009A4initEv) for [Anonymous Symbol]
    main.o(.text._ZN9EmbSysLib2Hw26DisplayGraphic_OTM8009AcmdC2ERNS0_7Dsi_McuERNS0_4Port3PinENS0_23DisplayGraphic_OTM8009A11OrientationENS0_4FontEh) refers to lib.o(.text._ZN9EmbSysLib2Hw14DisplayGraphicC2EtttNS0_4FontEh) for EmbSysLib::Hw::DisplayGraphic::DisplayGraphic__sub_object(unsigned short, unsigned short, unsigned short, EmbSysLib::Hw::Font, unsigned char)
    main.o(.text._ZN9EmbSysLib2Hw26DisplayGraphic_OTM8009AcmdC2ERNS0_7Dsi_McuERNS0_4Port3PinENS0_23DisplayGraphic_OTM8009A11OrientationENS0_4FontEh) refers to main.o(.rodata._ZTVN9EmbSysLib2Hw23DisplayGraphic_OTM8009AE) for vtable for EmbSysLib::Hw::DisplayGraphic_OTM8009A
    main.o(.text._ZN9EmbSysLib2Hw26DisplayGraphic_OTM8009AcmdC2ERNS0_7Dsi_McuERNS0_4Port3PinENS0_23DisplayGraphic_OTM8009A11OrientationENS0_4FontEh) refers to lib.o(.text._ZN9EmbSysLib2Hw6System13delayMilliSecEt) for EmbSysLib::Hw::System::delayMilliSec(unsigned short)
    main.o(.text._ZN9EmbSysLib2Hw26DisplayGraphic_OTM8009AcmdC2ERNS0_7Dsi_McuERNS0_4Port3PinENS0_23DisplayGraphic_OTM8009A11OrientationENS0_4FontEh) refers to main.o(.rodata._ZTVN9EmbSysLib2Hw26DisplayGraphic_OTM8009AcmdE) for vtable for EmbSysLib::Hw::DisplayGraphic_OTM8009Acmd
    main.o(.text._ZN9EmbSysLib2Hw26DisplayGraphic_OTM8009AcmdC2ERNS0_7Dsi_McuERNS0_4Port3PinENS0_23DisplayGraphic_OTM8009A11OrientationENS0_4FontEh) refers to main.o(.text._ZN9EmbSysLib2Hw7Dsi_Mcu4InitEttb) for EmbSysLib::Hw::Dsi_Mcu::Init(unsigned short, unsigned short, bool)
    main.o(.text._ZN9EmbSysLib2Hw26DisplayGraphic_OTM8009AcmdC2ERNS0_7Dsi_McuERNS0_4Port3PinENS0_23DisplayGraphic_OTM8009A11OrientationENS0_4FontEh) refers to main.o(.text._ZN9EmbSysLib2Hw23DisplayGraphic_OTM8009A4initEv) for EmbSysLib::Hw::DisplayGraphic_OTM8009A::init()
    main.o(.ARM.exidx.text._ZN9EmbSysLib2Hw26DisplayGraphic_OTM8009AcmdC2ERNS0_7Dsi_McuERNS0_4Port3PinENS0_23DisplayGraphic_OTM8009A11OrientationENS0_4FontEh) refers to main.o(.text._ZN9EmbSysLib2Hw26DisplayGraphic_OTM8009AcmdC2ERNS0_7Dsi_McuERNS0_4Port3PinENS0_23DisplayGraphic_OTM8009A11OrientationENS0_4FontEh) for [Anonymous Symbol]
    main.o(.ARM.exidx.text._ZN9EmbSysLib2Hw26DisplayGraphic_OTM8009Acmd7refreshEv) refers to main.o(.text._ZN9EmbSysLib2Hw26DisplayGraphic_OTM8009Acmd7refreshEv) for [Anonymous Symbol]
    main.o(.ARM.exidx.text._ZN9EmbSysLib2Hw26DisplayGraphic_OTM8009Acmd5clearEv) refers to main.o(.text._ZN9EmbSysLib2Hw26DisplayGraphic_OTM8009Acmd5clearEv) for [Anonymous Symbol]
    main.o(.ARM.exidx.text._ZN9EmbSysLib2Hw26DisplayGraphic_OTM8009Acmd7setAreaEtttt) refers to main.o(.text._ZN9EmbSysLib2Hw26DisplayGraphic_OTM8009Acmd7setAreaEtttt) for [Anonymous Symbol]
    main.o(.ARM.exidx.text._ZN9EmbSysLib2Hw26DisplayGraphic_OTM8009Acmd8setPixelEttt) refers to main.o(.text._ZN9EmbSysLib2Hw26DisplayGraphic_OTM8009Acmd8setPixelEttt) for [Anonymous Symbol]
    main.o(.ARM.exidx.text._ZN9EmbSysLib2Hw26DisplayGraphic_OTM8009Acmd8setPixelEt) refers to main.o(.text._ZN9EmbSysLib2Hw26DisplayGraphic_OTM8009Acmd8setPixelEt) for [Anonymous Symbol]
    main.o(.text._ZN9EmbSysLib2Hw26DisplayGraphic_OTM8009AramC2ERNS0_7Dsi_McuERNS0_4Port3PinENS0_23DisplayGraphic_OTM8009A11OrientationENS0_4FontEh) refers to lib.o(.text._ZN9EmbSysLib2Hw14DisplayGraphicC2EtttNS0_4FontEh) for EmbSysLib::Hw::DisplayGraphic::DisplayGraphic__sub_object(unsigned short, unsigned short, unsigned short, EmbSysLib::Hw::Font, unsigned char)
    main.o(.text._ZN9EmbSysLib2Hw26DisplayGraphic_OTM8009AramC2ERNS0_7Dsi_McuERNS0_4Port3PinENS0_23DisplayGraphic_OTM8009A11OrientationENS0_4FontEh) refers to main.o(.rodata._ZTVN9EmbSysLib2Hw23DisplayGraphic_OTM8009AE) for vtable for EmbSysLib::Hw::DisplayGraphic_OTM8009A
    main.o(.text._ZN9EmbSysLib2Hw26DisplayGraphic_OTM8009AramC2ERNS0_7Dsi_McuERNS0_4Port3PinENS0_23DisplayGraphic_OTM8009A11OrientationENS0_4FontEh) refers to lib.o(.text._ZN9EmbSysLib2Hw6System13delayMilliSecEt) for EmbSysLib::Hw::System::delayMilliSec(unsigned short)
    main.o(.text._ZN9EmbSysLib2Hw26DisplayGraphic_OTM8009AramC2ERNS0_7Dsi_McuERNS0_4Port3PinENS0_23DisplayGraphic_OTM8009A11OrientationENS0_4FontEh) refers to main.o(.rodata._ZTVN9EmbSysLib2Hw26DisplayGraphic_OTM8009AramE) for vtable for EmbSysLib::Hw::DisplayGraphic_OTM8009Aram
    main.o(.text._ZN9EmbSysLib2Hw26DisplayGraphic_OTM8009AramC2ERNS0_7Dsi_McuERNS0_4Port3PinENS0_23DisplayGraphic_OTM8009A11OrientationENS0_4FontEh) refers to main.o(.text._ZN9EmbSysLib2Hw7Dsi_Mcu4InitEttb) for EmbSysLib::Hw::Dsi_Mcu::Init(unsigned short, unsigned short, bool)
    main.o(.text._ZN9EmbSysLib2Hw26DisplayGraphic_OTM8009AramC2ERNS0_7Dsi_McuERNS0_4Port3PinENS0_23DisplayGraphic_OTM8009A11OrientationENS0_4FontEh) refers to main.o(.text._ZN9EmbSysLib2Hw23DisplayGraphic_OTM8009A4initEv) for EmbSysLib::Hw::DisplayGraphic_OTM8009A::init()
    main.o(.ARM.exidx.text._ZN9EmbSysLib2Hw26DisplayGraphic_OTM8009AramC2ERNS0_7Dsi_McuERNS0_4Port3PinENS0_23DisplayGraphic_OTM8009A11OrientationENS0_4FontEh) refers to main.o(.text._ZN9EmbSysLib2Hw26DisplayGraphic_OTM8009AramC2ERNS0_7Dsi_McuERNS0_4Port3PinENS0_23DisplayGraphic_OTM8009A11OrientationENS0_4FontEh) for [Anonymous Symbol]
    main.o(.ARM.exidx.text._ZN9EmbSysLib2Hw26DisplayGraphic_OTM8009Aram7refreshEv) refers to main.o(.text._ZN9EmbSysLib2Hw26DisplayGraphic_OTM8009Aram7refreshEv) for [Anonymous Symbol]
    main.o(.ARM.exidx.text._ZN9EmbSysLib2Hw26DisplayGraphic_OTM8009Aram5clearEv) refers to main.o(.text._ZN9EmbSysLib2Hw26DisplayGraphic_OTM8009Aram5clearEv) for [Anonymous Symbol]
    main.o(.ARM.exidx.text._ZN9EmbSysLib2Hw26DisplayGraphic_OTM8009Aram7setAreaEtttt) refers to main.o(.text._ZN9EmbSysLib2Hw26DisplayGraphic_OTM8009Aram7setAreaEtttt) for [Anonymous Symbol]
    main.o(.ARM.exidx.text._ZN9EmbSysLib2Hw26DisplayGraphic_OTM8009Aram8setPixelEttt) refers to main.o(.text._ZN9EmbSysLib2Hw26DisplayGraphic_OTM8009Aram8setPixelEttt) for [Anonymous Symbol]
    main.o(.ARM.exidx.text._ZN9EmbSysLib2Hw26DisplayGraphic_OTM8009Aram8setPixelEt) refers to main.o(.text._ZN9EmbSysLib2Hw26DisplayGraphic_OTM8009Aram8setPixelEt) for [Anonymous Symbol]
    main.o(.text._ZN9EmbSysLib2Hw12Touch_FT6206C2ERNS0_9I2CmasterEttNS0_5Touch11OrientationE) refers to lib.o(.text._ZN9EmbSysLib2Hw5TouchC2EtttNS1_11OrientationE) for EmbSysLib::Hw::Touch::Touch__sub_object(unsigned short, unsigned short, unsigned short, EmbSysLib::Hw::Touch::Orientation)
    main.o(.text._ZN9EmbSysLib2Hw12Touch_FT6206C2ERNS0_9I2CmasterEttNS0_5Touch11OrientationE) refers to main.o(.rodata._ZTVN9EmbSysLib2Hw12Touch_FT6206E) for vtable for EmbSysLib::Hw::Touch_FT6206
    main.o(.text._ZN9EmbSysLib2Hw12Touch_FT6206C2ERNS0_9I2CmasterEttNS0_5Touch11OrientationE) refers to main.o(.rodata._ZTVN9EmbSysLib2Hw9I2Cmaster6DeviceE) for vtable for EmbSysLib::Hw::I2Cmaster::Device
    main.o(.ARM.exidx.text._ZN9EmbSysLib2Hw12Touch_FT6206C2ERNS0_9I2CmasterEttNS0_5Touch11OrientationE) refers to main.o(.text._ZN9EmbSysLib2Hw12Touch_FT6206C2ERNS0_9I2CmasterEttNS0_5Touch11OrientationE) for [Anonymous Symbol]
    main.o(.ARM.exidx.text._ZN9EmbSysLib2Hw12Touch_FT62066updateEv) refers to main.o(.text._ZN9EmbSysLib2Hw12Touch_FT62066updateEv) for [Anonymous Symbol]
    main.o(.text.main) refers to main.o(.bss.screenGraphic) for screenGraphic
    main.o(.text.main) refers to main.o(.bss.bitmapBitmap_32x32) for bitmapBitmap_32x32
    main.o(.text.main) refers to lib.o(.text._ZN9EmbSysLib3Dev13ScreenGraphic10drawBitmapEttRNS_2Hw6BitmapE) for EmbSysLib::Dev::ScreenGraphic::drawBitmap(unsigned short, unsigned short, EmbSysLib::Hw::Bitmap&)
    main.o(.text.main) refers to lib.o(.text._ZN9EmbSysLib3Dev13ScreenGraphic9drawPixelEttt) for EmbSysLib::Dev::ScreenGraphic::drawPixel(unsigned short, unsigned short, unsigned short)
    main.o(.text.main) refers to lib.o(.text._ZN9EmbSysLib3Dev13ScreenGraphic8drawTextEttPKcz) for EmbSysLib::Dev::ScreenGraphic::drawText(unsigned short, unsigned short, char const*, ...)
    main.o(.text.main) refers to lib.o(.text._ZN9EmbSysLib3Dev13ScreenGraphic7refreshEv) for EmbSysLib::Dev::ScreenGraphic::refresh()
    main.o(.text.main) refers to lib.o(.text._ZN9EmbSysLib2Hw6System13delayMilliSecEt) for EmbSysLib::Hw::System::delayMilliSec(unsigned short)
    main.o(.text.main) refers to lib.o(.text._ZNK9EmbSysLib2Hw6Bitmap8getWidthEv) for EmbSysLib::Hw::Bitmap::getWidth() const
    main.o(.text.main) refers to lib.o(.text._ZN9EmbSysLib3Dev13ScreenGraphic12setTextColorEt) for EmbSysLib::Dev::ScreenGraphic::setTextColor(unsigned short)
    main.o(.text.main) refers to lib.o(.text._ZN9EmbSysLib3Dev13ScreenGraphic12setBackColorEt) for EmbSysLib::Dev::ScreenGraphic::setBackColor(unsigned short)
    main.o(.text.main) refers to lib.o(.text._ZN9EmbSysLib3Dev13ScreenGraphic5clearEv) for EmbSysLib::Dev::ScreenGraphic::clear()
    main.o(.text.main) refers to lib.o(.text._ZN9EmbSysLib3Dev13ScreenGraphic8drawLineEtttttt) for EmbSysLib::Dev::ScreenGraphic::drawLine(unsigned short, unsigned short, unsigned short, unsigned short, unsigned short, unsigned short)
    main.o(.text.main) refers to lib.o(.text._ZN9EmbSysLib3Dev13ScreenGraphic13drawRectangleEttttt) for EmbSysLib::Dev::ScreenGraphic::drawRectangle(unsigned short, unsigned short, unsigned short, unsigned short, unsigned short)
    main.o(.text.main) refers to lib.o(.text._ZN9EmbSysLib3Dev13ScreenGraphic13drawRectangleEtttttt) for EmbSysLib::Dev::ScreenGraphic::drawRectangle(unsigned short, unsigned short, unsigned short, unsigned short, unsigned short, unsigned short)
    main.o(.text.main) refers to lib.o(.text._ZN9EmbSysLib3Dev13ScreenGraphic10drawCircleEtttt) for EmbSysLib::Dev::ScreenGraphic::drawCircle(unsigned short, unsigned short, unsigned short, unsigned short)
    main.o(.text.main) refers to lib.o(.text._ZN9EmbSysLib3Dev13ScreenGraphic10drawCircleEttttt) for EmbSysLib::Dev::ScreenGraphic::drawCircle(unsigned short, unsigned short, unsigned short, unsigned short, unsigned short)
    main.o(.text.main) refers to main.o(.bss.fontFont_10x20) for fontFont_10x20
    main.o(.text.main) refers to lib.o(.text._ZN9EmbSysLib3Dev13ScreenGraphic7setFontENS_2Hw4FontEh) for EmbSysLib::Dev::ScreenGraphic::setFont(EmbSysLib::Hw::Font, unsigned char)
    main.o(.text.main) refers to main.o(.bss.fontFont_8x12) for fontFont_8x12
    main.o(.text.main) refers to lib.o(.text._ZN9EmbSysLib3Dev13ScreenGraphic7setZoomEh) for EmbSysLib::Dev::ScreenGraphic::setZoom(unsigned char)
    main.o(.ARM.exidx.text.main) refers to main.o(.text.main) for [Anonymous Symbol]
    main.o(.text._GLOBAL__sub_I_main.cpp) refers to main.o(.bss.report) for report
    main.o(.text._GLOBAL__sub_I_main.cpp) refers to lib.o(.text._ZN9EmbSysLib3Std6Report7HandlerC2Ev) for EmbSysLib::Std::Report::Handler::Handler__sub_object()
    main.o(.text._GLOBAL__sub_I_main.cpp) refers to main.o(.rodata._ZTV15myReportHandler) for vtable for myReportHandler
    main.o(.text._GLOBAL__sub_I_main.cpp) refers to lib.o(.text._ZN9EmbSysLib3Std6Report7HandlerD2Ev) for EmbSysLib::Std::Report::Handler::~Handler__sub_object()
    main.o(.text._GLOBAL__sub_I_main.cpp) refers to cxa_atexit.o(.text) for __cxa_atexit
    main.o(.text._GLOBAL__sub_I_main.cpp) refers to main.o(.bss.portA) for portA
    main.o(.text._GLOBAL__sub_I_main.cpp) refers to lib.o(.text._ZN9EmbSysLib2Hw8Port_McuC2ENS1_6PortIdE) for EmbSysLib::Hw::Port_Mcu::Port_Mcu(EmbSysLib::Hw::Port_Mcu::PortId)
    main.o(.text._GLOBAL__sub_I_main.cpp) refers to main.o(.bss.portC) for portC
    main.o(.text._GLOBAL__sub_I_main.cpp) refers to main.o(.bss.portF) for portF
    main.o(.text._GLOBAL__sub_I_main.cpp) refers to main.o(.bss.portJ) for portJ
    main.o(.text._GLOBAL__sub_I_main.cpp) refers to main.o(.bss.timer) for timer
    main.o(.text._GLOBAL__sub_I_main.cpp) refers to lib.o(.text._ZN9EmbSysLib2Hw9Timer_McuC2ENS1_7TimerIdEj) for EmbSysLib::Hw::Timer_Mcu::Timer_Mcu(EmbSysLib::Hw::Timer_Mcu::TimerId, unsigned int)
    main.o(.text._GLOBAL__sub_I_main.cpp) refers to main.o(.bss.taskManager) for taskManager
    main.o(.text._GLOBAL__sub_I_main.cpp) refers to main.o(.rodata._ZTVN9EmbSysLib3Dev11TaskManagerE) for vtable for EmbSysLib::Dev::TaskManager
    main.o(.text._GLOBAL__sub_I_main.cpp) refers to main.o(.bss.i2cBusTouch) for i2cBusTouch
    main.o(.text._GLOBAL__sub_I_main.cpp) refers to lib.o(.text._ZN9EmbSysLib2Hw13I2Cmaster_McuC2ENS1_6I2C_IDEt) for EmbSysLib::Hw::I2Cmaster_Mcu::I2Cmaster_Mcu(EmbSysLib::Hw::I2Cmaster_Mcu::I2C_ID, unsigned short)
    main.o(.text._GLOBAL__sub_I_main.cpp) refers to main.o(.bss.uart) for uart
    main.o(.text._GLOBAL__sub_I_main.cpp) refers to lib.o(.text._ZN9EmbSysLib2Hw8Uart_McuC2ENS1_8USART_IdEjhtt) for EmbSysLib::Hw::Uart_Mcu::Uart_Mcu(EmbSysLib::Hw::Uart_Mcu::USART_Id, unsigned int, unsigned char, unsigned short, unsigned short)
    main.o(.text._GLOBAL__sub_I_main.cpp) refers to main.o(.bss.terminal) for terminal
    main.o(.text._GLOBAL__sub_I_main.cpp) refers to lib.o(.text._ZN9EmbSysLib3Dev8TerminalC2ERNS_2Hw4UartEttPKcS6_) for EmbSysLib::Dev::Terminal::Terminal(EmbSysLib::Hw::Uart&, unsigned short, unsigned short, char const*, char const*)
    main.o(.text._GLOBAL__sub_I_main.cpp) refers to main.o(.bss.image) for image
    main.o(.text._GLOBAL__sub_I_main.cpp) refers to lib.o(.text._ZN9EmbSysLib2Hw12Memory_FlashC2Ehh) for EmbSysLib::Hw::Memory_Flash::Memory_Flash(unsigned char, unsigned char)
    main.o(.text._GLOBAL__sub_I_main.cpp) refers to main.o(.text._ZN9EmbSysLib2Hw11MemoryImageC2ERNS0_6MemoryEPKc) for EmbSysLib::Hw::MemoryImage::MemoryImage__sub_object(EmbSysLib::Hw::Memory&, char const*)
    main.o(.text._GLOBAL__sub_I_main.cpp) refers to main.o(.bss.fontFont_10x20) for fontFont_10x20
    main.o(.text._GLOBAL__sub_I_main.cpp) refers to lib.o(.text._ZN9EmbSysLib2Hw4FontC2EPKh) for EmbSysLib::Hw::Font::Font(unsigned char const*)
    main.o(.text._GLOBAL__sub_I_main.cpp) refers to main.o(.bss.fontFont_16x24) for fontFont_16x24
    main.o(.text._GLOBAL__sub_I_main.cpp) refers to main.o(.bss.fontFont_8x12) for fontFont_8x12
    main.o(.text._GLOBAL__sub_I_main.cpp) refers to main.o(.bss.fontFont_8x8) for fontFont_8x8
    main.o(.text._GLOBAL__sub_I_main.cpp) refers to main.o(.bss.bitmapBitmap_320x240) for bitmapBitmap_320x240
    main.o(.text._GLOBAL__sub_I_main.cpp) refers to lib.o(.text._ZN9EmbSysLib2Hw6BitmapC2EPKh) for EmbSysLib::Hw::Bitmap::Bitmap(unsigned char const*)
    main.o(.text._GLOBAL__sub_I_main.cpp) refers to main.o(.bss.bitmapBitmap_32x32) for bitmapBitmap_32x32
    main.o(.text._GLOBAL__sub_I_main.cpp) refers to main.o(.bss.lcdResetPin) for lcdResetPin
    main.o(.text._GLOBAL__sub_I_main.cpp) refers to lib.o(.text._ZN9EmbSysLib2Hw4Port3PinC2ERS1_h) for EmbSysLib::Hw::Port::Pin::Pin(EmbSysLib::Hw::Port&, unsigned char)
    main.o(.text._GLOBAL__sub_I_main.cpp) refers to main.o(.bss.fmc) for fmc
    main.o(.text._GLOBAL__sub_I_main.cpp) refers to main.o(.text._ZN9EmbSysLib2Hw7Fmc_McuC2ENS1_7FMCtypeEb) for EmbSysLib::Hw::Fmc_Mcu::Fmc_Mcu__sub_object(EmbSysLib::Hw::Fmc_Mcu::FMCtype, bool)
    main.o(.text._GLOBAL__sub_I_main.cpp) refers to main.o(.bss.hwDSI) for hwDSI
    main.o(.text._GLOBAL__sub_I_main.cpp) refers to main.o(.bss.dispGraphic) for dispGraphic
    main.o(.text._GLOBAL__sub_I_main.cpp) refers to main.o(.rodata._ZTVN9EmbSysLib2Hw7Dsi_McuE) for vtable for EmbSysLib::Hw::Dsi_Mcu
    main.o(.text._GLOBAL__sub_I_main.cpp) refers to main.o(.text._ZN9EmbSysLib2Hw26DisplayGraphic_OTM8009AramC2ERNS0_7Dsi_McuERNS0_4Port3PinENS0_23DisplayGraphic_OTM8009A11OrientationENS0_4FontEh) for EmbSysLib::Hw::DisplayGraphic_OTM8009Aram::DisplayGraphic_OTM8009Aram__sub_object(EmbSysLib::Hw::Dsi_Mcu&, EmbSysLib::Hw::Port::Pin&, EmbSysLib::Hw::DisplayGraphic_OTM8009A::Orientation, EmbSysLib::Hw::Font, unsigned char)
    main.o(.text._GLOBAL__sub_I_main.cpp) refers to main.o(.bss.screenChar) for screenChar
    main.o(.text._GLOBAL__sub_I_main.cpp) refers to lib.o(.text._ZN9EmbSysLib3Dev10ScreenCharC2ERNS_2Hw11DisplayCharE) for EmbSysLib::Dev::ScreenChar::ScreenChar(EmbSysLib::Hw::DisplayChar&)
    main.o(.text._GLOBAL__sub_I_main.cpp) refers to main.o(.bss.screenGraphic) for screenGraphic
    main.o(.text._GLOBAL__sub_I_main.cpp) refers to lib.o(.text._ZN9EmbSysLib3Dev13ScreenGraphicC2ERNS_2Hw14DisplayGraphicE) for EmbSysLib::Dev::ScreenGraphic::ScreenGraphic(EmbSysLib::Hw::DisplayGraphic&)
    main.o(.text._GLOBAL__sub_I_main.cpp) refers to main.o(.bss.touch) for touch
    main.o(.text._GLOBAL__sub_I_main.cpp) refers to lib.o(.text._ZN9EmbSysLib2Hw5TouchC2EtttNS1_11OrientationE) for EmbSysLib::Hw::Touch::Touch__sub_object(unsigned short, unsigned short, unsigned short, EmbSysLib::Hw::Touch::Orientation)
    main.o(.text._GLOBAL__sub_I_main.cpp) refers to main.o(.rodata._ZTVN9EmbSysLib2Hw12Touch_FT6206E) for vtable for EmbSysLib::Hw::Touch_FT6206
    main.o(.text._GLOBAL__sub_I_main.cpp) refers to main.o(.rodata._ZTVN9EmbSysLib2Hw9I2Cmaster6DeviceE) for vtable for EmbSysLib::Hw::I2Cmaster::Device
    main.o(.text._GLOBAL__sub_I_main.cpp) refers to main.o(.bss.pointer) for pointer
    main.o(.text._GLOBAL__sub_I_main.cpp) refers to lib.o(.text._ZN9EmbSysLib3Dev7PointerC2ERNS_2Hw5TouchE) for EmbSysLib::Dev::Pointer::Pointer(EmbSysLib::Hw::Touch&)
    main.o(.text._GLOBAL__sub_I_main.cpp) refers to main.o(.bss.led_A) for led_A
    main.o(.text._GLOBAL__sub_I_main.cpp) refers to lib.o(.text._ZN9EmbSysLib3Dev7DigitalC2ERNS_2Hw4PortEhNS1_4ModeEb) for EmbSysLib::Dev::Digital::Digital(EmbSysLib::Hw::Port&, unsigned char, EmbSysLib::Dev::Digital::Mode, bool)
    main.o(.text._GLOBAL__sub_I_main.cpp) refers to main.o(.bss.btn_A) for btn_A
    main.o(.text._GLOBAL__sub_I_main.cpp) refers to main.o(.bss.btnLeft) for btnLeft
    main.o(.text._GLOBAL__sub_I_main.cpp) refers to main.o(.bss.btnCtrl) for btnCtrl
    main.o(.text._GLOBAL__sub_I_main.cpp) refers to main.o(.bss.btnRight) for btnRight
    main.o(.text._GLOBAL__sub_I_main.cpp) refers to main.o(.bss.indicator) for indicator
    main.o(.text._GLOBAL__sub_I_main.cpp) refers to lib.o(.text._ZN9EmbSysLib4Ctrl16DigitalIndicatorC2ERNS_3Dev7DigitalERNS2_11TaskManagerE) for EmbSysLib::Ctrl::DigitalIndicator::DigitalIndicator(EmbSysLib::Dev::Digital&, EmbSysLib::Dev::TaskManager&)
    main.o(.text._GLOBAL__sub_I_main.cpp) refers to main.o(.bss.button) for button
    main.o(.text._GLOBAL__sub_I_main.cpp) refers to lib.o(.text._ZN9EmbSysLib4Ctrl13DigitalButtonC2ERNS_3Dev7DigitalERNS2_11TaskManagerEtt) for EmbSysLib::Ctrl::DigitalButton::DigitalButton(EmbSysLib::Dev::Digital&, EmbSysLib::Dev::TaskManager&, unsigned short, unsigned short)
    main.o(.text._GLOBAL__sub_I_main.cpp) refers to main.o(.bss.encoder) for encoder
    main.o(.text._GLOBAL__sub_I_main.cpp) refers to lib.o(.text._ZN9EmbSysLib4Ctrl22DigitalEncoderJoystickC2EPNS_3Dev7DigitalES4_S4_RNS2_11TaskManagerEt) for EmbSysLib::Ctrl::DigitalEncoderJoystick::DigitalEncoderJoystick(EmbSysLib::Dev::Digital*, EmbSysLib::Dev::Digital*, EmbSysLib::Dev::Digital*, EmbSysLib::Dev::TaskManager&, unsigned short)
    main.o(.ARM.exidx.text._GLOBAL__sub_I_main.cpp) refers to main.o(.text._GLOBAL__sub_I_main.cpp) for [Anonymous Symbol]
    main.o(.rodata._ZTVN9EmbSysLib2Hw26DisplayGraphic_OTM8009AcmdE) refers to main.o(.text._ZN9EmbSysLib2Hw26DisplayGraphic_OTM8009Acmd5clearEv) for EmbSysLib::Hw::DisplayGraphic_OTM8009Acmd::clear()
    main.o(.rodata._ZTVN9EmbSysLib2Hw26DisplayGraphic_OTM8009AcmdE) refers to main.o(.text._ZN9EmbSysLib2Hw26DisplayGraphic_OTM8009Acmd7refreshEv) for EmbSysLib::Hw::DisplayGraphic_OTM8009Acmd::refresh()
    main.o(.rodata._ZTVN9EmbSysLib2Hw26DisplayGraphic_OTM8009AcmdE) refers to lib.o(.text._ZN9EmbSysLib2Hw14DisplayGraphic11gotoTextPosEhh) for EmbSysLib::Hw::DisplayGraphic::gotoTextPos(unsigned char, unsigned char)
    main.o(.rodata._ZTVN9EmbSysLib2Hw26DisplayGraphic_OTM8009AcmdE) refers to lib.o(.text._ZN9EmbSysLib2Hw14DisplayGraphic7putCharEc) for EmbSysLib::Hw::DisplayGraphic::putChar(char)
    main.o(.rodata._ZTVN9EmbSysLib2Hw26DisplayGraphic_OTM8009AcmdE) refers to lib.o(.text._ZN9EmbSysLib2Hw11DisplayChar9putStringEPKc) for EmbSysLib::Hw::DisplayChar::putString(char const*)
    main.o(.rodata._ZTVN9EmbSysLib2Hw26DisplayGraphic_OTM8009AcmdE) refers to lib.o(.text._ZN9EmbSysLib2Hw11DisplayChar16getNumberOfLinesEv) for EmbSysLib::Hw::DisplayChar::getNumberOfLines()
    main.o(.rodata._ZTVN9EmbSysLib2Hw26DisplayGraphic_OTM8009AcmdE) refers to lib.o(.text._ZN9EmbSysLib2Hw11DisplayChar18getNumberOfColumnsEv) for EmbSysLib::Hw::DisplayChar::getNumberOfColumns()
    main.o(.rodata._ZTVN9EmbSysLib2Hw26DisplayGraphic_OTM8009AcmdE) refers to lib.o(.text._ZN9EmbSysLib2Hw14DisplayGraphic7setFontENS0_4FontEh) for EmbSysLib::Hw::DisplayGraphic::setFont(EmbSysLib::Hw::Font, unsigned char)
    main.o(.rodata._ZTVN9EmbSysLib2Hw26DisplayGraphic_OTM8009AcmdE) refers to lib.o(.text._ZN9EmbSysLib2Hw14DisplayGraphic7setZoomEh) for EmbSysLib::Hw::DisplayGraphic::setZoom(unsigned char)
    main.o(.rodata._ZTVN9EmbSysLib2Hw26DisplayGraphic_OTM8009AcmdE) refers to lib.o(.text._ZN9EmbSysLib2Hw14DisplayGraphic12setBackColorEt) for EmbSysLib::Hw::DisplayGraphic::setBackColor(unsigned short)
    main.o(.rodata._ZTVN9EmbSysLib2Hw26DisplayGraphic_OTM8009AcmdE) refers to lib.o(.text._ZN9EmbSysLib2Hw14DisplayGraphic13setPaintColorEt) for EmbSysLib::Hw::DisplayGraphic::setPaintColor(unsigned short)
    main.o(.rodata._ZTVN9EmbSysLib2Hw26DisplayGraphic_OTM8009AcmdE) refers to lib.o(.text._ZN9EmbSysLib2Hw14DisplayGraphic12setTextColorEt) for EmbSysLib::Hw::DisplayGraphic::setTextColor(unsigned short)
    main.o(.rodata._ZTVN9EmbSysLib2Hw26DisplayGraphic_OTM8009AcmdE) refers to lib.o(.text._ZN9EmbSysLib2Hw14DisplayGraphic12gotoPixelPosEtt) for EmbSysLib::Hw::DisplayGraphic::gotoPixelPos(unsigned short, unsigned short)
    main.o(.rodata._ZTVN9EmbSysLib2Hw26DisplayGraphic_OTM8009AcmdE) refers to lib.o(.text._ZN9EmbSysLib2Hw14DisplayGraphic8putPixelEtt) for EmbSysLib::Hw::DisplayGraphic::putPixel(unsigned short, unsigned short)
    main.o(.rodata._ZTVN9EmbSysLib2Hw26DisplayGraphic_OTM8009AcmdE) refers to lib.o(.text._ZN9EmbSysLib2Hw14DisplayGraphic12putRectangleEtttt) for EmbSysLib::Hw::DisplayGraphic::putRectangle(unsigned short, unsigned short, unsigned short, unsigned short)
    main.o(.rodata._ZTVN9EmbSysLib2Hw26DisplayGraphic_OTM8009AcmdE) refers to lib.o(.text._ZN9EmbSysLib2Hw14DisplayGraphic9putBitmapEttNS0_6BitmapE) for EmbSysLib::Hw::DisplayGraphic::putBitmap(unsigned short, unsigned short, EmbSysLib::Hw::Bitmap)
    main.o(.rodata._ZTVN9EmbSysLib2Hw26DisplayGraphic_OTM8009AcmdE) refers to main.o(.text._ZN9EmbSysLib2Hw14DisplayGraphic8getWidthEv) for EmbSysLib::Hw::DisplayGraphic::getWidth()
    main.o(.rodata._ZTVN9EmbSysLib2Hw26DisplayGraphic_OTM8009AcmdE) refers to main.o(.text._ZN9EmbSysLib2Hw14DisplayGraphic9getHeightEv) for EmbSysLib::Hw::DisplayGraphic::getHeight()
    main.o(.rodata._ZTVN9EmbSysLib2Hw26DisplayGraphic_OTM8009AcmdE) refers to main.o(.text._ZN9EmbSysLib2Hw26DisplayGraphic_OTM8009Acmd7setAreaEtttt) for EmbSysLib::Hw::DisplayGraphic_OTM8009Acmd::setArea(unsigned short, unsigned short, unsigned short, unsigned short)
    main.o(.rodata._ZTVN9EmbSysLib2Hw26DisplayGraphic_OTM8009AcmdE) refers to main.o(.text._ZN9EmbSysLib2Hw26DisplayGraphic_OTM8009Acmd8setPixelEttt) for EmbSysLib::Hw::DisplayGraphic_OTM8009Acmd::setPixel(unsigned short, unsigned short, unsigned short)
    main.o(.rodata._ZTVN9EmbSysLib2Hw26DisplayGraphic_OTM8009AcmdE) refers to main.o(.text._ZN9EmbSysLib2Hw26DisplayGraphic_OTM8009Acmd8setPixelEt) for EmbSysLib::Hw::DisplayGraphic_OTM8009Acmd::setPixel(unsigned short)
    main.o(.rodata._ZTVN9EmbSysLib2Hw26DisplayGraphic_OTM8009AramE) refers to main.o(.text._ZN9EmbSysLib2Hw26DisplayGraphic_OTM8009Aram5clearEv) for EmbSysLib::Hw::DisplayGraphic_OTM8009Aram::clear()
    main.o(.rodata._ZTVN9EmbSysLib2Hw26DisplayGraphic_OTM8009AramE) refers to main.o(.text._ZN9EmbSysLib2Hw26DisplayGraphic_OTM8009Aram7refreshEv) for EmbSysLib::Hw::DisplayGraphic_OTM8009Aram::refresh()
    main.o(.rodata._ZTVN9EmbSysLib2Hw26DisplayGraphic_OTM8009AramE) refers to lib.o(.text._ZN9EmbSysLib2Hw14DisplayGraphic11gotoTextPosEhh) for EmbSysLib::Hw::DisplayGraphic::gotoTextPos(unsigned char, unsigned char)
    main.o(.rodata._ZTVN9EmbSysLib2Hw26DisplayGraphic_OTM8009AramE) refers to lib.o(.text._ZN9EmbSysLib2Hw14DisplayGraphic7putCharEc) for EmbSysLib::Hw::DisplayGraphic::putChar(char)
    main.o(.rodata._ZTVN9EmbSysLib2Hw26DisplayGraphic_OTM8009AramE) refers to lib.o(.text._ZN9EmbSysLib2Hw11DisplayChar9putStringEPKc) for EmbSysLib::Hw::DisplayChar::putString(char const*)
    main.o(.rodata._ZTVN9EmbSysLib2Hw26DisplayGraphic_OTM8009AramE) refers to lib.o(.text._ZN9EmbSysLib2Hw11DisplayChar16getNumberOfLinesEv) for EmbSysLib::Hw::DisplayChar::getNumberOfLines()
    main.o(.rodata._ZTVN9EmbSysLib2Hw26DisplayGraphic_OTM8009AramE) refers to lib.o(.text._ZN9EmbSysLib2Hw11DisplayChar18getNumberOfColumnsEv) for EmbSysLib::Hw::DisplayChar::getNumberOfColumns()
    main.o(.rodata._ZTVN9EmbSysLib2Hw26DisplayGraphic_OTM8009AramE) refers to lib.o(.text._ZN9EmbSysLib2Hw14DisplayGraphic7setFontENS0_4FontEh) for EmbSysLib::Hw::DisplayGraphic::setFont(EmbSysLib::Hw::Font, unsigned char)
    main.o(.rodata._ZTVN9EmbSysLib2Hw26DisplayGraphic_OTM8009AramE) refers to lib.o(.text._ZN9EmbSysLib2Hw14DisplayGraphic7setZoomEh) for EmbSysLib::Hw::DisplayGraphic::setZoom(unsigned char)
    main.o(.rodata._ZTVN9EmbSysLib2Hw26DisplayGraphic_OTM8009AramE) refers to lib.o(.text._ZN9EmbSysLib2Hw14DisplayGraphic12setBackColorEt) for EmbSysLib::Hw::DisplayGraphic::setBackColor(unsigned short)
    main.o(.rodata._ZTVN9EmbSysLib2Hw26DisplayGraphic_OTM8009AramE) refers to lib.o(.text._ZN9EmbSysLib2Hw14DisplayGraphic13setPaintColorEt) for EmbSysLib::Hw::DisplayGraphic::setPaintColor(unsigned short)
    main.o(.rodata._ZTVN9EmbSysLib2Hw26DisplayGraphic_OTM8009AramE) refers to lib.o(.text._ZN9EmbSysLib2Hw14DisplayGraphic12setTextColorEt) for EmbSysLib::Hw::DisplayGraphic::setTextColor(unsigned short)
    main.o(.rodata._ZTVN9EmbSysLib2Hw26DisplayGraphic_OTM8009AramE) refers to lib.o(.text._ZN9EmbSysLib2Hw14DisplayGraphic12gotoPixelPosEtt) for EmbSysLib::Hw::DisplayGraphic::gotoPixelPos(unsigned short, unsigned short)
    main.o(.rodata._ZTVN9EmbSysLib2Hw26DisplayGraphic_OTM8009AramE) refers to lib.o(.text._ZN9EmbSysLib2Hw14DisplayGraphic8putPixelEtt) for EmbSysLib::Hw::DisplayGraphic::putPixel(unsigned short, unsigned short)
    main.o(.rodata._ZTVN9EmbSysLib2Hw26DisplayGraphic_OTM8009AramE) refers to lib.o(.text._ZN9EmbSysLib2Hw14DisplayGraphic12putRectangleEtttt) for EmbSysLib::Hw::DisplayGraphic::putRectangle(unsigned short, unsigned short, unsigned short, unsigned short)
    main.o(.rodata._ZTVN9EmbSysLib2Hw26DisplayGraphic_OTM8009AramE) refers to lib.o(.text._ZN9EmbSysLib2Hw14DisplayGraphic9putBitmapEttNS0_6BitmapE) for EmbSysLib::Hw::DisplayGraphic::putBitmap(unsigned short, unsigned short, EmbSysLib::Hw::Bitmap)
    main.o(.rodata._ZTVN9EmbSysLib2Hw26DisplayGraphic_OTM8009AramE) refers to main.o(.text._ZN9EmbSysLib2Hw14DisplayGraphic8getWidthEv) for EmbSysLib::Hw::DisplayGraphic::getWidth()
    main.o(.rodata._ZTVN9EmbSysLib2Hw26DisplayGraphic_OTM8009AramE) refers to main.o(.text._ZN9EmbSysLib2Hw14DisplayGraphic9getHeightEv) for EmbSysLib::Hw::DisplayGraphic::getHeight()
    main.o(.rodata._ZTVN9EmbSysLib2Hw26DisplayGraphic_OTM8009AramE) refers to main.o(.text._ZN9EmbSysLib2Hw26DisplayGraphic_OTM8009Aram7setAreaEtttt) for EmbSysLib::Hw::DisplayGraphic_OTM8009Aram::setArea(unsigned short, unsigned short, unsigned short, unsigned short)
    main.o(.rodata._ZTVN9EmbSysLib2Hw26DisplayGraphic_OTM8009AramE) refers to main.o(.text._ZN9EmbSysLib2Hw26DisplayGraphic_OTM8009Aram8setPixelEttt) for EmbSysLib::Hw::DisplayGraphic_OTM8009Aram::setPixel(unsigned short, unsigned short, unsigned short)
    main.o(.rodata._ZTVN9EmbSysLib2Hw26DisplayGraphic_OTM8009AramE) refers to main.o(.text._ZN9EmbSysLib2Hw26DisplayGraphic_OTM8009Aram8setPixelEt) for EmbSysLib::Hw::DisplayGraphic_OTM8009Aram::setPixel(unsigned short)
    main.o(.rodata._ZTVN9EmbSysLib2Hw12Touch_FT6206E) refers to main.o(.text._ZN9EmbSysLib2Hw12Touch_FT62066updateEv) for EmbSysLib::Hw::Touch_FT6206::update()
    main.o(.rodata._ZTVN9EmbSysLib2Hw12Touch_FT6206E) refers to lib.o(.text._ZN9EmbSysLib2Hw5Touch7getPosXEv) for EmbSysLib::Hw::Touch::getPosX()
    main.o(.rodata._ZTVN9EmbSysLib2Hw12Touch_FT6206E) refers to lib.o(.text._ZN9EmbSysLib2Hw5Touch7getPosYEv) for EmbSysLib::Hw::Touch::getPosY()
    main.o(.rodata._ZTVN9EmbSysLib2Hw12Touch_FT6206E) refers to lib.o(.text._ZN9EmbSysLib2Hw5Touch9isTouchedEv) for EmbSysLib::Hw::Touch::isTouched()
    main.o(.rodata.uartIsc) refers to main.o(.bss.uart) for uart
    main.o(.init_array) refers to main.o(.text._GLOBAL__sub_I_main.cpp) for _GLOBAL__sub_I_main.cpp
    lib.o(.text._ZN9EmbSysLib2Hw6SystemC2Eb) refers to lib.o(.bss._ZN9EmbSysLib2Hw6System12cntInterruptE) for EmbSysLib::Hw::System::cntInterrupt
    lib.o(.ARM.exidx.text._ZN9EmbSysLib2Hw6SystemC2Eb) refers to lib.o(.text._ZN9EmbSysLib2Hw6SystemC2Eb) for [Anonymous Symbol]
    lib.o(.ARM.exidx.text._ZN9EmbSysLib2Hw6System15disableWatchdogEv) refers to lib.o(.text._ZN9EmbSysLib2Hw6System15disableWatchdogEv) for [Anonymous Symbol]
    lib.o(.text._ZN9EmbSysLib2Hw6System16disableInterruptEv) refers to lib.o(.bss._ZN9EmbSysLib2Hw6System12cntInterruptE) for EmbSysLib::Hw::System::cntInterrupt
    lib.o(.ARM.exidx.text._ZN9EmbSysLib2Hw6System16disableInterruptEv) refers to lib.o(.text._ZN9EmbSysLib2Hw6System16disableInterruptEv) for [Anonymous Symbol]
    lib.o(.text._ZN9EmbSysLib2Hw6System5startEv) refers to lib.o(.bss._ZN9EmbSysLib2Hw6System12cntInterruptE) for EmbSysLib::Hw::System::cntInterrupt
    lib.o(.ARM.exidx.text._ZN9EmbSysLib2Hw6System5startEv) refers to lib.o(.text._ZN9EmbSysLib2Hw6System5startEv) for [Anonymous Symbol]
    lib.o(.text._ZN9EmbSysLib2Hw6System15enableInterruptEv) refers to lib.o(.bss._ZN9EmbSysLib2Hw6System12cntInterruptE) for EmbSysLib::Hw::System::cntInterrupt
    lib.o(.ARM.exidx.text._ZN9EmbSysLib2Hw6System15enableInterruptEv) refers to lib.o(.text._ZN9EmbSysLib2Hw6System15enableInterruptEv) for [Anonymous Symbol]
    lib.o(.ARM.exidx.text._ZN9EmbSysLib2Hw6System14enableWatchdogEt) refers to lib.o(.text._ZN9EmbSysLib2Hw6System14enableWatchdogEt) for [Anonymous Symbol]
    lib.o(.ARM.exidx.text._ZN9EmbSysLib2Hw6System12feedWatchdogEv) refers to lib.o(.text._ZN9EmbSysLib2Hw6System12feedWatchdogEv) for [Anonymous Symbol]
    lib.o(.text._ZN9EmbSysLib2Hw6System5resetEv) refers to lib.o(.text._ZL18__NVIC_SystemResetv) for __NVIC_SystemReset()
    lib.o(.ARM.exidx.text._ZN9EmbSysLib2Hw6System5resetEv) refers to lib.o(.text._ZN9EmbSysLib2Hw6System5resetEv) for [Anonymous Symbol]
    lib.o(.ARM.exidx.text._ZL18__NVIC_SystemResetv) refers to lib.o(.text._ZL18__NVIC_SystemResetv) for [Anonymous Symbol]
    lib.o(.text._ZN9EmbSysLib2Hw6System13delayMicroSecEt) refers to dflt_clz.o(x$fpl$dfltu) for __aeabi_ui2d
    lib.o(.text._ZN9EmbSysLib2Hw6System13delayMicroSecEt) refers to dmul.o(x$fpl$dmul) for __aeabi_dmul
    lib.o(.text._ZN9EmbSysLib2Hw6System13delayMicroSecEt) refers to dfixu.o(x$fpl$dfixu) for __aeabi_d2uiz
    lib.o(.ARM.exidx.text._ZN9EmbSysLib2Hw6System13delayMicroSecEt) refers to lib.o(.text._ZN9EmbSysLib2Hw6System13delayMicroSecEt) for [Anonymous Symbol]
    lib.o(.ARM.exidx.text._ZN9EmbSysLib2Hw6System13delayMilliSecEt) refers to lib.o(.text._ZN9EmbSysLib2Hw6System13delayMilliSecEt) for [Anonymous Symbol]
    lib.o(.ARM.exidx.text.SystemInit) refers to lib.o(.text.SystemInit) for [Anonymous Symbol]
    lib.o(.ARM.exidx.text._Z18System_GetDSIclockv) refers to lib.o(.text._Z18System_GetDSIclockv) for [Anonymous Symbol]
    lib.o(.ARM.exidx.text._Z4htont) refers to lib.o(.text._Z4htont) for [Anonymous Symbol]
    lib.o(.ARM.exidx.text._Z4htonj) refers to lib.o(.text._Z4htonj) for [Anonymous Symbol]
    lib.o(.ARM.exidx.text._Z4ntoht) refers to lib.o(.text._Z4ntoht) for [Anonymous Symbol]
    lib.o(.ARM.exidx.text._Z4ntohj) refers to lib.o(.text._Z4ntohj) for [Anonymous Symbol]
    lib.o(.text._ZN9EmbSysLib2Hw9PinConfig3setEP12GPIO_TypeDefhjh) refers to lib.o(.bss._ZN9EmbSysLib2Hw6System12cntInterruptE) for EmbSysLib::Hw::System::cntInterrupt
    lib.o(.ARM.exidx.text._ZN9EmbSysLib2Hw9PinConfig3setEP12GPIO_TypeDefhjh) refers to lib.o(.text._ZN9EmbSysLib2Hw9PinConfig3setEP12GPIO_TypeDefhjh) for [Anonymous Symbol]
    lib.o(.text._ZN9EmbSysLib2Hw9PinConfig3setENS1_8FunctionEj) refers to main.o(.data._ZN9EmbSysLib2Hw9PinConfig5tableE) for EmbSysLib::Hw::PinConfig::table
    lib.o(.text._ZN9EmbSysLib2Hw9PinConfig3setENS1_8FunctionEj) refers to lib.o(.data._ZN9EmbSysLib2Hw9PinConfig6reportE) for EmbSysLib::Hw::PinConfig::report
    lib.o(.text._ZN9EmbSysLib2Hw9PinConfig3setENS1_8FunctionEj) refers to lib.o(.bss._ZN9EmbSysLib3Std6Report10globalCodeE) for EmbSysLib::Std::Report::globalCode
    lib.o(.text._ZN9EmbSysLib2Hw9PinConfig3setENS1_8FunctionEj) refers to lib.o(.bss._ZN9EmbSysLib3Std6Report12globalModuleE) for EmbSysLib::Std::Report::globalModule
    lib.o(.text._ZN9EmbSysLib2Hw9PinConfig3setENS1_8FunctionEj) refers to lib.o(.bss._ZN9EmbSysLib3Std6Report10msgHandlerE) for EmbSysLib::Std::Report::msgHandler
    lib.o(.text._ZN9EmbSysLib2Hw9PinConfig3setENS1_8FunctionEj) refers to lib.o(.text._ZN9EmbSysLib2Hw9PinConfig3setEP12GPIO_TypeDefhjh) for EmbSysLib::Hw::PinConfig::set(GPIO_TypeDef*, unsigned char, unsigned int, unsigned char)
    lib.o(.text._ZN9EmbSysLib2Hw9PinConfig3setENS1_8FunctionEj) refers to lib.o(.text._ZL18__NVIC_SystemResetv) for __NVIC_SystemReset()
    lib.o(.text._ZN9EmbSysLib2Hw9PinConfig3setENS1_8FunctionEj) refers to lib.o(.text._ZN9EmbSysLib3Std6Report5errorEt) for EmbSysLib::Std::Report::error(unsigned short)
    lib.o(.ARM.exidx.text._ZN9EmbSysLib2Hw9PinConfig3setENS1_8FunctionEj) refers to lib.o(.text._ZN9EmbSysLib2Hw9PinConfig3setENS1_8FunctionEj) for [Anonymous Symbol]
    lib.o(.text._ZN9EmbSysLib3Std6Report5errorEt) refers to lib.o(.bss._ZN9EmbSysLib3Std6Report10globalCodeE) for EmbSysLib::Std::Report::globalCode
    lib.o(.text._ZN9EmbSysLib3Std6Report5errorEt) refers to lib.o(.bss._ZN9EmbSysLib3Std6Report12globalModuleE) for EmbSysLib::Std::Report::globalModule
    lib.o(.text._ZN9EmbSysLib3Std6Report5errorEt) refers to lib.o(.bss._ZN9EmbSysLib3Std6Report10msgHandlerE) for EmbSysLib::Std::Report::msgHandler
    lib.o(.text._ZN9EmbSysLib3Std6Report5errorEt) refers to lib.o(.text._ZL18__NVIC_SystemResetv) for __NVIC_SystemReset()
    lib.o(.ARM.exidx.text._ZN9EmbSysLib3Std6Report5errorEt) refers to lib.o(.text._ZN9EmbSysLib3Std6Report5errorEt) for [Anonymous Symbol]
    lib.o(.text._ZN9EmbSysLib2Hw7Adc_McuC2ENS1_5AdcIdERNS0_5TimerE) refers to lib.o(.rodata._ZTVN9EmbSysLib2Hw3AdcE) for vtable for EmbSysLib::Hw::Adc
    lib.o(.text._ZN9EmbSysLib2Hw7Adc_McuC2ENS1_5AdcIdERNS0_5TimerE) refers to new.cpp.o(.text._Znaj) for operator new[](unsigned int)
    lib.o(.text._ZN9EmbSysLib2Hw7Adc_McuC2ENS1_5AdcIdERNS0_5TimerE) refers to lib.o(.rodata._ZTVN9EmbSysLib2Hw7Adc_McuE) for vtable for EmbSysLib::Hw::Adc_Mcu
    lib.o(.text._ZN9EmbSysLib2Hw7Adc_McuC2ENS1_5AdcIdERNS0_5TimerE) refers to lib.o(.bss._ZN9EmbSysLib2Hw7Adc_Mcu4adc1E) for EmbSysLib::Hw::Adc_Mcu::adc1
    lib.o(.text._ZN9EmbSysLib2Hw7Adc_McuC2ENS1_5AdcIdERNS0_5TimerE) refers to lib.o(.bss._ZN9EmbSysLib2Hw7Adc_Mcu4adc3E) for EmbSysLib::Hw::Adc_Mcu::adc3
    lib.o(.text._ZN9EmbSysLib2Hw7Adc_McuC2ENS1_5AdcIdERNS0_5TimerE) refers to lib.o(.bss._ZN9EmbSysLib2Hw7Adc_Mcu4adc2E) for EmbSysLib::Hw::Adc_Mcu::adc2
    lib.o(.text._ZN9EmbSysLib2Hw7Adc_McuC2ENS1_5AdcIdERNS0_5TimerE) refers to lib.o(.bss._ZN9EmbSysLib3Std6Report10globalCodeE) for EmbSysLib::Std::Report::globalCode
    lib.o(.text._ZN9EmbSysLib2Hw7Adc_McuC2ENS1_5AdcIdERNS0_5TimerE) refers to lib.o(.bss._ZN9EmbSysLib3Std6Report12globalModuleE) for EmbSysLib::Std::Report::globalModule
    lib.o(.text._ZN9EmbSysLib2Hw7Adc_McuC2ENS1_5AdcIdERNS0_5TimerE) refers to lib.o(.bss._ZN9EmbSysLib3Std6Report10msgHandlerE) for EmbSysLib::Std::Report::msgHandler
    lib.o(.text._ZN9EmbSysLib2Hw7Adc_McuC2ENS1_5AdcIdERNS0_5TimerE) refers to lib.o(.text._ZL18__NVIC_SystemResetv) for __NVIC_SystemReset()
    lib.o(.ARM.exidx.text._ZN9EmbSysLib2Hw7Adc_McuC2ENS1_5AdcIdERNS0_5TimerE) refers to lib.o(.text._ZN9EmbSysLib2Hw7Adc_McuC2ENS1_5AdcIdERNS0_5TimerE) for [Anonymous Symbol]
    lib.o(.text._ZN9EmbSysLib2Hw3AdcC2EthRNS0_5TimerE) refers to lib.o(.rodata._ZTVN9EmbSysLib2Hw3AdcE) for vtable for EmbSysLib::Hw::Adc
    lib.o(.text._ZN9EmbSysLib2Hw3AdcC2EthRNS0_5TimerE) refers to new.cpp.o(.text._Znaj) for operator new[](unsigned int)
    lib.o(.ARM.exidx.text._ZN9EmbSysLib2Hw3AdcC2EthRNS0_5TimerE) refers to lib.o(.text._ZN9EmbSysLib2Hw3AdcC2EthRNS0_5TimerE) for [Anonymous Symbol]
    lib.o(.text._ZN9EmbSysLib2Hw7Adc_Mcu8configChEhh) refers to lib.o(.text._ZN9EmbSysLib2Hw9PinConfig3setENS1_8FunctionEj) for EmbSysLib::Hw::PinConfig::set(EmbSysLib::Hw::PinConfig::Function, unsigned int)
    lib.o(.text._ZN9EmbSysLib2Hw7Adc_Mcu8configChEhh) refers to lib.o(.bss._ZN9EmbSysLib3Std6Report10globalCodeE) for EmbSysLib::Std::Report::globalCode
    lib.o(.text._ZN9EmbSysLib2Hw7Adc_Mcu8configChEhh) refers to lib.o(.bss._ZN9EmbSysLib3Std6Report12globalModuleE) for EmbSysLib::Std::Report::globalModule
    lib.o(.text._ZN9EmbSysLib2Hw7Adc_Mcu8configChEhh) refers to lib.o(.bss._ZN9EmbSysLib3Std6Report10msgHandlerE) for EmbSysLib::Std::Report::msgHandler
    lib.o(.text._ZN9EmbSysLib2Hw7Adc_Mcu8configChEhh) refers to lib.o(.text._ZN9EmbSysLib3Std6Report5errorEt) for EmbSysLib::Std::Report::error(unsigned short)
    lib.o(.text._ZN9EmbSysLib2Hw7Adc_Mcu8configChEhh) refers to lib.o(.text._ZL18__NVIC_SystemResetv) for __NVIC_SystemReset()
    lib.o(.ARM.exidx.text._ZN9EmbSysLib2Hw7Adc_Mcu8configChEhh) refers to lib.o(.text._ZN9EmbSysLib2Hw7Adc_Mcu8configChEhh) for [Anonymous Symbol]
    lib.o(.text.ADC_IRQHandler) refers to lib.o(.bss._ZN9EmbSysLib2Hw7Adc_Mcu4adc1E) for EmbSysLib::Hw::Adc_Mcu::adc1
    lib.o(.text.ADC_IRQHandler) refers to lib.o(.bss._ZN9EmbSysLib2Hw7Adc_Mcu4adc2E) for EmbSysLib::Hw::Adc_Mcu::adc2
    lib.o(.text.ADC_IRQHandler) refers to lib.o(.bss._ZN9EmbSysLib2Hw7Adc_Mcu4adc3E) for EmbSysLib::Hw::Adc_Mcu::adc3
    lib.o(.ARM.exidx.text.ADC_IRQHandler) refers to lib.o(.text.ADC_IRQHandler) for [Anonymous Symbol]
    lib.o(.text._ZN9EmbSysLib2Hw7Dac_McuC2Ev) refers to lib.o(.rodata._ZTVN9EmbSysLib2Hw7Dac_McuE) for vtable for EmbSysLib::Hw::Dac_Mcu
    lib.o(.ARM.exidx.text._ZN9EmbSysLib2Hw7Dac_McuC2Ev) refers to lib.o(.text._ZN9EmbSysLib2Hw7Dac_McuC2Ev) for [Anonymous Symbol]
    lib.o(.text._ZN9EmbSysLib2Hw3DacC2Et) refers to lib.o(.rodata._ZTVN9EmbSysLib2Hw3DacE) for vtable for EmbSysLib::Hw::Dac
    lib.o(.ARM.exidx.text._ZN9EmbSysLib2Hw3DacC2Et) refers to lib.o(.text._ZN9EmbSysLib2Hw3DacC2Et) for [Anonymous Symbol]
    lib.o(.text._ZN9EmbSysLib2Hw12Ethernet_McuC2ERKNS0_7NetAddrILh6EEERNS0_5TimerE) refers to lib.o(.rodata._ZTVN9EmbSysLib2Hw3NetE) for vtable for EmbSysLib::Hw::Net
    lib.o(.text._ZN9EmbSysLib2Hw12Ethernet_McuC2ERKNS0_7NetAddrILh6EEERNS0_5TimerE) refers to lib.o(.rodata._ZTVN9EmbSysLib2Hw3Net7HandlerE) for vtable for EmbSysLib::Hw::Net::Handler
    lib.o(.text._ZN9EmbSysLib2Hw12Ethernet_McuC2ERKNS0_7NetAddrILh6EEERNS0_5TimerE) refers to dflt_clz.o(x$fpl$dfltu) for __aeabi_ui2d
    lib.o(.text._ZN9EmbSysLib2Hw12Ethernet_McuC2ERKNS0_7NetAddrILh6EEERNS0_5TimerE) refers to ddiv.o(x$fpl$ddiv) for __aeabi_ddiv
    lib.o(.text._ZN9EmbSysLib2Hw12Ethernet_McuC2ERKNS0_7NetAddrILh6EEERNS0_5TimerE) refers to dfix.o(x$fpl$dfix) for __aeabi_d2iz
    lib.o(.text._ZN9EmbSysLib2Hw12Ethernet_McuC2ERKNS0_7NetAddrILh6EEERNS0_5TimerE) refers to lib.o(.rodata._ZTVN9EmbSysLib2Hw12Ethernet_McuE) for vtable for EmbSysLib::Hw::Ethernet_Mcu
    lib.o(.text._ZN9EmbSysLib2Hw12Ethernet_McuC2ERKNS0_7NetAddrILh6EEERNS0_5TimerE) refers to lib.o(.text._ZN9EmbSysLib2Hw9PinConfig3setENS1_8FunctionEj) for EmbSysLib::Hw::PinConfig::set(EmbSysLib::Hw::PinConfig::Function, unsigned int)
    lib.o(.text._ZN9EmbSysLib2Hw12Ethernet_McuC2ERKNS0_7NetAddrILh6EEERNS0_5TimerE) refers to lib.o(.text._ZN9EmbSysLib2Hw12Ethernet_Mcu4InitEt) for EmbSysLib::Hw::Ethernet_Mcu::Init(unsigned short)
    lib.o(.text._ZN9EmbSysLib2Hw12Ethernet_McuC2ERKNS0_7NetAddrILh6EEERNS0_5TimerE) refers to lib.o(.bss._ZN9EmbSysLib2Hw12Ethernet_Mcu9dmaBufferE) for EmbSysLib::Hw::Ethernet_Mcu::dmaBuffer
    lib.o(.ARM.exidx.text._ZN9EmbSysLib2Hw12Ethernet_McuC2ERKNS0_7NetAddrILh6EEERNS0_5TimerE) refers to lib.o(.text._ZN9EmbSysLib2Hw12Ethernet_McuC2ERKNS0_7NetAddrILh6EEERNS0_5TimerE) for [Anonymous Symbol]
    lib.o(.text._ZN9EmbSysLib2Hw8EthernetC2ERKNS0_7NetAddrILh6EEERNS0_5TimerE) refers to lib.o(.rodata._ZTVN9EmbSysLib2Hw3NetE) for vtable for EmbSysLib::Hw::Net
    lib.o(.text._ZN9EmbSysLib2Hw8EthernetC2ERKNS0_7NetAddrILh6EEERNS0_5TimerE) refers to lib.o(.rodata._ZTVN9EmbSysLib2Hw3Net7HandlerE) for vtable for EmbSysLib::Hw::Net::Handler
    lib.o(.text._ZN9EmbSysLib2Hw8EthernetC2ERKNS0_7NetAddrILh6EEERNS0_5TimerE) refers to dflt_clz.o(x$fpl$dfltu) for __aeabi_ui2d
    lib.o(.text._ZN9EmbSysLib2Hw8EthernetC2ERKNS0_7NetAddrILh6EEERNS0_5TimerE) refers to ddiv.o(x$fpl$ddiv) for __aeabi_ddiv
    lib.o(.text._ZN9EmbSysLib2Hw8EthernetC2ERKNS0_7NetAddrILh6EEERNS0_5TimerE) refers to dfix.o(x$fpl$dfix) for __aeabi_d2iz
    lib.o(.text._ZN9EmbSysLib2Hw8EthernetC2ERKNS0_7NetAddrILh6EEERNS0_5TimerE) refers to lib.o(.rodata._ZTVN9EmbSysLib2Hw8EthernetE) for vtable for EmbSysLib::Hw::Ethernet
    lib.o(.ARM.exidx.text._ZN9EmbSysLib2Hw8EthernetC2ERKNS0_7NetAddrILh6EEERNS0_5TimerE) refers to lib.o(.text._ZN9EmbSysLib2Hw8EthernetC2ERKNS0_7NetAddrILh6EEERNS0_5TimerE) for [Anonymous Symbol]
    lib.o(.ARM.exidx.text._ZN9EmbSysLib2Hw12Ethernet_Mcu16WritePHYRegisterEttt) refers to lib.o(.text._ZN9EmbSysLib2Hw12Ethernet_Mcu16WritePHYRegisterEttt) for [Anonymous Symbol]
    lib.o(.ARM.exidx.text._ZN9EmbSysLib2Hw12Ethernet_Mcu15ReadPHYRegisterEtt) refers to lib.o(.text._ZN9EmbSysLib2Hw12Ethernet_Mcu15ReadPHYRegisterEtt) for [Anonymous Symbol]
    lib.o(.ARM.exidx.text._ZN9EmbSysLib2Hw12Ethernet_Mcu4InitEt) refers to lib.o(.text._ZN9EmbSysLib2Hw12Ethernet_Mcu4InitEt) for [Anonymous Symbol]
    lib.o(.ARM.exidx.text._ZN9EmbSysLib2Hw12Ethernet_Mcu16MACAddressConfigERKNS0_7NetAddrILh6EEE) refers to lib.o(.text._ZN9EmbSysLib2Hw12Ethernet_Mcu16MACAddressConfigERKNS0_7NetAddrILh6EEE) for [Anonymous Symbol]
    lib.o(.text._ZN9EmbSysLib2Hw12Ethernet_Mcu18DMATxDescChainInitEv) refers to lib.o(.bss._ZN9EmbSysLib2Hw12Ethernet_Mcu9dmaBufferE) for EmbSysLib::Hw::Ethernet_Mcu::dmaBuffer
    lib.o(.ARM.exidx.text._ZN9EmbSysLib2Hw12Ethernet_Mcu18DMATxDescChainInitEv) refers to lib.o(.text._ZN9EmbSysLib2Hw12Ethernet_Mcu18DMATxDescChainInitEv) for [Anonymous Symbol]
    lib.o(.text._ZN9EmbSysLib2Hw12Ethernet_Mcu18DMARxDescChainInitEv) refers to lib.o(.bss._ZN9EmbSysLib2Hw12Ethernet_Mcu9dmaBufferE) for EmbSysLib::Hw::Ethernet_Mcu::dmaBuffer
    lib.o(.ARM.exidx.text._ZN9EmbSysLib2Hw12Ethernet_Mcu18DMARxDescChainInitEv) refers to lib.o(.text._ZN9EmbSysLib2Hw12Ethernet_Mcu18DMARxDescChainInitEv) for [Anonymous Symbol]
    lib.o(.ARM.exidx.text._ZN9EmbSysLib2Hw12Ethernet_Mcu5StartEv) refers to lib.o(.text._ZN9EmbSysLib2Hw12Ethernet_Mcu5StartEv) for [Anonymous Symbol]
    lib.o(.ARM.exidx.text._ZN9EmbSysLib2Hw12Ethernet_Mcu7getTypeEv) refers to lib.o(.text._ZN9EmbSysLib2Hw12Ethernet_Mcu7getTypeEv) for [Anonymous Symbol]
    lib.o(.text._ZN9EmbSysLib2Hw12Ethernet_Mcu10PacketSendEPht) refers to rt_memcpy_v6.o(.text) for __aeabi_memcpy
    lib.o(.ARM.exidx.text._ZN9EmbSysLib2Hw12Ethernet_Mcu10PacketSendEPht) refers to lib.o(.text._ZN9EmbSysLib2Hw12Ethernet_Mcu10PacketSendEPht) for [Anonymous Symbol]
    lib.o(.ARM.exidx.text._ZN9EmbSysLib2Hw12Ethernet_Mcu28Prepare_Transmit_DescriptorsEt) refers to lib.o(.text._ZN9EmbSysLib2Hw12Ethernet_Mcu28Prepare_Transmit_DescriptorsEt) for [Anonymous Symbol]
    lib.o(.text._ZN9EmbSysLib2Hw12Ethernet_Mcu13PacketReceiveEv) refers to rt_memcpy_v6.o(.text) for __aeabi_memcpy
    lib.o(.ARM.exidx.text._ZN9EmbSysLib2Hw12Ethernet_Mcu13PacketReceiveEv) refers to lib.o(.text._ZN9EmbSysLib2Hw12Ethernet_Mcu13PacketReceiveEv) for [Anonymous Symbol]
    lib.o(.ARM.exidx.text._ZN9EmbSysLib2Hw12Ethernet_Mcu18CheckFrameReceivedEv) refers to lib.o(.text._ZN9EmbSysLib2Hw12Ethernet_Mcu18CheckFrameReceivedEv) for [Anonymous Symbol]
    lib.o(.ARM.exidx.text._ZN9EmbSysLib2Hw12Ethernet_Mcu18Get_Received_FrameEv) refers to lib.o(.text._ZN9EmbSysLib2Hw12Ethernet_Mcu18Get_Received_FrameEv) for [Anonymous Symbol]
    lib.o(.ARM.exidx.text._ZN9EmbSysLib2Hw12Ethernet_Mcu6createENS0_7NetAddrILh6EEEt) refers to lib.o(.text._ZN9EmbSysLib2Hw12Ethernet_Mcu6createENS0_7NetAddrILh6EEEt) for [Anonymous Symbol]
    lib.o(.text._ZN9EmbSysLib2Hw13I2Cmaster_McuC2ENS1_6I2C_IDEt) refers to lib.o(.rodata._ZTVN9EmbSysLib2Hw13I2Cmaster_McuE) for vtable for EmbSysLib::Hw::I2Cmaster_Mcu
    lib.o(.text._ZN9EmbSysLib2Hw13I2Cmaster_McuC2ENS1_6I2C_IDEt) refers to lib.o(.text._ZN9EmbSysLib2Hw9PinConfig3setENS1_8FunctionEj) for EmbSysLib::Hw::PinConfig::set(EmbSysLib::Hw::PinConfig::Function, unsigned int)
    lib.o(.text._ZN9EmbSysLib2Hw13I2Cmaster_McuC2ENS1_6I2C_IDEt) refers to lib.o(.bss._ZN9EmbSysLib3Std6Report10globalCodeE) for EmbSysLib::Std::Report::globalCode
    lib.o(.text._ZN9EmbSysLib2Hw13I2Cmaster_McuC2ENS1_6I2C_IDEt) refers to lib.o(.bss._ZN9EmbSysLib3Std6Report12globalModuleE) for EmbSysLib::Std::Report::globalModule
    lib.o(.text._ZN9EmbSysLib2Hw13I2Cmaster_McuC2ENS1_6I2C_IDEt) refers to lib.o(.bss._ZN9EmbSysLib3Std6Report10msgHandlerE) for EmbSysLib::Std::Report::msgHandler
    lib.o(.text._ZN9EmbSysLib2Hw13I2Cmaster_McuC2ENS1_6I2C_IDEt) refers to lib.o(.text._ZL18__NVIC_SystemResetv) for __NVIC_SystemReset()
    lib.o(.ARM.exidx.text._ZN9EmbSysLib2Hw13I2Cmaster_McuC2ENS1_6I2C_IDEt) refers to lib.o(.text._ZN9EmbSysLib2Hw13I2Cmaster_McuC2ENS1_6I2C_IDEt) for [Anonymous Symbol]
    lib.o(.text._ZN9EmbSysLib2Hw9I2CmasterC2Et) refers to lib.o(.rodata._ZTVN9EmbSysLib2Hw9I2CmasterE) for vtable for EmbSysLib::Hw::I2Cmaster
    lib.o(.ARM.exidx.text._ZN9EmbSysLib2Hw9I2CmasterC2Et) refers to lib.o(.text._ZN9EmbSysLib2Hw9I2CmasterC2Et) for [Anonymous Symbol]
    lib.o(.text._ZN9EmbSysLib2Hw12Memory_BKRAMC2Ev) refers to lib.o(.rodata._ZTVN9EmbSysLib2Hw12Memory_BKRAME) for vtable for EmbSysLib::Hw::Memory_BKRAM
    lib.o(.ARM.exidx.text._ZN9EmbSysLib2Hw12Memory_BKRAMC2Ev) refers to lib.o(.text._ZN9EmbSysLib2Hw12Memory_BKRAMC2Ev) for [Anonymous Symbol]
    lib.o(.text._ZN9EmbSysLib2Hw6MemoryC2Etjhb) refers to lib.o(.rodata._ZTVN9EmbSysLib2Hw6MemoryE) for vtable for EmbSysLib::Hw::Memory
    lib.o(.ARM.exidx.text._ZN9EmbSysLib2Hw6MemoryC2Etjhb) refers to lib.o(.text._ZN9EmbSysLib2Hw6MemoryC2Etjhb) for [Anonymous Symbol]
    lib.o(.ARM.exidx.text._ZN9EmbSysLib2Hw12Memory_BKRAM6unlockEv) refers to lib.o(.text._ZN9EmbSysLib2Hw12Memory_BKRAM6unlockEv) for [Anonymous Symbol]
    lib.o(.ARM.exidx.text._ZN9EmbSysLib2Hw12Memory_BKRAM4lockEv) refers to lib.o(.text._ZN9EmbSysLib2Hw12Memory_BKRAM4lockEv) for [Anonymous Symbol]
    lib.o(.text._ZN9EmbSysLib2Hw12Memory_FlashC2Ehh) refers to lib.o(.rodata._ZTVN9EmbSysLib2Hw12Memory_FlashE) for vtable for EmbSysLib::Hw::Memory_Flash
    lib.o(.text._ZN9EmbSysLib2Hw12Memory_FlashC2Ehh) refers to lib.o(.bss._ZN9EmbSysLib3Std6Report10globalCodeE) for EmbSysLib::Std::Report::globalCode
    lib.o(.text._ZN9EmbSysLib2Hw12Memory_FlashC2Ehh) refers to lib.o(.bss._ZN9EmbSysLib3Std6Report12globalModuleE) for EmbSysLib::Std::Report::globalModule
    lib.o(.text._ZN9EmbSysLib2Hw12Memory_FlashC2Ehh) refers to lib.o(.bss._ZN9EmbSysLib3Std6Report10msgHandlerE) for EmbSysLib::Std::Report::msgHandler
    lib.o(.text._ZN9EmbSysLib2Hw12Memory_FlashC2Ehh) refers to lib.o(.rodata..Lswitch.table._ZN9EmbSysLib2Hw12Memory_FlashC2Ehh) for .Lswitch.table._ZN9EmbSysLib2Hw12Memory_FlashC2Ehh
    lib.o(.text._ZN9EmbSysLib2Hw12Memory_FlashC2Ehh) refers to lib.o(.text._ZL18__NVIC_SystemResetv) for __NVIC_SystemReset()
    lib.o(.ARM.exidx.text._ZN9EmbSysLib2Hw12Memory_FlashC2Ehh) refers to lib.o(.text._ZN9EmbSysLib2Hw12Memory_FlashC2Ehh) for [Anonymous Symbol]
    lib.o(.text._ZN9EmbSysLib3Std6Report5alertEt) refers to lib.o(.bss._ZN9EmbSysLib3Std6Report10globalCodeE) for EmbSysLib::Std::Report::globalCode
    lib.o(.text._ZN9EmbSysLib3Std6Report5alertEt) refers to lib.o(.bss._ZN9EmbSysLib3Std6Report12globalModuleE) for EmbSysLib::Std::Report::globalModule
    lib.o(.text._ZN9EmbSysLib3Std6Report5alertEt) refers to lib.o(.bss._ZN9EmbSysLib3Std6Report10msgHandlerE) for EmbSysLib::Std::Report::msgHandler
    lib.o(.ARM.exidx.text._ZN9EmbSysLib3Std6Report5alertEt) refers to lib.o(.text._ZN9EmbSysLib3Std6Report5alertEt) for [Anonymous Symbol]
    lib.o(.ARM.exidx.text._ZN9EmbSysLib2Hw12Memory_Flash6unlockEv) refers to lib.o(.text._ZN9EmbSysLib2Hw12Memory_Flash6unlockEv) for [Anonymous Symbol]
    lib.o(.ARM.exidx.text._ZN9EmbSysLib2Hw12Memory_Flash4lockEv) refers to lib.o(.text._ZN9EmbSysLib2Hw12Memory_Flash4lockEv) for [Anonymous Symbol]
    lib.o(.ARM.exidx.text._ZN9EmbSysLib2Hw12Memory_Flash5eraseEv) refers to lib.o(.text._ZN9EmbSysLib2Hw12Memory_Flash5eraseEv) for [Anonymous Symbol]
    lib.o(.ARM.exidx.text._ZN9EmbSysLib2Hw12Memory_Flash9erasePageEh) refers to lib.o(.text._ZN9EmbSysLib2Hw12Memory_Flash9erasePageEh) for [Anonymous Symbol]
    lib.o(.text._ZN9EmbSysLib2Hw12Memory_Flash9writeByteEjh) refers to lib.o(.bss._ZN9EmbSysLib3Std6Report10globalCodeE) for EmbSysLib::Std::Report::globalCode
    lib.o(.text._ZN9EmbSysLib2Hw12Memory_Flash9writeByteEjh) refers to lib.o(.bss._ZN9EmbSysLib3Std6Report12globalModuleE) for EmbSysLib::Std::Report::globalModule
    lib.o(.text._ZN9EmbSysLib2Hw12Memory_Flash9writeByteEjh) refers to lib.o(.bss._ZN9EmbSysLib3Std6Report10msgHandlerE) for EmbSysLib::Std::Report::msgHandler
    lib.o(.ARM.exidx.text._ZN9EmbSysLib2Hw12Memory_Flash9writeByteEjh) refers to lib.o(.text._ZN9EmbSysLib2Hw12Memory_Flash9writeByteEjh) for [Anonymous Symbol]
    lib.o(.ARM.exidx.text._ZN9EmbSysLib2Hw12Memory_Flash8readByteEj) refers to lib.o(.text._ZN9EmbSysLib2Hw12Memory_Flash8readByteEj) for [Anonymous Symbol]
    lib.o(.text._ZN9EmbSysLib2Hw8Port_McuC2ENS1_6PortIdE) refers to lib.o(.rodata._ZTVN9EmbSysLib2Hw8Port_McuE) for vtable for EmbSysLib::Hw::Port_Mcu
    lib.o(.text._ZN9EmbSysLib2Hw8Port_McuC2ENS1_6PortIdE) refers to lib.o(.bss._ZN9EmbSysLib3Std6Report10globalCodeE) for EmbSysLib::Std::Report::globalCode
    lib.o(.text._ZN9EmbSysLib2Hw8Port_McuC2ENS1_6PortIdE) refers to lib.o(.bss._ZN9EmbSysLib3Std6Report12globalModuleE) for EmbSysLib::Std::Report::globalModule
    lib.o(.text._ZN9EmbSysLib2Hw8Port_McuC2ENS1_6PortIdE) refers to lib.o(.bss._ZN9EmbSysLib3Std6Report10msgHandlerE) for EmbSysLib::Std::Report::msgHandler
    lib.o(.text._ZN9EmbSysLib2Hw8Port_McuC2ENS1_6PortIdE) refers to lib.o(.text._ZL18__NVIC_SystemResetv) for __NVIC_SystemReset()
    lib.o(.ARM.exidx.text._ZN9EmbSysLib2Hw8Port_McuC2ENS1_6PortIdE) refers to lib.o(.text._ZN9EmbSysLib2Hw8Port_McuC2ENS1_6PortIdE) for [Anonymous Symbol]
    lib.o(.text._ZN9EmbSysLib2Hw4PortC2Et) refers to lib.o(.rodata._ZTVN9EmbSysLib2Hw4PortE) for vtable for EmbSysLib::Hw::Port
    lib.o(.ARM.exidx.text._ZN9EmbSysLib2Hw4PortC2Et) refers to lib.o(.text._ZN9EmbSysLib2Hw4PortC2Et) for [Anonymous Symbol]
    lib.o(.ARM.exidx.text._ZN9EmbSysLib2Hw8Port_Mcu7setModeEjNS0_4Port4ModeE) refers to lib.o(.text._ZN9EmbSysLib2Hw8Port_Mcu7setModeEjNS0_4Port4ModeE) for [Anonymous Symbol]
    lib.o(.text._ZN9EmbSysLib2Hw8Port_Mcu10setPinModeEhNS0_4Port4ModeE) refers to lib.o(.bss._ZN9EmbSysLib2Hw6System12cntInterruptE) for EmbSysLib::Hw::System::cntInterrupt
    lib.o(.ARM.exidx.text._ZN9EmbSysLib2Hw8Port_Mcu10setPinModeEhNS0_4Port4ModeE) refers to lib.o(.text._ZN9EmbSysLib2Hw8Port_Mcu10setPinModeEhNS0_4Port4ModeE) for [Anonymous Symbol]
    lib.o(.text._ZN9EmbSysLib2Hw7Rtc_McuC2ENS1_17RTC_ClockConfig_tE) refers to lib.o(.rodata._ZTVN9EmbSysLib2Hw7Rtc_McuE) for vtable for EmbSysLib::Hw::Rtc_Mcu
    lib.o(.ARM.exidx.text._ZN9EmbSysLib2Hw7Rtc_McuC2ENS1_17RTC_ClockConfig_tE) refers to lib.o(.text._ZN9EmbSysLib2Hw7Rtc_McuC2ENS1_17RTC_ClockConfig_tE) for [Anonymous Symbol]
    lib.o(.text._ZN9EmbSysLib2Hw3RtcC2Et) refers to lib.o(.rodata._ZTVN9EmbSysLib2Hw3RtcE) for vtable for EmbSysLib::Hw::Rtc
    lib.o(.ARM.exidx.text._ZN9EmbSysLib2Hw3RtcC2Et) refers to lib.o(.text._ZN9EmbSysLib2Hw3RtcC2Et) for [Anonymous Symbol]
    lib.o(.ARM.exidx.text._ZN9EmbSysLib2Hw7Rtc_Mcu3setERKNS0_3Rtc10PropertiesE) refers to lib.o(.text._ZN9EmbSysLib2Hw7Rtc_Mcu3setERKNS0_3Rtc10PropertiesE) for [Anonymous Symbol]
    lib.o(.ARM.exidx.text._ZN9EmbSysLib2Hw7Rtc_Mcu3getERNS0_3Rtc10PropertiesE) refers to lib.o(.text._ZN9EmbSysLib2Hw7Rtc_Mcu3getERNS0_3Rtc10PropertiesE) for [Anonymous Symbol]
    lib.o(.text.SysTick_Handler) refers to startup.o(.text) for save_context
    lib.o(.text.SysTick_Handler) refers to lib.o(.bss._ZZ15SysTick_HandlerE12stackPointer) for SysTick_Handler::stackPointer
    lib.o(.text.SysTick_Handler) refers to lib.o(.bss._ZN9EmbSysLib2Hw8Rtos_Mcu6sysTicE) for EmbSysLib::Hw::Rtos_Mcu::sysTic
    lib.o(.text.SysTick_Handler) refers to lib.o(.bss._ZN9EmbSysLib2Hw8Rtos_Mcu8scheduleE) for EmbSysLib::Hw::Rtos_Mcu::schedule
    lib.o(.ARM.exidx.text.SysTick_Handler) refers to lib.o(.text.SysTick_Handler) for [Anonymous Symbol]
    lib.o(.text.PendSV_Handler) refers to startup.o(.text) for save_context
    lib.o(.text.PendSV_Handler) refers to lib.o(.bss._ZZ14PendSV_HandlerE12stackPointer) for PendSV_Handler::stackPointer
    lib.o(.text.PendSV_Handler) refers to lib.o(.bss._ZN9EmbSysLib2Hw8Rtos_Mcu8scheduleE) for EmbSysLib::Hw::Rtos_Mcu::schedule
    lib.o(.ARM.exidx.text.PendSV_Handler) refers to lib.o(.text.PendSV_Handler) for [Anonymous Symbol]
    lib.o(.text._ZN9EmbSysLib2Hw9Timer_McuC2ENS1_7TimerIdEj) refers to lib.o(.rodata._ZTVN9EmbSysLib2Hw9Timer_McuE) for vtable for EmbSysLib::Hw::Timer_Mcu
    lib.o(.text._ZN9EmbSysLib2Hw9Timer_McuC2ENS1_7TimerIdEj) refers to lib.o(.bss._ZN9EmbSysLib2Hw9Timer_Mcu10timerPtr_1E) for EmbSysLib::Hw::Timer_Mcu::timerPtr_1
    lib.o(.text._ZN9EmbSysLib2Hw9Timer_McuC2ENS1_7TimerIdEj) refers to lib.o(.bss._ZN9EmbSysLib2Hw9Timer_Mcu10timerPtr_2E) for EmbSysLib::Hw::Timer_Mcu::timerPtr_2
    lib.o(.text._ZN9EmbSysLib2Hw9Timer_McuC2ENS1_7TimerIdEj) refers to lib.o(.bss._ZN9EmbSysLib2Hw9Timer_Mcu10timerPtr_3E) for EmbSysLib::Hw::Timer_Mcu::timerPtr_3
    lib.o(.text._ZN9EmbSysLib2Hw9Timer_McuC2ENS1_7TimerIdEj) refers to lib.o(.bss._ZN9EmbSysLib2Hw9Timer_Mcu10timerPtr_4E) for EmbSysLib::Hw::Timer_Mcu::timerPtr_4
    lib.o(.text._ZN9EmbSysLib2Hw9Timer_McuC2ENS1_7TimerIdEj) refers to lib.o(.bss._ZN9EmbSysLib2Hw9Timer_Mcu10timerPtr_5E) for EmbSysLib::Hw::Timer_Mcu::timerPtr_5
    lib.o(.text._ZN9EmbSysLib2Hw9Timer_McuC2ENS1_7TimerIdEj) refers to lib.o(.bss._ZN9EmbSysLib2Hw9Timer_Mcu10timerPtr_7E) for EmbSysLib::Hw::Timer_Mcu::timerPtr_7
    lib.o(.text._ZN9EmbSysLib2Hw9Timer_McuC2ENS1_7TimerIdEj) refers to lib.o(.bss._ZN9EmbSysLib2Hw9Timer_Mcu10timerPtr_8E) for EmbSysLib::Hw::Timer_Mcu::timerPtr_8
    lib.o(.text._ZN9EmbSysLib2Hw9Timer_McuC2ENS1_7TimerIdEj) refers to lib.o(.bss._ZN9EmbSysLib2Hw9Timer_Mcu10timerPtr_9E) for EmbSysLib::Hw::Timer_Mcu::timerPtr_9
    lib.o(.text._ZN9EmbSysLib2Hw9Timer_McuC2ENS1_7TimerIdEj) refers to lib.o(.bss._ZN9EmbSysLib2Hw9Timer_Mcu11timerPtr_10E) for EmbSysLib::Hw::Timer_Mcu::timerPtr_10
    lib.o(.text._ZN9EmbSysLib2Hw9Timer_McuC2ENS1_7TimerIdEj) refers to lib.o(.bss._ZN9EmbSysLib2Hw9Timer_Mcu11timerPtr_11E) for EmbSysLib::Hw::Timer_Mcu::timerPtr_11
    lib.o(.text._ZN9EmbSysLib2Hw9Timer_McuC2ENS1_7TimerIdEj) refers to lib.o(.bss._ZN9EmbSysLib2Hw9Timer_Mcu11timerPtr_14E) for EmbSysLib::Hw::Timer_Mcu::timerPtr_14
    lib.o(.text._ZN9EmbSysLib2Hw9Timer_McuC2ENS1_7TimerIdEj) refers to lib.o(.bss._ZN9EmbSysLib3Std6Report10globalCodeE) for EmbSysLib::Std::Report::globalCode
    lib.o(.text._ZN9EmbSysLib2Hw9Timer_McuC2ENS1_7TimerIdEj) refers to lib.o(.bss._ZN9EmbSysLib3Std6Report12globalModuleE) for EmbSysLib::Std::Report::globalModule
    lib.o(.text._ZN9EmbSysLib2Hw9Timer_McuC2ENS1_7TimerIdEj) refers to lib.o(.bss._ZN9EmbSysLib3Std6Report10msgHandlerE) for EmbSysLib::Std::Report::msgHandler
    lib.o(.text._ZN9EmbSysLib2Hw9Timer_McuC2ENS1_7TimerIdEj) refers to dflt_clz.o(x$fpl$dfltu) for __aeabi_ui2d
    lib.o(.text._ZN9EmbSysLib2Hw9Timer_McuC2ENS1_7TimerIdEj) refers to dmul.o(x$fpl$dmul) for __aeabi_dmul
    lib.o(.text._ZN9EmbSysLib2Hw9Timer_McuC2ENS1_7TimerIdEj) refers to d2f.o(x$fpl$d2f) for __aeabi_d2f
    lib.o(.text._ZN9EmbSysLib2Hw9Timer_McuC2ENS1_7TimerIdEj) refers to ddiv.o(x$fpl$ddiv) for __aeabi_ddiv
    lib.o(.text._ZN9EmbSysLib2Hw9Timer_McuC2ENS1_7TimerIdEj) refers to dfixu.o(x$fpl$dfixu) for __aeabi_d2uiz
    lib.o(.text._ZN9EmbSysLib2Hw9Timer_McuC2ENS1_7TimerIdEj) refers to lib.o(.text._ZL18__NVIC_SystemResetv) for __NVIC_SystemReset()
    lib.o(.ARM.exidx.text._ZN9EmbSysLib2Hw9Timer_McuC2ENS1_7TimerIdEj) refers to lib.o(.text._ZN9EmbSysLib2Hw9Timer_McuC2ENS1_7TimerIdEj) for [Anonymous Symbol]
    lib.o(.text._ZN9EmbSysLib2Hw5TimerC2Et) refers to lib.o(.rodata._ZTVN9EmbSysLib2Hw5TimerE) for vtable for EmbSysLib::Hw::Timer
    lib.o(.ARM.exidx.text._ZN9EmbSysLib2Hw5TimerC2Et) refers to lib.o(.text._ZN9EmbSysLib2Hw5TimerC2Et) for [Anonymous Symbol]
    lib.o(.text._ZN9EmbSysLib2Hw9Timer_Mcu9enablePWMEhNS0_5Timer4ModeE) refers to lib.o(.bss._ZN9EmbSysLib3Std6Report10globalCodeE) for EmbSysLib::Std::Report::globalCode
    lib.o(.text._ZN9EmbSysLib2Hw9Timer_Mcu9enablePWMEhNS0_5Timer4ModeE) refers to lib.o(.bss._ZN9EmbSysLib3Std6Report12globalModuleE) for EmbSysLib::Std::Report::globalModule
    lib.o(.text._ZN9EmbSysLib2Hw9Timer_Mcu9enablePWMEhNS0_5Timer4ModeE) refers to lib.o(.bss._ZN9EmbSysLib3Std6Report10msgHandlerE) for EmbSysLib::Std::Report::msgHandler
    lib.o(.text._ZN9EmbSysLib2Hw9Timer_Mcu9enablePWMEhNS0_5Timer4ModeE) refers to lib.o(.text._ZN9EmbSysLib2Hw9PinConfig3setENS1_8FunctionEj) for EmbSysLib::Hw::PinConfig::set(EmbSysLib::Hw::PinConfig::Function, unsigned int)
    lib.o(.text._ZN9EmbSysLib2Hw9Timer_Mcu9enablePWMEhNS0_5Timer4ModeE) refers to lib.o(.text._ZN9EmbSysLib3Std6Report5errorEt) for EmbSysLib::Std::Report::error(unsigned short)
    lib.o(.text._ZN9EmbSysLib2Hw9Timer_Mcu9enablePWMEhNS0_5Timer4ModeE) refers to lib.o(.text._ZL18__NVIC_SystemResetv) for __NVIC_SystemReset()
    lib.o(.ARM.exidx.text._ZN9EmbSysLib2Hw9Timer_Mcu9enablePWMEhNS0_5Timer4ModeE) refers to lib.o(.text._ZN9EmbSysLib2Hw9Timer_Mcu9enablePWMEhNS0_5Timer4ModeE) for [Anonymous Symbol]
    lib.o(.text._ZN9EmbSysLib2Hw9Timer_Mcu6setPWMEht) refers to lib.o(.bss._ZN9EmbSysLib3Std6Report10globalCodeE) for EmbSysLib::Std::Report::globalCode
    lib.o(.text._ZN9EmbSysLib2Hw9Timer_Mcu6setPWMEht) refers to lib.o(.bss._ZN9EmbSysLib3Std6Report12globalModuleE) for EmbSysLib::Std::Report::globalModule
    lib.o(.text._ZN9EmbSysLib2Hw9Timer_Mcu6setPWMEht) refers to lib.o(.bss._ZN9EmbSysLib3Std6Report10msgHandlerE) for EmbSysLib::Std::Report::msgHandler
    lib.o(.text._ZN9EmbSysLib2Hw9Timer_Mcu6setPWMEht) refers to lib.o(.text._ZL18__NVIC_SystemResetv) for __NVIC_SystemReset()
    lib.o(.ARM.exidx.text._ZN9EmbSysLib2Hw9Timer_Mcu6setPWMEht) refers to lib.o(.text._ZN9EmbSysLib2Hw9Timer_Mcu6setPWMEht) for [Anonymous Symbol]
    lib.o(.ARM.exidx.text._ZN9EmbSysLib2Hw9Timer_Mcu3isrEv) refers to lib.o(.text._ZN9EmbSysLib2Hw9Timer_Mcu3isrEv) for [Anonymous Symbol]
    lib.o(.text.TIM1_UP_TIM10_IRQHandler) refers to lib.o(.bss._ZN9EmbSysLib2Hw9Timer_Mcu10timerPtr_1E) for EmbSysLib::Hw::Timer_Mcu::timerPtr_1
    lib.o(.text.TIM1_UP_TIM10_IRQHandler) refers to lib.o(.bss._ZN9EmbSysLib2Hw9Timer_Mcu10timerPtr_9E) for EmbSysLib::Hw::Timer_Mcu::timerPtr_9
    lib.o(.text.TIM1_UP_TIM10_IRQHandler) refers to lib.o(.bss._ZN9EmbSysLib2Hw9Timer_Mcu11timerPtr_10E) for EmbSysLib::Hw::Timer_Mcu::timerPtr_10
    lib.o(.ARM.exidx.text.TIM1_UP_TIM10_IRQHandler) refers to lib.o(.text.TIM1_UP_TIM10_IRQHandler) for [Anonymous Symbol]
    lib.o(.text.TIM1_TRG_COM_TIM11_IRQHandler) refers to lib.o(.bss._ZN9EmbSysLib2Hw9Timer_Mcu11timerPtr_11E) for EmbSysLib::Hw::Timer_Mcu::timerPtr_11
    lib.o(.ARM.exidx.text.TIM1_TRG_COM_TIM11_IRQHandler) refers to lib.o(.text.TIM1_TRG_COM_TIM11_IRQHandler) for [Anonymous Symbol]
    lib.o(.text.TIM8_TRG_COM_TIM14_IRQHandler) refers to lib.o(.bss._ZN9EmbSysLib2Hw9Timer_Mcu11timerPtr_14E) for EmbSysLib::Hw::Timer_Mcu::timerPtr_14
    lib.o(.ARM.exidx.text.TIM8_TRG_COM_TIM14_IRQHandler) refers to lib.o(.text.TIM8_TRG_COM_TIM14_IRQHandler) for [Anonymous Symbol]
    lib.o(.text.TIM2_IRQHandler) refers to lib.o(.bss._ZN9EmbSysLib2Hw9Timer_Mcu10timerPtr_2E) for EmbSysLib::Hw::Timer_Mcu::timerPtr_2
    lib.o(.ARM.exidx.text.TIM2_IRQHandler) refers to lib.o(.text.TIM2_IRQHandler) for [Anonymous Symbol]
    lib.o(.text.TIM3_IRQHandler) refers to lib.o(.bss._ZN9EmbSysLib2Hw9Timer_Mcu10timerPtr_3E) for EmbSysLib::Hw::Timer_Mcu::timerPtr_3
    lib.o(.ARM.exidx.text.TIM3_IRQHandler) refers to lib.o(.text.TIM3_IRQHandler) for [Anonymous Symbol]
    lib.o(.text.TIM4_IRQHandler) refers to lib.o(.bss._ZN9EmbSysLib2Hw9Timer_Mcu10timerPtr_4E) for EmbSysLib::Hw::Timer_Mcu::timerPtr_4
    lib.o(.ARM.exidx.text.TIM4_IRQHandler) refers to lib.o(.text.TIM4_IRQHandler) for [Anonymous Symbol]
    lib.o(.text.TIM5_IRQHandler) refers to lib.o(.bss._ZN9EmbSysLib2Hw9Timer_Mcu10timerPtr_5E) for EmbSysLib::Hw::Timer_Mcu::timerPtr_5
    lib.o(.ARM.exidx.text.TIM5_IRQHandler) refers to lib.o(.text.TIM5_IRQHandler) for [Anonymous Symbol]
    lib.o(.text.TIM7_IRQHandler) refers to lib.o(.bss._ZN9EmbSysLib2Hw9Timer_Mcu10timerPtr_7E) for EmbSysLib::Hw::Timer_Mcu::timerPtr_7
    lib.o(.ARM.exidx.text.TIM7_IRQHandler) refers to lib.o(.text.TIM7_IRQHandler) for [Anonymous Symbol]
    lib.o(.text.TIM8_CC_IRQHandler) refers to lib.o(.bss._ZN9EmbSysLib2Hw9Timer_Mcu10timerPtr_8E) for EmbSysLib::Hw::Timer_Mcu::timerPtr_8
    lib.o(.ARM.exidx.text.TIM8_CC_IRQHandler) refers to lib.o(.text.TIM8_CC_IRQHandler) for [Anonymous Symbol]
    lib.o(.text._ZN9EmbSysLib2Hw8Uart_McuC2ENS1_8USART_IdEjhtt) refers to lib.o(.rodata._ZTVN9EmbSysLib2Hw4UartE) for vtable for EmbSysLib::Hw::Uart
    lib.o(.text._ZN9EmbSysLib2Hw8Uart_McuC2ENS1_8USART_IdEjhtt) refers to new.cpp.o(.text._Znaj) for operator new[](unsigned int)
    lib.o(.text._ZN9EmbSysLib2Hw8Uart_McuC2ENS1_8USART_IdEjhtt) refers to lib.o(.rodata._ZTVN9EmbSysLib2Hw8Uart_McuE) for vtable for EmbSysLib::Hw::Uart_Mcu
    lib.o(.text._ZN9EmbSysLib2Hw8Uart_McuC2ENS1_8USART_IdEjhtt) refers to lib.o(.bss._ZN9EmbSysLib2Hw8Uart_Mcu9uartPtr_1E) for EmbSysLib::Hw::Uart_Mcu::uartPtr_1
    lib.o(.text._ZN9EmbSysLib2Hw8Uart_McuC2ENS1_8USART_IdEjhtt) refers to lib.o(.text._ZN9EmbSysLib2Hw9PinConfig3setENS1_8FunctionEj) for EmbSysLib::Hw::PinConfig::set(EmbSysLib::Hw::PinConfig::Function, unsigned int)
    lib.o(.text._ZN9EmbSysLib2Hw8Uart_McuC2ENS1_8USART_IdEjhtt) refers to lib.o(.bss._ZN9EmbSysLib2Hw8Uart_Mcu9uartPtr_2E) for EmbSysLib::Hw::Uart_Mcu::uartPtr_2
    lib.o(.text._ZN9EmbSysLib2Hw8Uart_McuC2ENS1_8USART_IdEjhtt) refers to lib.o(.bss._ZN9EmbSysLib2Hw8Uart_Mcu9uartPtr_3E) for EmbSysLib::Hw::Uart_Mcu::uartPtr_3
    lib.o(.text._ZN9EmbSysLib2Hw8Uart_McuC2ENS1_8USART_IdEjhtt) refers to lib.o(.bss._ZN9EmbSysLib2Hw8Uart_Mcu9uartPtr_4E) for EmbSysLib::Hw::Uart_Mcu::uartPtr_4
    lib.o(.text._ZN9EmbSysLib2Hw8Uart_McuC2ENS1_8USART_IdEjhtt) refers to lib.o(.bss._ZN9EmbSysLib2Hw8Uart_Mcu9uartPtr_5E) for EmbSysLib::Hw::Uart_Mcu::uartPtr_5
    lib.o(.text._ZN9EmbSysLib2Hw8Uart_McuC2ENS1_8USART_IdEjhtt) refers to lib.o(.bss._ZN9EmbSysLib2Hw8Uart_Mcu9uartPtr_6E) for EmbSysLib::Hw::Uart_Mcu::uartPtr_6
    lib.o(.text._ZN9EmbSysLib2Hw8Uart_McuC2ENS1_8USART_IdEjhtt) refers to lib.o(.bss._ZN9EmbSysLib3Std6Report10globalCodeE) for EmbSysLib::Std::Report::globalCode
    lib.o(.text._ZN9EmbSysLib2Hw8Uart_McuC2ENS1_8USART_IdEjhtt) refers to lib.o(.bss._ZN9EmbSysLib3Std6Report12globalModuleE) for EmbSysLib::Std::Report::globalModule
    lib.o(.text._ZN9EmbSysLib2Hw8Uart_McuC2ENS1_8USART_IdEjhtt) refers to lib.o(.bss._ZN9EmbSysLib3Std6Report10msgHandlerE) for EmbSysLib::Std::Report::msgHandler
    lib.o(.text._ZN9EmbSysLib2Hw8Uart_McuC2ENS1_8USART_IdEjhtt) refers to lib.o(.text._ZL18__NVIC_SystemResetv) for __NVIC_SystemReset()
    lib.o(.ARM.exidx.text._ZN9EmbSysLib2Hw8Uart_McuC2ENS1_8USART_IdEjhtt) refers to lib.o(.text._ZN9EmbSysLib2Hw8Uart_McuC2ENS1_8USART_IdEjhtt) for [Anonymous Symbol]
    lib.o(.text._ZN9EmbSysLib2Hw4UartC2Ettt) refers to lib.o(.rodata._ZTVN9EmbSysLib2Hw4UartE) for vtable for EmbSysLib::Hw::Uart
    lib.o(.text._ZN9EmbSysLib2Hw4UartC2Ettt) refers to new.cpp.o(.text._Znaj) for operator new[](unsigned int)
    lib.o(.ARM.exidx.text._ZN9EmbSysLib2Hw4UartC2Ettt) refers to lib.o(.text._ZN9EmbSysLib2Hw4UartC2Ettt) for [Anonymous Symbol]
    lib.o(.text._ZN9EmbSysLib2Hw8Uart_Mcu11setBaudrateEj) refers to dflt_clz.o(x$fpl$dfltu) for __aeabi_ui2d
    lib.o(.text._ZN9EmbSysLib2Hw8Uart_Mcu11setBaudrateEj) refers to ddiv.o(x$fpl$ddiv) for __aeabi_ddiv
    lib.o(.text._ZN9EmbSysLib2Hw8Uart_Mcu11setBaudrateEj) refers to dfix.o(x$fpl$dfix) for __aeabi_d2iz
    lib.o(.ARM.exidx.text._ZN9EmbSysLib2Hw8Uart_Mcu11setBaudrateEj) refers to lib.o(.text._ZN9EmbSysLib2Hw8Uart_Mcu11setBaudrateEj) for [Anonymous Symbol]
    lib.o(.ARM.exidx.text._ZN9EmbSysLib2Hw8Uart_Mcu3isrEv) refers to lib.o(.text._ZN9EmbSysLib2Hw8Uart_Mcu3isrEv) for [Anonymous Symbol]
    lib.o(.text.USART1_IRQHandler) refers to lib.o(.bss._ZN9EmbSysLib2Hw8Uart_Mcu9uartPtr_1E) for EmbSysLib::Hw::Uart_Mcu::uartPtr_1
    lib.o(.ARM.exidx.text.USART1_IRQHandler) refers to lib.o(.text.USART1_IRQHandler) for [Anonymous Symbol]
    lib.o(.text.USART2_IRQHandler) refers to lib.o(.bss._ZN9EmbSysLib2Hw8Uart_Mcu9uartPtr_2E) for EmbSysLib::Hw::Uart_Mcu::uartPtr_2
    lib.o(.ARM.exidx.text.USART2_IRQHandler) refers to lib.o(.text.USART2_IRQHandler) for [Anonymous Symbol]
    lib.o(.text.USART3_IRQHandler) refers to lib.o(.bss._ZN9EmbSysLib2Hw8Uart_Mcu9uartPtr_3E) for EmbSysLib::Hw::Uart_Mcu::uartPtr_3
    lib.o(.ARM.exidx.text.USART3_IRQHandler) refers to lib.o(.text.USART3_IRQHandler) for [Anonymous Symbol]
    lib.o(.text.UART4_IRQHandler) refers to lib.o(.bss._ZN9EmbSysLib2Hw8Uart_Mcu9uartPtr_4E) for EmbSysLib::Hw::Uart_Mcu::uartPtr_4
    lib.o(.ARM.exidx.text.UART4_IRQHandler) refers to lib.o(.text.UART4_IRQHandler) for [Anonymous Symbol]
    lib.o(.text.UART5_IRQHandler) refers to lib.o(.bss._ZN9EmbSysLib2Hw8Uart_Mcu9uartPtr_5E) for EmbSysLib::Hw::Uart_Mcu::uartPtr_5
    lib.o(.ARM.exidx.text.UART5_IRQHandler) refers to lib.o(.text.UART5_IRQHandler) for [Anonymous Symbol]
    lib.o(.text.USART6_IRQHandler) refers to lib.o(.bss._ZN9EmbSysLib2Hw8Uart_Mcu9uartPtr_6E) for EmbSysLib::Hw::Uart_Mcu::uartPtr_6
    lib.o(.ARM.exidx.text.USART6_IRQHandler) refers to lib.o(.text.USART6_IRQHandler) for [Anonymous Symbol]
    lib.o(.ARM.exidx.text._ZN9EmbSysLib2Hw13USBdevice_Mcu10EndpointINC2Ev) refers to lib.o(.text._ZN9EmbSysLib2Hw13USBdevice_Mcu10EndpointINC2Ev) for [Anonymous Symbol]
    lib.o(.ARM.exidx.text._ZN9EmbSysLib2Hw13USBdevice_Mcu10EndpointIN4initEh) refers to lib.o(.text._ZN9EmbSysLib2Hw13USBdevice_Mcu10EndpointIN4initEh) for [Anonymous Symbol]
    lib.o(.ARM.exidx.text._ZN9EmbSysLib2Hw13USBdevice_Mcu10EndpointIN6configEth) refers to lib.o(.text._ZN9EmbSysLib2Hw13USBdevice_Mcu10EndpointIN6configEth) for [Anonymous Symbol]
    lib.o(.ARM.exidx.text._ZN9EmbSysLib2Hw13USBdevice_Mcu10EndpointIN5flushEv) refers to lib.o(.text._ZN9EmbSysLib2Hw13USBdevice_Mcu10EndpointIN5flushEv) for [Anonymous Symbol]
    lib.o(.ARM.exidx.text._ZN9EmbSysLib2Hw13USBdevice_Mcu10EndpointIN5resetEv) refers to lib.o(.text._ZN9EmbSysLib2Hw13USBdevice_Mcu10EndpointIN5resetEv) for [Anonymous Symbol]
    lib.o(.ARM.exidx.text._ZN9EmbSysLib2Hw13USBdevice_Mcu10EndpointIN5startEv) refers to lib.o(.text._ZN9EmbSysLib2Hw13USBdevice_Mcu10EndpointIN5startEv) for [Anonymous Symbol]
    lib.o(.ARM.exidx.text._ZN9EmbSysLib2Hw13USBdevice_Mcu10EndpointIN8setStallEv) refers to lib.o(.text._ZN9EmbSysLib2Hw13USBdevice_Mcu10EndpointIN8setStallEv) for [Anonymous Symbol]
    lib.o(.ARM.exidx.text._ZN9EmbSysLib2Hw13USBdevice_Mcu10EndpointIN8clrStallEv) refers to lib.o(.text._ZN9EmbSysLib2Hw13USBdevice_Mcu10EndpointIN8clrStallEv) for [Anonymous Symbol]
    lib.o(.ARM.exidx.text._ZN9EmbSysLib2Hw13USBdevice_Mcu10EndpointIN6setNAKEv) refers to lib.o(.text._ZN9EmbSysLib2Hw13USBdevice_Mcu10EndpointIN6setNAKEv) for [Anonymous Symbol]
    lib.o(.ARM.exidx.text._ZN9EmbSysLib2Hw13USBdevice_Mcu10EndpointIN6clrNAKEv) refers to lib.o(.text._ZN9EmbSysLib2Hw13USBdevice_Mcu10EndpointIN6clrNAKEv) for [Anonymous Symbol]
    lib.o(.ARM.exidx.text._ZN9EmbSysLib2Hw13USBdevice_Mcu10EndpointIN5writeEPht) refers to lib.o(.text._ZN9EmbSysLib2Hw13USBdevice_Mcu10EndpointIN5writeEPht) for [Anonymous Symbol]
    lib.o(.ARM.exidx.text._ZN9EmbSysLib2Hw13USBdevice_Mcu10EndpointIN11writeToFifoEv) refers to lib.o(.text._ZN9EmbSysLib2Hw13USBdevice_Mcu10EndpointIN11writeToFifoEv) for [Anonymous Symbol]
    lib.o(.ARM.exidx.text._ZN9EmbSysLib2Hw13USBdevice_Mcu10EndpointIN8transmitEb) refers to lib.o(.text._ZN9EmbSysLib2Hw13USBdevice_Mcu10EndpointIN8transmitEb) for [Anonymous Symbol]
    lib.o(.ARM.exidx.text._ZN9EmbSysLib2Hw13USBdevice_Mcu10EndpointIN11transmitZLPEv) refers to lib.o(.text._ZN9EmbSysLib2Hw13USBdevice_Mcu10EndpointIN11transmitZLPEv) for [Anonymous Symbol]
    lib.o(.ARM.exidx.text._ZN9EmbSysLib2Hw13USBdevice_Mcu10EndpointIN12getInterruptEv) refers to lib.o(.text._ZN9EmbSysLib2Hw13USBdevice_Mcu10EndpointIN12getInterruptEv) for [Anonymous Symbol]
    lib.o(.ARM.exidx.text._ZN9EmbSysLib2Hw13USBdevice_Mcu10EndpointIN12clrInterruptEj) refers to lib.o(.text._ZN9EmbSysLib2Hw13USBdevice_Mcu10EndpointIN12clrInterruptEj) for [Anonymous Symbol]
    lib.o(.ARM.exidx.text._ZN9EmbSysLib2Hw13USBdevice_Mcu11EndpointOUTC2Ev) refers to lib.o(.text._ZN9EmbSysLib2Hw13USBdevice_Mcu11EndpointOUTC2Ev) for [Anonymous Symbol]
    lib.o(.ARM.exidx.text._ZN9EmbSysLib2Hw13USBdevice_Mcu11EndpointOUT4initEh) refers to lib.o(.text._ZN9EmbSysLib2Hw13USBdevice_Mcu11EndpointOUT4initEh) for [Anonymous Symbol]
    lib.o(.ARM.exidx.text._ZN9EmbSysLib2Hw13USBdevice_Mcu11EndpointOUT6configEth) refers to lib.o(.text._ZN9EmbSysLib2Hw13USBdevice_Mcu11EndpointOUT6configEth) for [Anonymous Symbol]
    lib.o(.ARM.exidx.text._ZN9EmbSysLib2Hw13USBdevice_Mcu11EndpointOUT7receiveEv) refers to lib.o(.text._ZN9EmbSysLib2Hw13USBdevice_Mcu11EndpointOUT7receiveEv) for [Anonymous Symbol]
    lib.o(.ARM.exidx.text._ZN9EmbSysLib2Hw13USBdevice_Mcu11EndpointOUT5flushEv) refers to lib.o(.text._ZN9EmbSysLib2Hw13USBdevice_Mcu11EndpointOUT5flushEv) for [Anonymous Symbol]
    lib.o(.ARM.exidx.text._ZN9EmbSysLib2Hw13USBdevice_Mcu11EndpointOUT5resetEv) refers to lib.o(.text._ZN9EmbSysLib2Hw13USBdevice_Mcu11EndpointOUT5resetEv) for [Anonymous Symbol]
    lib.o(.ARM.exidx.text._ZN9EmbSysLib2Hw13USBdevice_Mcu11EndpointOUT5startEv) refers to lib.o(.text._ZN9EmbSysLib2Hw13USBdevice_Mcu11EndpointOUT5startEv) for [Anonymous Symbol]
    lib.o(.ARM.exidx.text._ZN9EmbSysLib2Hw13USBdevice_Mcu11EndpointOUT8setStallEv) refers to lib.o(.text._ZN9EmbSysLib2Hw13USBdevice_Mcu11EndpointOUT8setStallEv) for [Anonymous Symbol]
    lib.o(.ARM.exidx.text._ZN9EmbSysLib2Hw13USBdevice_Mcu11EndpointOUT8clrStallEv) refers to lib.o(.text._ZN9EmbSysLib2Hw13USBdevice_Mcu11EndpointOUT8clrStallEv) for [Anonymous Symbol]
    lib.o(.ARM.exidx.text._ZN9EmbSysLib2Hw13USBdevice_Mcu11EndpointOUT6setNAKEv) refers to lib.o(.text._ZN9EmbSysLib2Hw13USBdevice_Mcu11EndpointOUT6setNAKEv) for [Anonymous Symbol]
    lib.o(.ARM.exidx.text._ZN9EmbSysLib2Hw13USBdevice_Mcu11EndpointOUT6clrNAKEv) refers to lib.o(.text._ZN9EmbSysLib2Hw13USBdevice_Mcu11EndpointOUT6clrNAKEv) for [Anonymous Symbol]
    lib.o(.ARM.exidx.text._ZN9EmbSysLib2Hw13USBdevice_Mcu11EndpointOUT4readEPht) refers to lib.o(.text._ZN9EmbSysLib2Hw13USBdevice_Mcu11EndpointOUT4readEPht) for [Anonymous Symbol]
    lib.o(.ARM.exidx.text._ZN9EmbSysLib2Hw13USBdevice_Mcu11EndpointOUT12readFromFifoEt) refers to lib.o(.text._ZN9EmbSysLib2Hw13USBdevice_Mcu11EndpointOUT12readFromFifoEt) for [Anonymous Symbol]
    lib.o(.ARM.exidx.text._ZN9EmbSysLib2Hw13USBdevice_Mcu11EndpointOUT10receiveZLPEv) refers to lib.o(.text._ZN9EmbSysLib2Hw13USBdevice_Mcu11EndpointOUT10receiveZLPEv) for [Anonymous Symbol]
    lib.o(.ARM.exidx.text._ZN9EmbSysLib2Hw13USBdevice_Mcu11EndpointOUT12getInterruptEv) refers to lib.o(.text._ZN9EmbSysLib2Hw13USBdevice_Mcu11EndpointOUT12getInterruptEv) for [Anonymous Symbol]
    lib.o(.ARM.exidx.text._ZN9EmbSysLib2Hw13USBdevice_Mcu11EndpointOUT12clrInterruptEj) refers to lib.o(.text._ZN9EmbSysLib2Hw13USBdevice_Mcu11EndpointOUT12clrInterruptEj) for [Anonymous Symbol]
    lib.o(.text._ZN9EmbSysLib2Hw13USBdevice_McuC2ERNS0_19USBdeviceDescriptorE) refers to lib.o(.rodata._ZTVN9EmbSysLib2Hw9USBdeviceE) for vtable for EmbSysLib::Hw::USBdevice
    lib.o(.text._ZN9EmbSysLib2Hw13USBdevice_McuC2ERNS0_19USBdeviceDescriptorE) refers to lib.o(.rodata._ZTVN9EmbSysLib2Hw16USBdeviceControlE) for vtable for EmbSysLib::Hw::USBdeviceControl
    lib.o(.text._ZN9EmbSysLib2Hw13USBdevice_McuC2ERNS0_19USBdeviceDescriptorE) refers to lib.o(.rodata._ZTVN9EmbSysLib2Hw13USBdevice_McuE) for vtable for EmbSysLib::Hw::USBdevice_Mcu
    lib.o(.text._ZN9EmbSysLib2Hw13USBdevice_McuC2ERNS0_19USBdeviceDescriptorE) refers to lib.o(.bss._ZN9EmbSysLib2Hw13USBdevice_Mcu6usbPtrE) for EmbSysLib::Hw::USBdevice_Mcu::usbPtr
    lib.o(.ARM.exidx.text._ZN9EmbSysLib2Hw13USBdevice_McuC2ERNS0_19USBdeviceDescriptorE) refers to lib.o(.text._ZN9EmbSysLib2Hw13USBdevice_McuC2ERNS0_19USBdeviceDescriptorE) for [Anonymous Symbol]
    lib.o(.text._ZN9EmbSysLib2Hw9USBdeviceC2EtRNS0_19USBdeviceDescriptorE) refers to lib.o(.rodata._ZTVN9EmbSysLib2Hw9USBdeviceE) for vtable for EmbSysLib::Hw::USBdevice
    lib.o(.text._ZN9EmbSysLib2Hw9USBdeviceC2EtRNS0_19USBdeviceDescriptorE) refers to lib.o(.rodata._ZTVN9EmbSysLib2Hw16USBdeviceControlE) for vtable for EmbSysLib::Hw::USBdeviceControl
    lib.o(.ARM.exidx.text._ZN9EmbSysLib2Hw9USBdeviceC2EtRNS0_19USBdeviceDescriptorE) refers to lib.o(.text._ZN9EmbSysLib2Hw9USBdeviceC2EtRNS0_19USBdeviceDescriptorE) for [Anonymous Symbol]
    lib.o(.text._ZN9EmbSysLib2Hw13USBdevice_Mcu5startEv) refers to lib.o(.text._ZN9EmbSysLib2Hw9PinConfig3setENS1_8FunctionEj) for EmbSysLib::Hw::PinConfig::set(EmbSysLib::Hw::PinConfig::Function, unsigned int)
    lib.o(.ARM.exidx.text._ZN9EmbSysLib2Hw13USBdevice_Mcu5startEv) refers to lib.o(.text._ZN9EmbSysLib2Hw13USBdevice_Mcu5startEv) for [Anonymous Symbol]
    lib.o(.ARM.exidx.text._ZN9EmbSysLib2Hw13USBdevice_Mcu9CoreResetEv) refers to lib.o(.text._ZN9EmbSysLib2Hw13USBdevice_Mcu9CoreResetEv) for [Anonymous Symbol]
    lib.o(.ARM.exidx.text._ZN9EmbSysLib2Hw13USBdevice_Mcu5resetEv) refers to lib.o(.text._ZN9EmbSysLib2Hw13USBdevice_Mcu5resetEv) for [Anonymous Symbol]
    lib.o(.ARM.exidx.text._ZN9EmbSysLib2Hw13USBdevice_Mcu9configureEh) refers to lib.o(.text._ZN9EmbSysLib2Hw13USBdevice_Mcu9configureEh) for [Anonymous Symbol]
    lib.o(.ARM.exidx.text._ZN9EmbSysLib2Hw13USBdevice_Mcu10setAddressEh) refers to lib.o(.text._ZN9EmbSysLib2Hw13USBdevice_Mcu10setAddressEh) for [Anonymous Symbol]
    lib.o(.text._ZN9EmbSysLib2Hw13USBdevice_Mcu8configEPEhth) refers to lib.o(.text._ZN9EmbSysLib2Hw13USBdevice_Mcu11EndpointOUT6configEth) for EmbSysLib::Hw::USBdevice_Mcu::EndpointOUT::config(unsigned short, unsigned char)
    lib.o(.ARM.exidx.text._ZN9EmbSysLib2Hw13USBdevice_Mcu8configEPEhth) refers to lib.o(.text._ZN9EmbSysLib2Hw13USBdevice_Mcu8configEPEhth) for [Anonymous Symbol]
    lib.o(.ARM.exidx.text._ZN9EmbSysLib2Hw13USBdevice_Mcu10setStallEPEh) refers to lib.o(.text._ZN9EmbSysLib2Hw13USBdevice_Mcu10setStallEPEh) for [Anonymous Symbol]
    lib.o(.ARM.exidx.text._ZN9EmbSysLib2Hw13USBdevice_Mcu10clrStallEPEh) refers to lib.o(.text._ZN9EmbSysLib2Hw13USBdevice_Mcu10clrStallEPEh) for [Anonymous Symbol]
    lib.o(.ARM.exidx.text._ZN9EmbSysLib2Hw13USBdevice_Mcu9setNAK_EPEh) refers to lib.o(.text._ZN9EmbSysLib2Hw13USBdevice_Mcu9setNAK_EPEh) for [Anonymous Symbol]
    lib.o(.ARM.exidx.text._ZN9EmbSysLib2Hw13USBdevice_Mcu9clrNAK_EPEh) refers to lib.o(.text._ZN9EmbSysLib2Hw13USBdevice_Mcu9clrNAK_EPEh) for [Anonymous Symbol]
    lib.o(.ARM.exidx.text._ZN9EmbSysLib2Hw13USBdevice_Mcu6readEPEhPht) refers to lib.o(.text._ZN9EmbSysLib2Hw13USBdevice_Mcu6readEPEhPht) for [Anonymous Symbol]
    lib.o(.ARM.exidx.text._ZN9EmbSysLib2Hw13USBdevice_Mcu7writeEPEhPht) refers to lib.o(.text._ZN9EmbSysLib2Hw13USBdevice_Mcu7writeEPEhPht) for [Anonymous Symbol]
    lib.o(.ARM.exidx.text._ZN9EmbSysLib2Hw13USBdevice_Mcu14getInInterruptEv) refers to lib.o(.text._ZN9EmbSysLib2Hw13USBdevice_Mcu14getInInterruptEv) for [Anonymous Symbol]
    lib.o(.ARM.exidx.text._ZN9EmbSysLib2Hw13USBdevice_Mcu15getOutInterruptEv) refers to lib.o(.text._ZN9EmbSysLib2Hw13USBdevice_Mcu15getOutInterruptEv) for [Anonymous Symbol]
    lib.o(.ARM.exidx.text._ZN9EmbSysLib2Hw13USBdevice_Mcu18isInterruptPendingEj) refers to lib.o(.text._ZN9EmbSysLib2Hw13USBdevice_Mcu18isInterruptPendingEj) for [Anonymous Symbol]
    lib.o(.ARM.exidx.text._ZN9EmbSysLib2Hw13USBdevice_Mcu12clrInterruptEj) refers to lib.o(.text._ZN9EmbSysLib2Hw13USBdevice_Mcu12clrInterruptEj) for [Anonymous Symbol]
    lib.o(.text.OTG_FS_IRQHandler) refers to lib.o(.bss._ZN9EmbSysLib2Hw13USBdevice_Mcu6usbPtrE) for EmbSysLib::Hw::USBdevice_Mcu::usbPtr
    lib.o(.text.OTG_FS_IRQHandler) refers to lib.o(.text._ZN9EmbSysLib2Hw13USBdevice_Mcu3isrEv) for EmbSysLib::Hw::USBdevice_Mcu::isr()
    lib.o(.ARM.exidx.text.OTG_FS_IRQHandler) refers to lib.o(.text.OTG_FS_IRQHandler) for [Anonymous Symbol]
    lib.o(.text._ZN9EmbSysLib3Std5ClockC2Ev) refers to lib.o(.rodata._ZTVN9EmbSysLib3Std5ClockE) for vtable for EmbSysLib::Std::Clock
    lib.o(.ARM.exidx.text._ZN9EmbSysLib3Std5ClockC2Ev) refers to lib.o(.text._ZN9EmbSysLib3Std5ClockC2Ev) for [Anonymous Symbol]
    lib.o(.text._ZN9EmbSysLib3Std5Clock5startEjt) refers to lludivv7m.o(.text) for __aeabi_uldivmod
    lib.o(.ARM.exidx.text._ZN9EmbSysLib3Std5Clock5startEjt) refers to lib.o(.text._ZN9EmbSysLib3Std5Clock5startEjt) for [Anonymous Symbol]
    lib.o(.text._ZN9EmbSysLib3Std5Clock6toTicsEjt) refers to lludivv7m.o(.text) for __aeabi_uldivmod
    lib.o(.ARM.exidx.text._ZN9EmbSysLib3Std5Clock6toTicsEjt) refers to lib.o(.text._ZN9EmbSysLib3Std5Clock6toTicsEjt) for [Anonymous Symbol]
    lib.o(.ARM.exidx.text._ZN9EmbSysLib3Std5Clock5startEv) refers to lib.o(.text._ZN9EmbSysLib3Std5Clock5startEv) for [Anonymous Symbol]
    lib.o(.ARM.exidx.text._ZN9EmbSysLib3Std5Clock7timeoutEv) refers to lib.o(.text._ZN9EmbSysLib3Std5Clock7timeoutEv) for [Anonymous Symbol]
    lib.o(.ARM.exidx.text._ZN9EmbSysLib3Std5Clock4stopEv) refers to lib.o(.text._ZN9EmbSysLib3Std5Clock4stopEv) for [Anonymous Symbol]
    lib.o(.ARM.exidx.text._ZN9EmbSysLib3Std5Clock3getEv) refers to lib.o(.text._ZN9EmbSysLib3Std5Clock3getEv) for [Anonymous Symbol]
    lib.o(.text._ZN9EmbSysLib3Std3CrcC2ENS1_4MODEEtt) refers to new.cpp.o(.text._Znaj) for operator new[](unsigned int)
    lib.o(.ARM.exidx.text._ZN9EmbSysLib3Std3CrcC2ENS1_4MODEEtt) refers to lib.o(.text._ZN9EmbSysLib3Std3CrcC2ENS1_4MODEEtt) for [Anonymous Symbol]
    lib.o(.text._ZN9EmbSysLib3Std3CrcD2Ev) refers to new.cpp.o(.text._ZdlPv) for operator delete(void*)
    lib.o(.ARM.exidx.text._ZN9EmbSysLib3Std3CrcD2Ev) refers to lib.o(.text._ZN9EmbSysLib3Std3CrcD2Ev) for [Anonymous Symbol]
    lib.o(.ARM.exidx.text._ZN9EmbSysLib3Std3CrcclEPKhj) refers to lib.o(.text._ZN9EmbSysLib3Std3CrcclEPKhj) for [Anonymous Symbol]
    lib.o(.ARM.exidx.text._ZN9EmbSysLib3Std3CrcclEh) refers to lib.o(.text._ZN9EmbSysLib3Std3CrcclEh) for [Anonymous Symbol]
    lib.o(.ARM.exidx.text._ZN9EmbSysLib3Std6ReportC2Et) refers to lib.o(.text._ZN9EmbSysLib3Std6ReportC2Et) for [Anonymous Symbol]
    lib.o(.text._ZN9EmbSysLib3Std6Report5storeEt) refers to lib.o(.bss._ZN9EmbSysLib3Std6Report10globalCodeE) for EmbSysLib::Std::Report::globalCode
    lib.o(.text._ZN9EmbSysLib3Std6Report5storeEt) refers to lib.o(.bss._ZN9EmbSysLib3Std6Report12globalModuleE) for EmbSysLib::Std::Report::globalModule
    lib.o(.ARM.exidx.text._ZN9EmbSysLib3Std6Report5storeEt) refers to lib.o(.text._ZN9EmbSysLib3Std6Report5storeEt) for [Anonymous Symbol]
    lib.o(.ARM.exidx.text._ZN9EmbSysLib3Std6Report7getCodeEv) refers to lib.o(.text._ZN9EmbSysLib3Std6Report7getCodeEv) for [Anonymous Symbol]
    lib.o(.text._ZN9EmbSysLib3Std6Report12getCodeEventEv) refers to lib.o(.bss._ZN9EmbSysLib2Hw6System12cntInterruptE) for EmbSysLib::Hw::System::cntInterrupt
    lib.o(.ARM.exidx.text._ZN9EmbSysLib3Std6Report12getCodeEventEv) refers to lib.o(.text._ZN9EmbSysLib3Std6Report12getCodeEventEv) for [Anonymous Symbol]
    lib.o(.ARM.exidx.text._ZN9EmbSysLib3Std6Report11getModuleIdEv) refers to lib.o(.text._ZN9EmbSysLib3Std6Report11getModuleIdEv) for [Anonymous Symbol]
    lib.o(.text._ZN9EmbSysLib3Std6Report7HandlerC2Ev) refers to lib.o(.rodata._ZTVN9EmbSysLib3Std6Report7HandlerE) for vtable for EmbSysLib::Std::Report::Handler
    lib.o(.text._ZN9EmbSysLib3Std6Report7HandlerC2Ev) refers to lib.o(.bss._ZN9EmbSysLib3Std6Report10msgHandlerE) for EmbSysLib::Std::Report::msgHandler
    lib.o(.ARM.exidx.text._ZN9EmbSysLib3Std6Report7HandlerC2Ev) refers to lib.o(.text._ZN9EmbSysLib3Std6Report7HandlerC2Ev) for [Anonymous Symbol]
    lib.o(.text._ZN9EmbSysLib3Std6Report7HandlerD2Ev) refers to lib.o(.bss._ZN9EmbSysLib3Std6Report10msgHandlerE) for EmbSysLib::Std::Report::msgHandler
    lib.o(.text._ZN9EmbSysLib3Std6Report7HandlerD2Ev) refers to lib.o(.rodata._ZTVN9EmbSysLib3Std6Report7HandlerE) for vtable for EmbSysLib::Std::Report::Handler
    lib.o(.ARM.exidx.text._ZN9EmbSysLib3Std6Report7HandlerD2Ev) refers to lib.o(.text._ZN9EmbSysLib3Std6Report7HandlerD2Ev) for [Anonymous Symbol]
    lib.o(.text._ZN9EmbSysLib2Hw3Adc6enableEhh) refers to lib.o(.bss._ZN9EmbSysLib3Std6Report10globalCodeE) for EmbSysLib::Std::Report::globalCode
    lib.o(.text._ZN9EmbSysLib2Hw3Adc6enableEhh) refers to lib.o(.bss._ZN9EmbSysLib3Std6Report12globalModuleE) for EmbSysLib::Std::Report::globalModule
    lib.o(.text._ZN9EmbSysLib2Hw3Adc6enableEhh) refers to lib.o(.bss._ZN9EmbSysLib3Std6Report10msgHandlerE) for EmbSysLib::Std::Report::msgHandler
    lib.o(.text._ZN9EmbSysLib2Hw3Adc6enableEhh) refers to lib.o(.text._ZL18__NVIC_SystemResetv) for __NVIC_SystemReset()
    lib.o(.ARM.exidx.text._ZN9EmbSysLib2Hw3Adc6enableEhh) refers to lib.o(.text._ZN9EmbSysLib2Hw3Adc6enableEhh) for [Anonymous Symbol]
    lib.o(.ARM.exidx.text._ZN9EmbSysLib2Hw4FontC2EPKNS1_6HeaderEPKh) refers to lib.o(.text._ZN9EmbSysLib2Hw4FontC2EPKNS1_6HeaderEPKh) for [Anonymous Symbol]
    lib.o(.ARM.exidx.text._ZN9EmbSysLib2Hw4FontC2EPKh) refers to lib.o(.text._ZN9EmbSysLib2Hw4FontC2EPKh) for [Anonymous Symbol]
    lib.o(.ARM.exidx.text._ZNK9EmbSysLib2Hw4Font12getCharWidthEv) refers to lib.o(.text._ZNK9EmbSysLib2Hw4Font12getCharWidthEv) for [Anonymous Symbol]
    lib.o(.ARM.exidx.text._ZNK9EmbSysLib2Hw4Font13getCharHeightEv) refers to lib.o(.text._ZNK9EmbSysLib2Hw4Font13getCharHeightEv) for [Anonymous Symbol]
    lib.o(.ARM.exidx.text._ZN9EmbSysLib2Hw4Font7setCharEh) refers to lib.o(.text._ZN9EmbSysLib2Hw4Font7setCharEh) for [Anonymous Symbol]
    lib.o(.ARM.exidx.text._ZN9EmbSysLib2Hw4Font8getPixelEhh) refers to lib.o(.text._ZN9EmbSysLib2Hw4Font8getPixelEhh) for [Anonymous Symbol]
    lib.o(.ARM.exidx.text._ZN9EmbSysLib2Hw6BitmapC2EPKNS1_6HeaderEPKt) refers to lib.o(.text._ZN9EmbSysLib2Hw6BitmapC2EPKNS1_6HeaderEPKt) for [Anonymous Symbol]
    lib.o(.ARM.exidx.text._ZN9EmbSysLib2Hw6BitmapC2EPKh) refers to lib.o(.text._ZN9EmbSysLib2Hw6BitmapC2EPKh) for [Anonymous Symbol]
    lib.o(.ARM.exidx.text._ZNK9EmbSysLib2Hw6Bitmap8getWidthEv) refers to lib.o(.text._ZNK9EmbSysLib2Hw6Bitmap8getWidthEv) for [Anonymous Symbol]
    lib.o(.ARM.exidx.text._ZNK9EmbSysLib2Hw6Bitmap9getHeightEv) refers to lib.o(.text._ZNK9EmbSysLib2Hw6Bitmap9getHeightEv) for [Anonymous Symbol]
    lib.o(.ARM.exidx.text._ZN9EmbSysLib2Hw6Bitmap8getPixelEtt) refers to lib.o(.text._ZN9EmbSysLib2Hw6Bitmap8getPixelEtt) for [Anonymous Symbol]
    lib.o(.text._ZN9EmbSysLib2Hw11DisplayCharC2Ethh) refers to lib.o(.rodata._ZTVN9EmbSysLib2Hw11DisplayCharE) for vtable for EmbSysLib::Hw::DisplayChar
    lib.o(.ARM.exidx.text._ZN9EmbSysLib2Hw11DisplayCharC2Ethh) refers to lib.o(.text._ZN9EmbSysLib2Hw11DisplayCharC2Ethh) for [Anonymous Symbol]
    lib.o(.ARM.exidx.text._ZN9EmbSysLib2Hw11DisplayChar9putStringEPKc) refers to lib.o(.text._ZN9EmbSysLib2Hw11DisplayChar9putStringEPKc) for [Anonymous Symbol]
    lib.o(.text._ZN9EmbSysLib2Hw14DisplayGraphicC2EtttNS0_4FontEh) refers to lib.o(.rodata._ZTVN9EmbSysLib2Hw14DisplayGraphicE) for vtable for EmbSysLib::Hw::DisplayGraphic
    lib.o(.ARM.exidx.text._ZN9EmbSysLib2Hw14DisplayGraphicC2EtttNS0_4FontEh) refers to lib.o(.text._ZN9EmbSysLib2Hw14DisplayGraphicC2EtttNS0_4FontEh) for [Anonymous Symbol]
    lib.o(.ARM.exidx.text._ZN9EmbSysLib2Hw14DisplayGraphic7setFontENS0_4FontEh) refers to lib.o(.text._ZN9EmbSysLib2Hw14DisplayGraphic7setFontENS0_4FontEh) for [Anonymous Symbol]
    lib.o(.ARM.exidx.text._ZN9EmbSysLib2Hw14DisplayGraphic7setZoomEh) refers to lib.o(.text._ZN9EmbSysLib2Hw14DisplayGraphic7setZoomEh) for [Anonymous Symbol]
    lib.o(.ARM.exidx.text._ZN9EmbSysLib2Hw14DisplayGraphic12setBackColorEt) refers to lib.o(.text._ZN9EmbSysLib2Hw14DisplayGraphic12setBackColorEt) for [Anonymous Symbol]
    lib.o(.ARM.exidx.text._ZN9EmbSysLib2Hw14DisplayGraphic13setPaintColorEt) refers to lib.o(.text._ZN9EmbSysLib2Hw14DisplayGraphic13setPaintColorEt) for [Anonymous Symbol]
    lib.o(.ARM.exidx.text._ZN9EmbSysLib2Hw14DisplayGraphic12setTextColorEt) refers to lib.o(.text._ZN9EmbSysLib2Hw14DisplayGraphic12setTextColorEt) for [Anonymous Symbol]
    lib.o(.ARM.exidx.text._ZN9EmbSysLib2Hw14DisplayGraphic12gotoPixelPosEtt) refers to lib.o(.text._ZN9EmbSysLib2Hw14DisplayGraphic12gotoPixelPosEtt) for [Anonymous Symbol]
    lib.o(.ARM.exidx.text._ZN9EmbSysLib2Hw14DisplayGraphic11gotoTextPosEhh) refers to lib.o(.text._ZN9EmbSysLib2Hw14DisplayGraphic11gotoTextPosEhh) for [Anonymous Symbol]
    lib.o(.ARM.exidx.text._ZN9EmbSysLib2Hw14DisplayGraphic7putCharEc) refers to lib.o(.text._ZN9EmbSysLib2Hw14DisplayGraphic7putCharEc) for [Anonymous Symbol]
    lib.o(.ARM.exidx.text._ZN9EmbSysLib2Hw14DisplayGraphic8putPixelEtt) refers to lib.o(.text._ZN9EmbSysLib2Hw14DisplayGraphic8putPixelEtt) for [Anonymous Symbol]
    lib.o(.ARM.exidx.text._ZN9EmbSysLib2Hw14DisplayGraphic12putRectangleEtttt) refers to lib.o(.text._ZN9EmbSysLib2Hw14DisplayGraphic12putRectangleEtttt) for [Anonymous Symbol]
    lib.o(.ARM.exidx.text._ZN9EmbSysLib2Hw14DisplayGraphic9putBitmapEttNS0_6BitmapE) refers to lib.o(.text._ZN9EmbSysLib2Hw14DisplayGraphic9putBitmapEttNS0_6BitmapE) for [Anonymous Symbol]
    lib.o(.text._ZN9EmbSysLib2Hw8Ethernet7processEv) refers to lib.o(.text._ZN9EmbSysLib2Hw9NetEthARP7processEv) for EmbSysLib::Hw::NetEthARP::process()
    lib.o(.ARM.exidx.text._ZN9EmbSysLib2Hw8Ethernet7processEv) refers to lib.o(.text._ZN9EmbSysLib2Hw8Ethernet7processEv) for [Anonymous Symbol]
    lib.o(.ARM.exidx.text._ZN9EmbSysLib2Hw9NetEthARP7processEv) refers to lib.o(.text._ZN9EmbSysLib2Hw9NetEthARP7processEv) for [Anonymous Symbol]
    lib.o(.ARM.exidx.text._ZN9EmbSysLib2Hw8Ethernet6setARPEPNS0_9NetEthARPE) refers to lib.o(.text._ZN9EmbSysLib2Hw8Ethernet6setARPEPNS0_9NetEthARPE) for [Anonymous Symbol]
    lib.o(.ARM.exidx.text._ZN9EmbSysLib2Hw8Ethernet5setIPEPNS0_8NetEthIPE) refers to lib.o(.text._ZN9EmbSysLib2Hw8Ethernet5setIPEPNS0_8NetEthIPE) for [Anonymous Symbol]
    lib.o(.text._ZN9EmbSysLib2Hw8Ethernet5getIPEv) refers to lib.o(.bss._ZZN9EmbSysLib2Hw8Ethernet5getIPEvE3ret) for EmbSysLib::Hw::Ethernet::getIP()::ret
    lib.o(.ARM.exidx.text._ZN9EmbSysLib2Hw8Ethernet5getIPEv) refers to lib.o(.text._ZN9EmbSysLib2Hw8Ethernet5getIPEv) for [Anonymous Symbol]
    lib.o(.ARM.exidx.text._ZN9EmbSysLib2Hw8Ethernet10getAddrPhyEv) refers to lib.o(.text._ZN9EmbSysLib2Hw8Ethernet10getAddrPhyEv) for [Anonymous Symbol]
    lib.o(.ARM.exidx.text._ZN9EmbSysLib2Hw8Ethernet7isNewIPEv) refers to lib.o(.text._ZN9EmbSysLib2Hw8Ethernet7isNewIPEv) for [Anonymous Symbol]
    lib.o(.ARM.exidx.text._ZN9EmbSysLib2Hw8NetEthIP7isNewIPEv) refers to lib.o(.text._ZN9EmbSysLib2Hw8NetEthIP7isNewIPEv) for [Anonymous Symbol]
    lib.o(.ARM.exidx.text._ZN9EmbSysLib2Hw9I2Cmaster5writeEhPhhS2_h) refers to lib.o(.text._ZN9EmbSysLib2Hw9I2Cmaster5writeEhPhhS2_h) for [Anonymous Symbol]
    lib.o(.ARM.exidx.text._ZN9EmbSysLib2Hw9I2Cmaster4readEhPhhS2_h) refers to lib.o(.text._ZN9EmbSysLib2Hw9I2Cmaster4readEhPhhS2_h) for [Anonymous Symbol]
    lib.o(.text._ZN9EmbSysLib2Hw14I2Cmaster_EmulC2ERNS0_4Port3PinES4_t) refers to lib.o(.rodata._ZTVN9EmbSysLib2Hw14I2Cmaster_EmulE) for vtable for EmbSysLib::Hw::I2Cmaster_Emul
    lib.o(.ARM.exidx.text._ZN9EmbSysLib2Hw14I2Cmaster_EmulC2ERNS0_4Port3PinES4_t) refers to lib.o(.text._ZN9EmbSysLib2Hw14I2Cmaster_EmulC2ERNS0_4Port3PinES4_t) for [Anonymous Symbol]
    lib.o(.text._ZN9EmbSysLib2Hw14I2Cmaster_Emul4waitEv) refers to dflt_clz.o(x$fpl$dfltu) for __aeabi_ui2d
    lib.o(.text._ZN9EmbSysLib2Hw14I2Cmaster_Emul4waitEv) refers to dmul.o(x$fpl$dmul) for __aeabi_dmul
    lib.o(.text._ZN9EmbSysLib2Hw14I2Cmaster_Emul4waitEv) refers to dfixu.o(x$fpl$dfixu) for __aeabi_d2uiz
    lib.o(.ARM.exidx.text._ZN9EmbSysLib2Hw14I2Cmaster_Emul4waitEv) refers to lib.o(.text._ZN9EmbSysLib2Hw14I2Cmaster_Emul4waitEv) for [Anonymous Symbol]
    lib.o(.ARM.exidx.text._ZN9EmbSysLib2Hw14I2Cmaster_Emul11waitForAcknEv) refers to lib.o(.text._ZN9EmbSysLib2Hw14I2Cmaster_Emul11waitForAcknEv) for [Anonymous Symbol]
    lib.o(.ARM.exidx.text._ZN9EmbSysLib2Hw14I2Cmaster_Emul5startEh) refers to lib.o(.text._ZN9EmbSysLib2Hw14I2Cmaster_Emul5startEh) for [Anonymous Symbol]
    lib.o(.ARM.exidx.text._ZN9EmbSysLib2Hw14I2Cmaster_Emul4stopEv) refers to lib.o(.text._ZN9EmbSysLib2Hw14I2Cmaster_Emul4stopEv) for [Anonymous Symbol]
    lib.o(.ARM.exidx.text._ZN9EmbSysLib2Hw14I2Cmaster_Emul8sendAddrEh) refers to lib.o(.text._ZN9EmbSysLib2Hw14I2Cmaster_Emul8sendAddrEh) for [Anonymous Symbol]
    lib.o(.ARM.exidx.text._ZN9EmbSysLib2Hw14I2Cmaster_Emul9writeByteEh) refers to lib.o(.text._ZN9EmbSysLib2Hw14I2Cmaster_Emul9writeByteEh) for [Anonymous Symbol]
    lib.o(.ARM.exidx.text._ZN9EmbSysLib2Hw14I2Cmaster_Emul12readByteNackEv) refers to lib.o(.text._ZN9EmbSysLib2Hw14I2Cmaster_Emul12readByteNackEv) for [Anonymous Symbol]
    lib.o(.ARM.exidx.text._ZN9EmbSysLib2Hw14I2Cmaster_Emul11readByteAckEv) refers to lib.o(.text._ZN9EmbSysLib2Hw14I2Cmaster_Emul11readByteAckEv) for [Anonymous Symbol]
    lib.o(.ARM.exidx.text._ZN9EmbSysLib2Hw8I2CslaveC2ERNS1_11DataHandlerEh) refers to lib.o(.text._ZN9EmbSysLib2Hw8I2CslaveC2ERNS1_11DataHandlerEh) for [Anonymous Symbol]
    lib.o(.ARM.exidx.text._ZN9EmbSysLib2Hw9NetEthARPC2ERNS0_8EthernetERNS0_7NetAddrILh4EEE) refers to lib.o(.text._ZN9EmbSysLib2Hw9NetEthARPC2ERNS0_8EthernetERNS0_7NetAddrILh4EEE) for [Anonymous Symbol]
    lib.o(.ARM.exidx.text._ZN9EmbSysLib2Hw9NetEthARP7requestERNS0_7NetAddrILh4EEE) refers to lib.o(.text._ZN9EmbSysLib2Hw9NetEthARP7requestERNS0_7NetAddrILh4EEE) for [Anonymous Symbol]
    lib.o(.ARM.exidx.text._ZN9EmbSysLib2Hw9NetEthARP6setTCPEPNS0_9NetEthTCPE) refers to lib.o(.text._ZN9EmbSysLib2Hw9NetEthARP6setTCPEPNS0_9NetEthTCPE) for [Anonymous Symbol]
    lib.o(.ARM.exidx.text._ZN9EmbSysLib2Hw9NetEthARP6setUDPEPNS0_9NetEthUDPE) refers to lib.o(.text._ZN9EmbSysLib2Hw9NetEthARP6setUDPEPNS0_9NetEthUDPE) for [Anonymous Symbol]
    lib.o(.text._ZN9EmbSysLib2Hw10NetEthDHCPC2ERNS0_9NetEthUDPEPKc) refers to lib.o(.rodata._ZTVN9EmbSysLib2Hw10NetEthDHCPE) for vtable for EmbSysLib::Hw::NetEthDHCP
    lib.o(.text._ZN9EmbSysLib2Hw10NetEthDHCPC2ERNS0_9NetEthUDPEPKc) refers to lib.o(.rodata._ZTVN9EmbSysLib2Hw9NetEthUDP6SocketE) for vtable for EmbSysLib::Hw::NetEthUDP::Socket
    lib.o(.ARM.exidx.text._ZN9EmbSysLib2Hw10NetEthDHCPC2ERNS0_9NetEthUDPEPKc) refers to lib.o(.text._ZN9EmbSysLib2Hw10NetEthDHCPC2ERNS0_9NetEthUDPEPKc) for [Anonymous Symbol]
    lib.o(.text._ZN9EmbSysLib2Hw10NetEthDHCP9onReceiveERNS0_9NetSocketE) refers to memcmp.o(.text) for memcmp
    lib.o(.text._ZN9EmbSysLib2Hw10NetEthDHCP9onReceiveERNS0_9NetSocketE) refers to lib.o(.text._ZN9EmbSysLib2Hw9NetEthUDP6Socket4openENS0_7NetAddrILh4EEEt) for EmbSysLib::Hw::NetEthUDP::Socket::open(EmbSysLib::Hw::NetAddr<(unsigned char)4>, unsigned short)
    lib.o(.text._ZN9EmbSysLib2Hw10NetEthDHCP9onReceiveERNS0_9NetSocketE) refers to lib.o(.text._ZN9EmbSysLib2Hw10NetEthDHCP4sendEh) for EmbSysLib::Hw::NetEthDHCP::send(unsigned char)
    lib.o(.ARM.exidx.text._ZN9EmbSysLib2Hw10NetEthDHCP9onReceiveERNS0_9NetSocketE) refers to lib.o(.text._ZN9EmbSysLib2Hw10NetEthDHCP9onReceiveERNS0_9NetSocketE) for [Anonymous Symbol]
    lib.o(.ARM.exidx.text._ZN9EmbSysLib2Hw9NetEthUDP6Socket14getDataPointerEv) refers to lib.o(.text._ZN9EmbSysLib2Hw9NetEthUDP6Socket14getDataPointerEv) for [Anonymous Symbol]
    lib.o(.ARM.exidx.text._ZN9EmbSysLib2Hw10NetEthDHCP13parse_optionsEPhi) refers to lib.o(.text._ZN9EmbSysLib2Hw10NetEthDHCP13parse_optionsEPhi) for [Anonymous Symbol]
    lib.o(.ARM.exidx.text._ZN9EmbSysLib2Hw9NetEthUDP6Socket4openENS0_7NetAddrILh4EEEt) refers to lib.o(.text._ZN9EmbSysLib2Hw9NetEthUDP6Socket4openENS0_7NetAddrILh4EEEt) for [Anonymous Symbol]
    lib.o(.text._ZN9EmbSysLib2Hw10NetEthDHCP4sendEh) refers to rt_memclr.o(.text) for __aeabi_memclr
    lib.o(.text._ZN9EmbSysLib2Hw10NetEthDHCP4sendEh) refers to strlen.o(.text) for strlen
    lib.o(.text._ZN9EmbSysLib2Hw10NetEthDHCP4sendEh) refers to lib.o(.text._ZN9EmbSysLib2Hw9NetEthUDP6createERNS1_6SocketEt) for EmbSysLib::Hw::NetEthUDP::create(EmbSysLib::Hw::NetEthUDP::Socket&, unsigned short)
    lib.o(.ARM.exidx.text._ZN9EmbSysLib2Hw10NetEthDHCP4sendEh) refers to lib.o(.text._ZN9EmbSysLib2Hw10NetEthDHCP4sendEh) for [Anonymous Symbol]
    lib.o(.text._ZN9EmbSysLib2Hw10NetEthDHCP9onTriggerEv) refers to lib.o(.text._ZN9EmbSysLib2Hw9NetEthUDP6Socket4openENS0_7NetAddrILh4EEEt) for EmbSysLib::Hw::NetEthUDP::Socket::open(EmbSysLib::Hw::NetAddr<(unsigned char)4>, unsigned short)
    lib.o(.text._ZN9EmbSysLib2Hw10NetEthDHCP9onTriggerEv) refers to lib.o(.text._ZN9EmbSysLib2Hw10NetEthDHCP4sendEh) for EmbSysLib::Hw::NetEthDHCP::send(unsigned char)
    lib.o(.ARM.exidx.text._ZN9EmbSysLib2Hw10NetEthDHCP9onTriggerEv) refers to lib.o(.text._ZN9EmbSysLib2Hw10NetEthDHCP9onTriggerEv) for [Anonymous Symbol]
    lib.o(.text._ZThn4_N9EmbSysLib2Hw10NetEthDHCP9onTriggerEv) refers to lib.o(.text._ZN9EmbSysLib2Hw9NetEthUDP6Socket4openENS0_7NetAddrILh4EEEt) for EmbSysLib::Hw::NetEthUDP::Socket::open(EmbSysLib::Hw::NetAddr<(unsigned char)4>, unsigned short)
    lib.o(.text._ZThn4_N9EmbSysLib2Hw10NetEthDHCP9onTriggerEv) refers to lib.o(.text._ZN9EmbSysLib2Hw10NetEthDHCP4sendEh) for EmbSysLib::Hw::NetEthDHCP::send(unsigned char)
    lib.o(.ARM.exidx.text._ZThn4_N9EmbSysLib2Hw10NetEthDHCP9onTriggerEv) refers to lib.o(.text._ZThn4_N9EmbSysLib2Hw10NetEthDHCP9onTriggerEv) for [Anonymous Symbol]
    lib.o(.ARM.exidx.text._ZN9EmbSysLib2Hw9NetEthUDP6Socket5clearEv) refers to lib.o(.text._ZN9EmbSysLib2Hw9NetEthUDP6Socket5clearEv) for [Anonymous Symbol]
    lib.o(.text._ZN9EmbSysLib2Hw9NetEthUDP6Socket5flushEv) refers to lib.o(.text._ZN9EmbSysLib2Hw9NetEthUDP6createERNS1_6SocketEt) for EmbSysLib::Hw::NetEthUDP::create(EmbSysLib::Hw::NetEthUDP::Socket&, unsigned short)
    lib.o(.ARM.exidx.text._ZN9EmbSysLib2Hw9NetEthUDP6Socket5flushEv) refers to lib.o(.text._ZN9EmbSysLib2Hw9NetEthUDP6Socket5flushEv) for [Anonymous Symbol]
    lib.o(.ARM.exidx.text._ZN9EmbSysLib2Hw10NetEthICMPC2ERNS0_8NetEthIPE) refers to lib.o(.text._ZN9EmbSysLib2Hw10NetEthICMPC2ERNS0_8NetEthIPE) for [Anonymous Symbol]
    lib.o(.text._ZN9EmbSysLib2Hw10NetEthICMP7processEv) refers to lib.o(.text._ZN9EmbSysLib2Hw8NetEthIP6createENS0_7NetAddrILh6EEENS2_ILh4EEEtt) for EmbSysLib::Hw::NetEthIP::create(EmbSysLib::Hw::NetAddr<(unsigned char)6>, EmbSysLib::Hw::NetAddr<(unsigned char)4>, unsigned short, unsigned short)
    lib.o(.ARM.exidx.text._ZN9EmbSysLib2Hw10NetEthICMP7processEv) refers to lib.o(.text._ZN9EmbSysLib2Hw10NetEthICMP7processEv) for [Anonymous Symbol]
    lib.o(.ARM.exidx.text._ZN9EmbSysLib2Hw8NetEthIP6createENS0_7NetAddrILh6EEENS2_ILh4EEEtt) refers to lib.o(.text._ZN9EmbSysLib2Hw8NetEthIP6createENS0_7NetAddrILh6EEENS2_ILh4EEEtt) for [Anonymous Symbol]
    lib.o(.ARM.exidx.text._ZN9EmbSysLib2Hw8NetEthIP8checksumEPhtj) refers to lib.o(.text._ZN9EmbSysLib2Hw8NetEthIP8checksumEPhtj) for [Anonymous Symbol]
    lib.o(.text._ZN9EmbSysLib2Hw8NetEthIPC2ERNS0_8EthernetERKNS0_7NetAddrILh4EEE) refers to lib.o(.rodata._ZTVN9EmbSysLib2Hw8NetEthIPE) for vtable for EmbSysLib::Hw::NetEthIP
    lib.o(.ARM.exidx.text._ZN9EmbSysLib2Hw8NetEthIPC2ERNS0_8EthernetERKNS0_7NetAddrILh4EEE) refers to lib.o(.text._ZN9EmbSysLib2Hw8NetEthIPC2ERNS0_8EthernetERKNS0_7NetAddrILh4EEE) for [Anonymous Symbol]
    lib.o(.text._ZN9EmbSysLib2Hw8NetEthIP9onProcessEv) refers to lib.o(.text._ZN9EmbSysLib2Hw10NetEthICMP7processEv) for EmbSysLib::Hw::NetEthICMP::process()
    lib.o(.ARM.exidx.text._ZN9EmbSysLib2Hw8NetEthIP9onProcessEv) refers to lib.o(.text._ZN9EmbSysLib2Hw8NetEthIP9onProcessEv) for [Anonymous Symbol]
    lib.o(.ARM.exidx.text._ZN9EmbSysLib2Hw15NetEthTransport7processEv) refers to lib.o(.text._ZN9EmbSysLib2Hw15NetEthTransport7processEv) for [Anonymous Symbol]
    lib.o(.ARM.exidx.text._ZN9EmbSysLib2Hw8NetEthIP9onTriggerEv) refers to lib.o(.text._ZN9EmbSysLib2Hw8NetEthIP9onTriggerEv) for [Anonymous Symbol]
    lib.o(.ARM.exidx.text._ZN9EmbSysLib2Hw15NetEthTransport7triggerEv) refers to lib.o(.text._ZN9EmbSysLib2Hw15NetEthTransport7triggerEv) for [Anonymous Symbol]
    lib.o(.ARM.exidx.text._ZN9EmbSysLib2Hw8NetEthIP16getAvailablePortEv) refers to lib.o(.text._ZN9EmbSysLib2Hw8NetEthIP16getAvailablePortEv) for [Anonymous Symbol]
    lib.o(.ARM.exidx.text._ZN9EmbSysLib2Hw15NetEthTransport15isPortAvailableEt) refers to lib.o(.text._ZN9EmbSysLib2Hw15NetEthTransport15isPortAvailableEt) for [Anonymous Symbol]
    lib.o(.text._ZN9EmbSysLib2Hw9NetEthTCPC2ERNS0_8EthernetERNS0_8NetEthIPE) refers to lib.o(.rodata._ZTVN9EmbSysLib2Hw9NetEthTCPE) for vtable for EmbSysLib::Hw::NetEthTCP
    lib.o(.ARM.exidx.text._ZN9EmbSysLib2Hw9NetEthTCPC2ERNS0_8EthernetERNS0_8NetEthIPE) refers to lib.o(.text._ZN9EmbSysLib2Hw9NetEthTCPC2ERNS0_8EthernetERNS0_8NetEthIPE) for [Anonymous Symbol]
    lib.o(.text._ZN9EmbSysLib2Hw9NetEthTCP6createERNS1_6SocketEt) refers to lib.o(.text._ZN9EmbSysLib2Hw8NetEthIP6createENS0_7NetAddrILh6EEENS2_ILh4EEEtt) for EmbSysLib::Hw::NetEthIP::create(EmbSysLib::Hw::NetAddr<(unsigned char)6>, EmbSysLib::Hw::NetAddr<(unsigned char)4>, unsigned short, unsigned short)
    lib.o(.ARM.exidx.text._ZN9EmbSysLib2Hw9NetEthTCP6createERNS1_6SocketEt) refers to lib.o(.text._ZN9EmbSysLib2Hw9NetEthTCP6createERNS1_6SocketEt) for [Anonymous Symbol]
    lib.o(.text._ZN9EmbSysLib2Hw9NetEthTCP6SocketC2ERS1_PNS0_9NetSocket7HandlerE) refers to lib.o(.rodata._ZTVN9EmbSysLib2Hw9NetEthTCP6SocketE) for vtable for EmbSysLib::Hw::NetEthTCP::Socket
    lib.o(.ARM.exidx.text._ZN9EmbSysLib2Hw9NetEthTCP6SocketC2ERS1_PNS0_9NetSocket7HandlerE) refers to lib.o(.text._ZN9EmbSysLib2Hw9NetEthTCP6SocketC2ERS1_PNS0_9NetSocket7HandlerE) for [Anonymous Symbol]
    lib.o(.ARM.exidx.text._ZN9EmbSysLib2Hw9NetEthTCP6Socket9nextStateEh) refers to lib.o(.text._ZN9EmbSysLib2Hw9NetEthTCP6Socket9nextStateEh) for [Anonymous Symbol]
    lib.o(.ARM.exidx.text._ZN9EmbSysLib2Hw9NetEthTCP6Socket4openENS0_7NetAddrILh4EEEt) refers to lib.o(.text._ZN9EmbSysLib2Hw9NetEthTCP6Socket4openENS0_7NetAddrILh4EEEt) for [Anonymous Symbol]
    lib.o(.ARM.exidx.text._ZN9EmbSysLib2Hw9NetEthTCP6Socket5closeEv) refers to lib.o(.text._ZN9EmbSysLib2Hw9NetEthTCP6Socket5closeEv) for [Anonymous Symbol]
    lib.o(.ARM.exidx.text._ZN9EmbSysLib2Hw9NetEthTCP6Socket5clearEv) refers to lib.o(.text._ZN9EmbSysLib2Hw9NetEthTCP6Socket5clearEv) for [Anonymous Symbol]
    lib.o(.ARM.exidx.text._ZN9EmbSysLib2Hw9NetEthTCP6Socket10fillBufferEc) refers to lib.o(.text._ZN9EmbSysLib2Hw9NetEthTCP6Socket10fillBufferEc) for [Anonymous Symbol]
    lib.o(.text._ZN9EmbSysLib2Hw9NetEthTCP6Socket5flushEv) refers to lib.o(.text._ZN9EmbSysLib2Hw9NetEthTCP6createERNS1_6SocketEt) for EmbSysLib::Hw::NetEthTCP::create(EmbSysLib::Hw::NetEthTCP::Socket&, unsigned short)
    lib.o(.ARM.exidx.text._ZN9EmbSysLib2Hw9NetEthTCP6Socket5flushEv) refers to lib.o(.text._ZN9EmbSysLib2Hw9NetEthTCP6Socket5flushEv) for [Anonymous Symbol]
    lib.o(.text._ZN9EmbSysLib2Hw9NetEthTCP6Socket9sendFlagsEh) refers to lib.o(.text._ZN9EmbSysLib2Hw9NetEthTCP6createERNS1_6SocketEt) for EmbSysLib::Hw::NetEthTCP::create(EmbSysLib::Hw::NetEthTCP::Socket&, unsigned short)
    lib.o(.ARM.exidx.text._ZN9EmbSysLib2Hw9NetEthTCP6Socket9sendFlagsEh) refers to lib.o(.text._ZN9EmbSysLib2Hw9NetEthTCP6Socket9sendFlagsEh) for [Anonymous Symbol]
    lib.o(.ARM.exidx.text._ZN9EmbSysLib2Hw9NetEthTCP6Socket3getERh) refers to lib.o(.text._ZN9EmbSysLib2Hw9NetEthTCP6Socket3getERh) for [Anonymous Symbol]
    lib.o(.ARM.exidx.text._ZN9EmbSysLib2Hw9NetEthTCP6Socket14getDataPointerEv) refers to lib.o(.text._ZN9EmbSysLib2Hw9NetEthTCP6Socket14getDataPointerEv) for [Anonymous Symbol]
    lib.o(.ARM.exidx.text._ZN9EmbSysLib2Hw9NetEthTCP6Socket9onProcessEv) refers to lib.o(.text._ZN9EmbSysLib2Hw9NetEthTCP6Socket9onProcessEv) for [Anonymous Symbol]
    lib.o(.text._ZN9EmbSysLib2Hw9NetEthTCP6Socket6updateEv) refers to lib.o(.text._ZN9EmbSysLib2Hw9NetEthTCP6createERNS1_6SocketEt) for EmbSysLib::Hw::NetEthTCP::create(EmbSysLib::Hw::NetEthTCP::Socket&, unsigned short)
    lib.o(.text._ZN9EmbSysLib2Hw9NetEthTCP6Socket6updateEv) refers to lib.o(.text._ZN9EmbSysLib2Hw9NetEthTCP6Socket9sendFlagsEh) for EmbSysLib::Hw::NetEthTCP::Socket::sendFlags(unsigned char)
    lib.o(.text._ZN9EmbSysLib2Hw9NetEthTCP6Socket6updateEv) refers to lib.o(.text._ZN9EmbSysLib2Hw9NetEthTCP6Socket9nextStateEh) for EmbSysLib::Hw::NetEthTCP::Socket::nextState(unsigned char)
    lib.o(.text._ZN9EmbSysLib2Hw9NetEthTCP6Socket6updateEv) refers to lib.o(.rodata._ZN9EmbSysLib2HwL11zeroAddrPhyE) for EmbSysLib::Hw::zeroAddrPhy
    lib.o(.text._ZN9EmbSysLib2Hw9NetEthTCP6Socket6updateEv) refers to memcmp.o(.text) for memcmp
    lib.o(.text._ZN9EmbSysLib2Hw9NetEthTCP6Socket6updateEv) refers to lib.o(.text._ZN9EmbSysLib2Hw9NetEthARP7requestERNS0_7NetAddrILh4EEE) for EmbSysLib::Hw::NetEthARP::request(EmbSysLib::Hw::NetAddr<(unsigned char)4>&)
    lib.o(.ARM.exidx.text._ZN9EmbSysLib2Hw9NetEthTCP6Socket6updateEv) refers to lib.o(.text._ZN9EmbSysLib2Hw9NetEthTCP6Socket6updateEv) for [Anonymous Symbol]
    lib.o(.ARM.exidx.text._ZN9EmbSysLib2Hw9NetEthTCP6Socket9onTriggerEv) refers to lib.o(.text._ZN9EmbSysLib2Hw9NetEthTCP6Socket9onTriggerEv) for [Anonymous Symbol]
    lib.o(.ARM.exidx.text._ZN9EmbSysLib2Hw9NetEthTCP9handleARPENS0_7NetAddrILh4EEENS2_ILh6EEE) refers to lib.o(.text._ZN9EmbSysLib2Hw9NetEthTCP9handleARPENS0_7NetAddrILh4EEENS2_ILh6EEE) for [Anonymous Symbol]
    lib.o(.text._ZN9EmbSysLib2Hw9NetEthUDPC2ERNS0_8EthernetERNS0_8NetEthIPE) refers to lib.o(.rodata._ZTVN9EmbSysLib2Hw9NetEthUDPE) for vtable for EmbSysLib::Hw::NetEthUDP
    lib.o(.ARM.exidx.text._ZN9EmbSysLib2Hw9NetEthUDPC2ERNS0_8EthernetERNS0_8NetEthIPE) refers to lib.o(.text._ZN9EmbSysLib2Hw9NetEthUDPC2ERNS0_8EthernetERNS0_8NetEthIPE) for [Anonymous Symbol]
    lib.o(.text._ZN9EmbSysLib2Hw9NetEthUDP6createERNS1_6SocketEt) refers to lib.o(.text._ZN9EmbSysLib2Hw8NetEthIP6createENS0_7NetAddrILh6EEENS2_ILh4EEEtt) for EmbSysLib::Hw::NetEthIP::create(EmbSysLib::Hw::NetAddr<(unsigned char)6>, EmbSysLib::Hw::NetAddr<(unsigned char)4>, unsigned short, unsigned short)
    lib.o(.ARM.exidx.text._ZN9EmbSysLib2Hw9NetEthUDP6createERNS1_6SocketEt) refers to lib.o(.text._ZN9EmbSysLib2Hw9NetEthUDP6createERNS1_6SocketEt) for [Anonymous Symbol]
    lib.o(.text._ZN9EmbSysLib2Hw9NetEthUDP6SocketC2ERS1_PNS0_9NetSocket7HandlerEt) refers to lib.o(.rodata._ZTVN9EmbSysLib2Hw9NetEthUDP6SocketE) for vtable for EmbSysLib::Hw::NetEthUDP::Socket
    lib.o(.ARM.exidx.text._ZN9EmbSysLib2Hw9NetEthUDP6SocketC2ERS1_PNS0_9NetSocket7HandlerEt) refers to lib.o(.text._ZN9EmbSysLib2Hw9NetEthUDP6SocketC2ERS1_PNS0_9NetSocket7HandlerEt) for [Anonymous Symbol]
    lib.o(.ARM.exidx.text._ZN9EmbSysLib2Hw9NetEthUDP6Socket5closeEv) refers to lib.o(.text._ZN9EmbSysLib2Hw9NetEthUDP6Socket5closeEv) for [Anonymous Symbol]
    lib.o(.ARM.exidx.text._ZN9EmbSysLib2Hw9NetEthUDP6Socket10fillBufferEc) refers to lib.o(.text._ZN9EmbSysLib2Hw9NetEthUDP6Socket10fillBufferEc) for [Anonymous Symbol]
    lib.o(.ARM.exidx.text._ZN9EmbSysLib2Hw9NetEthUDP6Socket3getERh) refers to lib.o(.text._ZN9EmbSysLib2Hw9NetEthUDP6Socket3getERh) for [Anonymous Symbol]
    lib.o(.ARM.exidx.text._ZN9EmbSysLib2Hw9NetEthUDP6Socket9onProcessEv) refers to lib.o(.text._ZN9EmbSysLib2Hw9NetEthUDP6Socket9onProcessEv) for [Anonymous Symbol]
    lib.o(.text._ZN9EmbSysLib2Hw9NetEthUDP6Socket9onTriggerEv) refers to lib.o(.rodata._ZN9EmbSysLib2HwL11zeroAddrPhyE) for EmbSysLib::Hw::zeroAddrPhy
    lib.o(.text._ZN9EmbSysLib2Hw9NetEthUDP6Socket9onTriggerEv) refers to memcmp.o(.text) for memcmp
    lib.o(.ARM.exidx.text._ZN9EmbSysLib2Hw9NetEthUDP6Socket9onTriggerEv) refers to lib.o(.text._ZN9EmbSysLib2Hw9NetEthUDP6Socket9onTriggerEv) for [Anonymous Symbol]
    lib.o(.ARM.exidx.text._ZN9EmbSysLib2Hw9NetEthUDP9handleARPENS0_7NetAddrILh4EEENS2_ILh6EEE) refers to lib.o(.text._ZN9EmbSysLib2Hw9NetEthUDP9handleARPENS0_7NetAddrILh4EEENS2_ILh6EEE) for [Anonymous Symbol]
    lib.o(.text._ZN9EmbSysLib2Hw4Port3PinC2ERS1_h) refers to lib.o(.rodata._ZTVN9EmbSysLib2Hw4Port3PinE) for vtable for EmbSysLib::Hw::Port::Pin
    lib.o(.ARM.exidx.text._ZN9EmbSysLib2Hw4Port3PinC2ERS1_h) refers to lib.o(.text._ZN9EmbSysLib2Hw4Port3PinC2ERS1_h) for [Anonymous Symbol]
    lib.o(.text._ZN9EmbSysLib2Hw4Port3PinC2ERS1_hNS1_4ModeE) refers to lib.o(.rodata._ZTVN9EmbSysLib2Hw4Port3PinE) for vtable for EmbSysLib::Hw::Port::Pin
    lib.o(.ARM.exidx.text._ZN9EmbSysLib2Hw4Port3PinC2ERS1_hNS1_4ModeE) refers to lib.o(.text._ZN9EmbSysLib2Hw4Port3PinC2ERS1_hNS1_4ModeE) for [Anonymous Symbol]
    lib.o(.ARM.exidx.text._ZN9EmbSysLib2Hw6ExtInt3addEPNS1_4TaskE) refers to lib.o(.text._ZN9EmbSysLib2Hw6ExtInt3addEPNS1_4TaskE) for [Anonymous Symbol]
    lib.o(.text._ZN9EmbSysLib2Hw9SPImasterC2Ev) refers to lib.o(.rodata._ZTVN9EmbSysLib2Hw9SPImasterE) for vtable for EmbSysLib::Hw::SPImaster
    lib.o(.ARM.exidx.text._ZN9EmbSysLib2Hw9SPImasterC2Ev) refers to lib.o(.text._ZN9EmbSysLib2Hw9SPImasterC2Ev) for [Anonymous Symbol]
    lib.o(.ARM.exidx.text._ZN9EmbSysLib2Hw9SPImaster6Device10transceiveEh) refers to lib.o(.text._ZN9EmbSysLib2Hw9SPImaster6Device10transceiveEh) for [Anonymous Symbol]
    lib.o(.ARM.exidx.text._ZN9EmbSysLib2Hw9SPImaster6Device10transceiveEPht) refers to lib.o(.text._ZN9EmbSysLib2Hw9SPImaster6Device10transceiveEPht) for [Anonymous Symbol]
    lib.o(.ARM.exidx.text._ZN9EmbSysLib2Hw8SPIslaveC2ERNS1_11DataHandlerE) refers to lib.o(.text._ZN9EmbSysLib2Hw8SPIslaveC2ERNS1_11DataHandlerE) for [Anonymous Symbol]
    lib.o(.ARM.exidx.text._ZN9EmbSysLib2Hw5Timer12getCycleTimeEv) refers to lib.o(.text._ZN9EmbSysLib2Hw5Timer12getCycleTimeEv) for [Anonymous Symbol]
    lib.o(.ARM.exidx.text._ZN9EmbSysLib2Hw5Timer3addEPNS1_4TaskE) refers to lib.o(.text._ZN9EmbSysLib2Hw5Timer3addEPNS1_4TaskE) for [Anonymous Symbol]
    lib.o(.text._ZN9EmbSysLib2Hw5TouchC2EtttNS1_11OrientationE) refers to lib.o(.rodata._ZTVN9EmbSysLib2Hw5TouchE) for vtable for EmbSysLib::Hw::Touch
    lib.o(.ARM.exidx.text._ZN9EmbSysLib2Hw5TouchC2EtttNS1_11OrientationE) refers to lib.o(.text._ZN9EmbSysLib2Hw5TouchC2EtttNS1_11OrientationE) for [Anonymous Symbol]
    lib.o(.text._ZN9EmbSysLib2Hw4Uart5isrRxEv) refers to lib.o(.bss._ZN9EmbSysLib2Hw6System12cntInterruptE) for EmbSysLib::Hw::System::cntInterrupt
    lib.o(.ARM.exidx.text._ZN9EmbSysLib2Hw4Uart5isrRxEv) refers to lib.o(.text._ZN9EmbSysLib2Hw4Uart5isrRxEv) for [Anonymous Symbol]
    lib.o(.text._ZN9EmbSysLib2Hw4Uart12transmitByteEh) refers to lib.o(.bss._ZN9EmbSysLib2Hw6System12cntInterruptE) for EmbSysLib::Hw::System::cntInterrupt
    lib.o(.ARM.exidx.text._ZN9EmbSysLib2Hw4Uart12transmitByteEh) refers to lib.o(.text._ZN9EmbSysLib2Hw4Uart12transmitByteEh) for [Anonymous Symbol]
    lib.o(.ARM.exidx.text._ZN9EmbSysLib2Hw4Uart3setEh) refers to lib.o(.text._ZN9EmbSysLib2Hw4Uart3setEh) for [Anonymous Symbol]
    lib.o(.ARM.exidx.text._ZN9EmbSysLib2Hw4Uart3setEPKht) refers to lib.o(.text._ZN9EmbSysLib2Hw4Uart3setEPKht) for [Anonymous Symbol]
    lib.o(.ARM.exidx.text._ZN9EmbSysLib2Hw4Uart3setEPKc) refers to lib.o(.text._ZN9EmbSysLib2Hw4Uart3setEPKc) for [Anonymous Symbol]
    lib.o(.text._ZN9EmbSysLib2Hw4Uart3getERh) refers to lib.o(.bss._ZN9EmbSysLib2Hw6System12cntInterruptE) for EmbSysLib::Hw::System::cntInterrupt
    lib.o(.ARM.exidx.text._ZN9EmbSysLib2Hw4Uart3getERh) refers to lib.o(.text._ZN9EmbSysLib2Hw4Uart3getERh) for [Anonymous Symbol]
    lib.o(.ARM.exidx.text._ZN9EmbSysLib2Hw4Uart3getEv) refers to lib.o(.text._ZN9EmbSysLib2Hw4Uart3getEv) for [Anonymous Symbol]
    lib.o(.text._ZN9EmbSysLib2Hw9USBdevice12eventHandlerEhh) refers to lib.o(.text._ZN9EmbSysLib2Hw16USBdeviceControl9ReqDeviceEv) for EmbSysLib::Hw::USBdeviceControl::ReqDevice()
    lib.o(.text._ZN9EmbSysLib2Hw9USBdevice12eventHandlerEhh) refers to lib.o(.text._ZN9EmbSysLib2Hw16USBdeviceControl2inEv) for EmbSysLib::Hw::USBdeviceControl::in()
    lib.o(.text._ZN9EmbSysLib2Hw9USBdevice12eventHandlerEhh) refers to lib.o(.text._ZN9EmbSysLib2Hw17USBdeviceEndpoint2inEv) for EmbSysLib::Hw::USBdeviceEndpoint::in()
    lib.o(.text._ZN9EmbSysLib2Hw9USBdevice12eventHandlerEhh) refers to lib.o(.text._ZN9EmbSysLib2Hw16USBdeviceControl11ReqEndpointEv) for EmbSysLib::Hw::USBdeviceControl::ReqEndpoint()
    lib.o(.text._ZN9EmbSysLib2Hw9USBdevice12eventHandlerEhh) refers to lib.o(.text._ZN9EmbSysLib2Hw16USBdeviceControl12ReqInterfaceEv) for EmbSysLib::Hw::USBdeviceControl::ReqInterface()
    lib.o(.ARM.exidx.text._ZN9EmbSysLib2Hw9USBdevice12eventHandlerEhh) refers to lib.o(.text._ZN9EmbSysLib2Hw9USBdevice12eventHandlerEhh) for [Anonymous Symbol]
    lib.o(.text._ZN9EmbSysLib2Hw16USBdeviceControl5setupEv) refers to lib.o(.text._ZN9EmbSysLib2Hw16USBdeviceControl9ReqDeviceEv) for EmbSysLib::Hw::USBdeviceControl::ReqDevice()
    lib.o(.text._ZN9EmbSysLib2Hw16USBdeviceControl5setupEv) refers to lib.o(.text._ZN9EmbSysLib2Hw16USBdeviceControl11ReqEndpointEv) for EmbSysLib::Hw::USBdeviceControl::ReqEndpoint()
    lib.o(.text._ZN9EmbSysLib2Hw16USBdeviceControl5setupEv) refers to lib.o(.text._ZN9EmbSysLib2Hw16USBdeviceControl12ReqInterfaceEv) for EmbSysLib::Hw::USBdeviceControl::ReqInterface()
    lib.o(.ARM.exidx.text._ZN9EmbSysLib2Hw16USBdeviceControl5setupEv) refers to lib.o(.text._ZN9EmbSysLib2Hw16USBdeviceControl5setupEv) for [Anonymous Symbol]
    lib.o(.ARM.exidx.text._ZN9EmbSysLib2Hw16USBdeviceControl3outEv) refers to lib.o(.text._ZN9EmbSysLib2Hw16USBdeviceControl3outEv) for [Anonymous Symbol]
    lib.o(.ARM.exidx.text._ZN9EmbSysLib2Hw16USBdeviceControl2inEv) refers to lib.o(.text._ZN9EmbSysLib2Hw16USBdeviceControl2inEv) for [Anonymous Symbol]
    lib.o(.ARM.exidx.text._ZN9EmbSysLib2Hw17USBdeviceEndpoint2inEv) refers to lib.o(.text._ZN9EmbSysLib2Hw17USBdeviceEndpoint2inEv) for [Anonymous Symbol]
    lib.o(.ARM.exidx.text._ZN9EmbSysLib2Hw17USBdeviceEndpoint3outEv) refers to lib.o(.text._ZN9EmbSysLib2Hw17USBdeviceEndpoint3outEv) for [Anonymous Symbol]
    lib.o(.ARM.exidx.text._ZN9EmbSysLib2Hw9USBdevice7suspendEv) refers to lib.o(.text._ZN9EmbSysLib2Hw9USBdevice7suspendEv) for [Anonymous Symbol]
    lib.o(.text._ZN9EmbSysLib2Hw16USBdeviceControlC2ERNS0_9USBdeviceE) refers to lib.o(.rodata._ZTVN9EmbSysLib2Hw16USBdeviceControlE) for vtable for EmbSysLib::Hw::USBdeviceControl
    lib.o(.ARM.exidx.text._ZN9EmbSysLib2Hw16USBdeviceControlC2ERNS0_9USBdeviceE) refers to lib.o(.text._ZN9EmbSysLib2Hw16USBdeviceControlC2ERNS0_9USBdeviceE) for [Anonymous Symbol]
    lib.o(.text._ZN9EmbSysLib2Hw16USBdeviceControl9ReqDeviceEv) refers to lib.o(.text._ZN9EmbSysLib2Hw16USBdeviceControl26ReqDeviceStd_GetDescriptorEv) for EmbSysLib::Hw::USBdeviceControl::ReqDeviceStd_GetDescriptor()
    lib.o(.text._ZN9EmbSysLib2Hw16USBdeviceControl9ReqDeviceEv) refers to lib.o(.text._ZN9EmbSysLib2Hw16USBdeviceControl29ReqDeviceStd_SetConfigurationEv) for EmbSysLib::Hw::USBdeviceControl::ReqDeviceStd_SetConfiguration()
    lib.o(.ARM.exidx.text._ZN9EmbSysLib2Hw16USBdeviceControl9ReqDeviceEv) refers to lib.o(.text._ZN9EmbSysLib2Hw16USBdeviceControl9ReqDeviceEv) for [Anonymous Symbol]
    lib.o(.text._ZN9EmbSysLib2Hw16USBdeviceControl12ReqInterfaceEv) refers to lib.o(.text._ZN9EmbSysLib2Hw16USBdeviceControl17ReqInterfaceClassEv) for EmbSysLib::Hw::USBdeviceControl::ReqInterfaceClass()
    lib.o(.text._ZN9EmbSysLib2Hw16USBdeviceControl12ReqInterfaceEv) refers to lib.o(.text._ZN9EmbSysLib2Hw16USBdeviceControl29ReqInterfaceStd_GetDescriptorEv) for EmbSysLib::Hw::USBdeviceControl::ReqInterfaceStd_GetDescriptor()
    lib.o(.ARM.exidx.text._ZN9EmbSysLib2Hw16USBdeviceControl12ReqInterfaceEv) refers to lib.o(.text._ZN9EmbSysLib2Hw16USBdeviceControl12ReqInterfaceEv) for [Anonymous Symbol]
    lib.o(.ARM.exidx.text._ZN9EmbSysLib2Hw16USBdeviceControl11ReqEndpointEv) refers to lib.o(.text._ZN9EmbSysLib2Hw16USBdeviceControl11ReqEndpointEv) for [Anonymous Symbol]
    lib.o(.ARM.exidx.text._ZN9EmbSysLib2Hw17USBdeviceEndpoint9writeDataEv) refers to lib.o(.text._ZN9EmbSysLib2Hw17USBdeviceEndpoint9writeDataEv) for [Anonymous Symbol]
    lib.o(.ARM.exidx.text._ZN9EmbSysLib2Hw17USBdeviceEndpoint6inCtrlEv) refers to lib.o(.text._ZN9EmbSysLib2Hw17USBdeviceEndpoint6inCtrlEv) for [Anonymous Symbol]
    lib.o(.ARM.exidx.text._ZN9EmbSysLib2Hw17USBdeviceEndpoint7outCtrlEv) refers to lib.o(.text._ZN9EmbSysLib2Hw17USBdeviceEndpoint7outCtrlEv) for [Anonymous Symbol]
    lib.o(.ARM.exidx.text._ZN9EmbSysLib2Hw16USBdeviceControl22ReqDeviceStd_GetStatusEv) refers to lib.o(.text._ZN9EmbSysLib2Hw16USBdeviceControl22ReqDeviceStd_GetStatusEv) for [Anonymous Symbol]
    lib.o(.ARM.exidx.text._ZN9EmbSysLib2Hw16USBdeviceControl23ReqDeviceStd_SetAddressEv) refers to lib.o(.text._ZN9EmbSysLib2Hw16USBdeviceControl23ReqDeviceStd_SetAddressEv) for [Anonymous Symbol]
    lib.o(.ARM.exidx.text._ZN9EmbSysLib2Hw16USBdeviceControl26ReqDeviceStd_GetDescriptorEv) refers to lib.o(.text._ZN9EmbSysLib2Hw16USBdeviceControl26ReqDeviceStd_GetDescriptorEv) for [Anonymous Symbol]
    lib.o(.ARM.exidx.text._ZN9EmbSysLib2Hw16USBdeviceControl29ReqDeviceStd_GetConfigurationEv) refers to lib.o(.text._ZN9EmbSysLib2Hw16USBdeviceControl29ReqDeviceStd_GetConfigurationEv) for [Anonymous Symbol]
    lib.o(.ARM.exidx.text._ZN9EmbSysLib2Hw16USBdeviceControl29ReqDeviceStd_SetConfigurationEv) refers to lib.o(.text._ZN9EmbSysLib2Hw16USBdeviceControl29ReqDeviceStd_SetConfigurationEv) for [Anonymous Symbol]
    lib.o(.ARM.exidx.text._ZN9EmbSysLib2Hw16USBdeviceControl15ReqDeviceVendorEv) refers to lib.o(.text._ZN9EmbSysLib2Hw16USBdeviceControl15ReqDeviceVendorEv) for [Anonymous Symbol]
    lib.o(.ARM.exidx.text._ZN9EmbSysLib2Hw16USBdeviceControl25ReqInterfaceStd_GetStatusEv) refers to lib.o(.text._ZN9EmbSysLib2Hw16USBdeviceControl25ReqInterfaceStd_GetStatusEv) for [Anonymous Symbol]
    lib.o(.ARM.exidx.text._ZN9EmbSysLib2Hw16USBdeviceControl29ReqInterfaceStd_GetDescriptorEv) refers to lib.o(.text._ZN9EmbSysLib2Hw16USBdeviceControl29ReqInterfaceStd_GetDescriptorEv) for [Anonymous Symbol]
    lib.o(.ARM.exidx.text._ZN9EmbSysLib2Hw16USBdeviceControl28ReqInterfaceStd_GetInterfaceEv) refers to lib.o(.text._ZN9EmbSysLib2Hw16USBdeviceControl28ReqInterfaceStd_GetInterfaceEv) for [Anonymous Symbol]
    lib.o(.ARM.exidx.text._ZN9EmbSysLib2Hw16USBdeviceControl28ReqInterfaceStd_SetInterfaceEv) refers to lib.o(.text._ZN9EmbSysLib2Hw16USBdeviceControl28ReqInterfaceStd_SetInterfaceEv) for [Anonymous Symbol]
    lib.o(.ARM.exidx.text._ZN9EmbSysLib2Hw16USBdeviceControl17ReqInterfaceClassEv) refers to lib.o(.text._ZN9EmbSysLib2Hw16USBdeviceControl17ReqInterfaceClassEv) for [Anonymous Symbol]
    lib.o(.ARM.exidx.text._ZN9EmbSysLib2Hw16USBdeviceControl25ReqEndpointStd_ClrFeatureEv) refers to lib.o(.text._ZN9EmbSysLib2Hw16USBdeviceControl25ReqEndpointStd_ClrFeatureEv) for [Anonymous Symbol]
    lib.o(.ARM.exidx.text._ZN9EmbSysLib2Hw16USBdeviceControl25ReqEndpointStd_SetFeatureEv) refers to lib.o(.text._ZN9EmbSysLib2Hw16USBdeviceControl25ReqEndpointStd_SetFeatureEv) for [Anonymous Symbol]
    lib.o(.ARM.exidx.text._ZN9EmbSysLib2Hw17USBdeviceEndpoint9writeDataERKNS_3Std11DataPointerE) refers to lib.o(.text._ZN9EmbSysLib2Hw17USBdeviceEndpoint9writeDataERKNS_3Std11DataPointerE) for [Anonymous Symbol]
    lib.o(.ARM.exidx.text._ZN9EmbSysLib2Hw17USBdeviceEndpoint12writeDataLenERKNS_3Std11DataPointerEt) refers to lib.o(.text._ZN9EmbSysLib2Hw17USBdeviceEndpoint12writeDataLenERKNS_3Std11DataPointerEt) for [Anonymous Symbol]
    lib.o(.ARM.exidx.text._ZN9EmbSysLib2Hw17USBdeviceEndpoint16setConfigurationEv) refers to lib.o(.text._ZN9EmbSysLib2Hw17USBdeviceEndpoint16setConfigurationEv) for [Anonymous Symbol]
    lib.o(.ARM.exidx.text._ZN9EmbSysLib2Hw17USBdeviceEndpoint16writeAcknowledgeEv) refers to lib.o(.text._ZN9EmbSysLib2Hw17USBdeviceEndpoint16writeAcknowledgeEv) for [Anonymous Symbol]
    lib.o(.ARM.exidx.text._ZN9EmbSysLib2Hw17USBdeviceEndpoint8clrStallEv) refers to lib.o(.text._ZN9EmbSysLib2Hw17USBdeviceEndpoint8clrStallEv) for [Anonymous Symbol]
    lib.o(.ARM.exidx.text._ZN9EmbSysLib2Hw17USBdeviceEndpoint5stallEv) refers to lib.o(.text._ZN9EmbSysLib2Hw17USBdeviceEndpoint5stallEv) for [Anonymous Symbol]
    lib.o(.ARM.exidx.text._ZN9EmbSysLib2Hw16USBdeviceControl5stallEv) refers to lib.o(.text._ZN9EmbSysLib2Hw16USBdeviceControl5stallEv) for [Anonymous Symbol]
    lib.o(.ARM.exidx.text._ZN9EmbSysLib2Hw19USBdeviceDescriptor19getDescriptorDeviceEv) refers to lib.o(.text._ZN9EmbSysLib2Hw19USBdeviceDescriptor19getDescriptorDeviceEv) for [Anonymous Symbol]
    lib.o(.ARM.exidx.text._ZN9EmbSysLib2Hw19USBdeviceDescriptor19getDescriptorConfigEh) refers to lib.o(.text._ZN9EmbSysLib2Hw19USBdeviceDescriptor19getDescriptorConfigEh) for [Anonymous Symbol]
    lib.o(.ARM.exidx.text._ZN9EmbSysLib2Hw19USBdeviceDescriptor22getDescriptorInterfaceEhh) refers to lib.o(.text._ZN9EmbSysLib2Hw19USBdeviceDescriptor22getDescriptorInterfaceEhh) for [Anonymous Symbol]
    lib.o(.ARM.exidx.text._ZN9EmbSysLib2Hw19USBdeviceDescriptor21getDescriptorEndpointEhhh) refers to lib.o(.text._ZN9EmbSysLib2Hw19USBdeviceDescriptor21getDescriptorEndpointEhhh) for [Anonymous Symbol]
    lib.o(.ARM.exidx.text._ZN9EmbSysLib2Hw19USBdeviceDescriptor16getDescriptorHIDEhhh) refers to lib.o(.text._ZN9EmbSysLib2Hw19USBdeviceDescriptor16getDescriptorHIDEhhh) for [Anonymous Symbol]
    lib.o(.ARM.exidx.text._ZN9EmbSysLib2Hw19USBdeviceDescriptor22getDescriptorHIDreportEhhh) refers to lib.o(.text._ZN9EmbSysLib2Hw19USBdeviceDescriptor22getDescriptorHIDreportEhhh) for [Anonymous Symbol]
    lib.o(.ARM.exidx.text._ZN9EmbSysLib2Hw19USBdeviceDescriptor19getDescriptorStringEh) refers to lib.o(.text._ZN9EmbSysLib2Hw19USBdeviceDescriptor19getDescriptorStringEh) for [Anonymous Symbol]
    lib.o(.ARM.exidx.text._ZN9EmbSysLib2Hw19USBdeviceDescriptor25getDescriptorDeviceVendorEv) refers to lib.o(.text._ZN9EmbSysLib2Hw19USBdeviceDescriptor25getDescriptorDeviceVendorEv) for [Anonymous Symbol]
    lib.o(.ARM.exidx.text._ZN9EmbSysLib2Hw19USBdeviceDescriptor17getMaxPacketSize0Ev) refers to lib.o(.text._ZN9EmbSysLib2Hw19USBdeviceDescriptor17getMaxPacketSize0Ev) for [Anonymous Symbol]
    lib.o(.ARM.exidx.text._ZN9EmbSysLib2Hw19USBdeviceDescriptor21getConfigDeviceStatusEh) refers to lib.o(.text._ZN9EmbSysLib2Hw19USBdeviceDescriptor21getConfigDeviceStatusEh) for [Anonymous Symbol]
    lib.o(.ARM.exidx.text._ZN9EmbSysLib2Hw17USBdeviceEndpointC2ERNS0_9USBdeviceEPNS0_18USBdeviceInterfaceEhth) refers to lib.o(.text._ZN9EmbSysLib2Hw17USBdeviceEndpointC2ERNS0_9USBdeviceEPNS0_18USBdeviceInterfaceEhth) for [Anonymous Symbol]
    lib.o(.ARM.exidx.text._ZN9EmbSysLib2Hw17USBdeviceEndpointC2ERNS0_9USBdeviceEht) refers to lib.o(.text._ZN9EmbSysLib2Hw17USBdeviceEndpointC2ERNS0_9USBdeviceEht) for [Anonymous Symbol]
    lib.o(.ARM.exidx.text._ZN9EmbSysLib2Hw17USBdeviceEndpoint6setNAKEv) refers to lib.o(.text._ZN9EmbSysLib2Hw17USBdeviceEndpoint6setNAKEv) for [Anonymous Symbol]
    lib.o(.ARM.exidx.text._ZN9EmbSysLib2Hw17USBdeviceEndpoint8readDataEv) refers to lib.o(.text._ZN9EmbSysLib2Hw17USBdeviceEndpoint8readDataEv) for [Anonymous Symbol]
    lib.o(.ARM.exidx.text._ZN9EmbSysLib2Hw17USBdeviceEndpoint15readAcknowledgeEv) refers to lib.o(.text._ZN9EmbSysLib2Hw17USBdeviceEndpoint15readAcknowledgeEv) for [Anonymous Symbol]
    lib.o(.ARM.exidx.text._ZN9EmbSysLib2Hw17USBdeviceEndpoint6clrNAKEv) refers to lib.o(.text._ZN9EmbSysLib2Hw17USBdeviceEndpoint6clrNAKEv) for [Anonymous Symbol]
    lib.o(.text._ZN9EmbSysLib2Hw18USBdeviceInterfaceC2ERNS0_9USBdeviceEhh) refers to lib.o(.rodata._ZTVN9EmbSysLib2Hw18USBdeviceInterfaceE) for vtable for EmbSysLib::Hw::USBdeviceInterface
    lib.o(.text._ZN9EmbSysLib2Hw18USBdeviceInterfaceC2ERNS0_9USBdeviceEhh) refers to new.cpp.o(.text._Znwj) for operator new(unsigned int)
    lib.o(.ARM.exidx.text._ZN9EmbSysLib2Hw18USBdeviceInterfaceC2ERNS0_9USBdeviceEhh) refers to lib.o(.text._ZN9EmbSysLib2Hw18USBdeviceInterfaceC2ERNS0_9USBdeviceEhh) for [Anonymous Symbol]
    lib.o(.ARM.exidx.text._ZN9EmbSysLib2Hw18USBdeviceInterface17startTransmissionEh) refers to lib.o(.text._ZN9EmbSysLib2Hw18USBdeviceInterface17startTransmissionEh) for [Anonymous Symbol]
    lib.o(.ARM.exidx.text._ZN9EmbSysLib3Dev6AnalogC2Ehff) refers to lib.o(.text._ZN9EmbSysLib3Dev6AnalogC2Ehff) for [Anonymous Symbol]
    lib.o(.text._ZN9EmbSysLib3Dev8AnalogInC2Ehff) refers to lib.o(.rodata._ZTVN9EmbSysLib3Dev8AnalogInE) for vtable for EmbSysLib::Dev::AnalogIn
    lib.o(.ARM.exidx.text._ZN9EmbSysLib3Dev8AnalogInC2Ehff) refers to lib.o(.text._ZN9EmbSysLib3Dev8AnalogInC2Ehff) for [Anonymous Symbol]
    lib.o(.ARM.exidx.text._ZN9EmbSysLib3Dev8AnalogIn9calibrateEffff) refers to lib.o(.text._ZN9EmbSysLib3Dev8AnalogIn9calibrateEffff) for [Anonymous Symbol]
    lib.o(.text._ZN9EmbSysLib3Dev11AnalogInAdcC2ERNS_2Hw3AdcEhffh) refers to lib.o(.rodata._ZTVN9EmbSysLib3Dev11AnalogInAdcE) for vtable for EmbSysLib::Dev::AnalogInAdc
    lib.o(.ARM.exidx.text._ZN9EmbSysLib3Dev11AnalogInAdcC2ERNS_2Hw3AdcEhffh) refers to lib.o(.text._ZN9EmbSysLib3Dev11AnalogInAdcC2ERNS_2Hw3AdcEhffh) for [Anonymous Symbol]
    lib.o(.ARM.exidx.text._ZN9EmbSysLib3Dev11AnalogInAdc6getRawEv) refers to lib.o(.text._ZN9EmbSysLib3Dev11AnalogInAdc6getRawEv) for [Anonymous Symbol]
    lib.o(.ARM.exidx.text._ZN9EmbSysLib3Dev11AnalogInAdc6enableEv) refers to lib.o(.text._ZN9EmbSysLib3Dev11AnalogInAdc6enableEv) for [Anonymous Symbol]
    lib.o(.text._ZN9EmbSysLib3Dev9AnalogOutC2Ehff) refers to lib.o(.rodata._ZTVN9EmbSysLib3Dev9AnalogOutE) for vtable for EmbSysLib::Dev::AnalogOut
    lib.o(.ARM.exidx.text._ZN9EmbSysLib3Dev9AnalogOutC2Ehff) refers to lib.o(.text._ZN9EmbSysLib3Dev9AnalogOutC2Ehff) for [Anonymous Symbol]
    lib.o(.ARM.exidx.text._ZN9EmbSysLib3Dev9AnalogOut3setEf) refers to lib.o(.text._ZN9EmbSysLib3Dev9AnalogOut3setEf) for [Anonymous Symbol]
    lib.o(.text._ZN9EmbSysLib3Dev12AnalogOutDacC2ERNS_2Hw3DacEhff) refers to lib.o(.rodata._ZTVN9EmbSysLib3Dev12AnalogOutDacE) for vtable for EmbSysLib::Dev::AnalogOutDac
    lib.o(.ARM.exidx.text._ZN9EmbSysLib3Dev12AnalogOutDacC2ERNS_2Hw3DacEhff) refers to lib.o(.text._ZN9EmbSysLib3Dev12AnalogOutDacC2ERNS_2Hw3DacEhff) for [Anonymous Symbol]
    lib.o(.ARM.exidx.text._ZN9EmbSysLib3Dev12AnalogOutDac6setRawEt) refers to lib.o(.text._ZN9EmbSysLib3Dev12AnalogOutDac6setRawEt) for [Anonymous Symbol]
    lib.o(.text._ZN9EmbSysLib3Dev12AnalogOutPWMC2ERNS_2Hw5TimerENS3_4ModeEhff) refers to lib.o(.rodata._ZTVN9EmbSysLib3Dev12AnalogOutPWME) for vtable for EmbSysLib::Dev::AnalogOutPWM
    lib.o(.ARM.exidx.text._ZN9EmbSysLib3Dev12AnalogOutPWMC2ERNS_2Hw5TimerENS3_4ModeEhff) refers to lib.o(.text._ZN9EmbSysLib3Dev12AnalogOutPWMC2ERNS_2Hw5TimerENS3_4ModeEhff) for [Anonymous Symbol]
    lib.o(.ARM.exidx.text._ZN9EmbSysLib3Dev12AnalogOutPWM6setRawEt) refers to lib.o(.text._ZN9EmbSysLib3Dev12AnalogOutPWM6setRawEt) for [Anonymous Symbol]
    lib.o(.text._ZN9EmbSysLib3Dev7DigitalC2ERNS_2Hw4PortEhNS1_4ModeEb) refers to lib.o(.rodata._ZTVN9EmbSysLib3Dev7DigitalE) for vtable for EmbSysLib::Dev::Digital
    lib.o(.text._ZN9EmbSysLib3Dev7DigitalC2ERNS_2Hw4PortEhNS1_4ModeEb) refers to lib.o(.rodata._ZTVN9EmbSysLib2Hw4Port3PinE) for vtable for EmbSysLib::Hw::Port::Pin
    lib.o(.ARM.exidx.text._ZN9EmbSysLib3Dev7DigitalC2ERNS_2Hw4PortEhNS1_4ModeEb) refers to lib.o(.text._ZN9EmbSysLib3Dev7DigitalC2ERNS_2Hw4PortEhNS1_4ModeEb) for [Anonymous Symbol]
    lib.o(.ARM.exidx.text._ZN9EmbSysLib3Dev7Digital7setModeENS1_4ModeE) refers to lib.o(.text._ZN9EmbSysLib3Dev7Digital7setModeENS1_4ModeE) for [Anonymous Symbol]
    lib.o(.ARM.exidx.text._ZN9EmbSysLib3Dev7Digital3setEb) refers to lib.o(.text._ZN9EmbSysLib3Dev7Digital3setEb) for [Anonymous Symbol]
    lib.o(.ARM.exidx.text._ZN9EmbSysLib3Dev7Digital3getEv) refers to lib.o(.text._ZN9EmbSysLib3Dev7Digital3getEv) for [Anonymous Symbol]
    lib.o(.text._ZN9EmbSysLib3Dev10ScreenCharC2ERNS_2Hw11DisplayCharE) refers to lib.o(.rodata._ZTVN9EmbSysLib3Dev10ScreenCharE) for vtable for EmbSysLib::Dev::ScreenChar
    lib.o(.text._ZN9EmbSysLib3Dev10ScreenCharC2ERNS_2Hw11DisplayCharE) refers to new.cpp.o(.text._Znaj) for operator new[](unsigned int)
    lib.o(.ARM.exidx.text._ZN9EmbSysLib3Dev10ScreenCharC2ERNS_2Hw11DisplayCharE) refers to lib.o(.text._ZN9EmbSysLib3Dev10ScreenCharC2ERNS_2Hw11DisplayCharE) for [Anonymous Symbol]
    lib.o(.ARM.exidx.text._ZN9EmbSysLib3Dev10ScreenChar5clearEv) refers to lib.o(.text._ZN9EmbSysLib3Dev10ScreenChar5clearEv) for [Anonymous Symbol]
    lib.o(.ARM.exidx.text._ZN9EmbSysLib3Dev10ScreenChar7refreshEv) refers to lib.o(.text._ZN9EmbSysLib3Dev10ScreenChar7refreshEv) for [Anonymous Symbol]
    lib.o(.text._ZN9EmbSysLib3Dev10ScreenChar6printfEhhPKcz) refers to vsnprintf.o(.text) for vsnprintf
    lib.o(.ARM.exidx.text._ZN9EmbSysLib3Dev10ScreenChar6printfEhhPKcz) refers to lib.o(.text._ZN9EmbSysLib3Dev10ScreenChar6printfEhhPKcz) for [Anonymous Symbol]
    lib.o(.text._ZN9EmbSysLib3Dev13ScreenGraphicC2ERNS_2Hw14DisplayGraphicE) refers to lib.o(.rodata._ZTVN9EmbSysLib3Dev13ScreenGraphicE) for vtable for EmbSysLib::Dev::ScreenGraphic
    lib.o(.text._ZN9EmbSysLib3Dev13ScreenGraphicC2ERNS_2Hw14DisplayGraphicE) refers to new.cpp.o(.text._Znaj) for operator new[](unsigned int)
    lib.o(.ARM.exidx.text._ZN9EmbSysLib3Dev13ScreenGraphicC2ERNS_2Hw14DisplayGraphicE) refers to lib.o(.text._ZN9EmbSysLib3Dev13ScreenGraphicC2ERNS_2Hw14DisplayGraphicE) for [Anonymous Symbol]
    lib.o(.ARM.exidx.text._ZN9EmbSysLib3Dev13ScreenGraphic5clearEv) refers to lib.o(.text._ZN9EmbSysLib3Dev13ScreenGraphic5clearEv) for [Anonymous Symbol]
    lib.o(.ARM.exidx.text._ZN9EmbSysLib3Dev13ScreenGraphic7refreshEv) refers to lib.o(.text._ZN9EmbSysLib3Dev13ScreenGraphic7refreshEv) for [Anonymous Symbol]
    lib.o(.text._ZN9EmbSysLib3Dev13ScreenGraphic6printfEhhPKcz) refers to vsnprintf.o(.text) for vsnprintf
    lib.o(.ARM.exidx.text._ZN9EmbSysLib3Dev13ScreenGraphic6printfEhhPKcz) refers to lib.o(.text._ZN9EmbSysLib3Dev13ScreenGraphic6printfEhhPKcz) for [Anonymous Symbol]
    lib.o(.ARM.exidx.text._ZN9EmbSysLib3Dev13ScreenGraphic7setFontENS_2Hw4FontEh) refers to lib.o(.text._ZN9EmbSysLib3Dev13ScreenGraphic7setFontENS_2Hw4FontEh) for [Anonymous Symbol]
    lib.o(.ARM.exidx.text._ZN9EmbSysLib3Dev13ScreenGraphic7setZoomEh) refers to lib.o(.text._ZN9EmbSysLib3Dev13ScreenGraphic7setZoomEh) for [Anonymous Symbol]
    lib.o(.ARM.exidx.text._ZN9EmbSysLib3Dev13ScreenGraphic12setBackColorEt) refers to lib.o(.text._ZN9EmbSysLib3Dev13ScreenGraphic12setBackColorEt) for [Anonymous Symbol]
    lib.o(.ARM.exidx.text._ZN9EmbSysLib3Dev13ScreenGraphic12setTextColorEt) refers to lib.o(.text._ZN9EmbSysLib3Dev13ScreenGraphic12setTextColorEt) for [Anonymous Symbol]
    lib.o(.text._ZN9EmbSysLib3Dev13ScreenGraphic8drawTextEttPKcz) refers to vsnprintf.o(.text) for vsnprintf
    lib.o(.ARM.exidx.text._ZN9EmbSysLib3Dev13ScreenGraphic8drawTextEttPKcz) refers to lib.o(.text._ZN9EmbSysLib3Dev13ScreenGraphic8drawTextEttPKcz) for [Anonymous Symbol]
    lib.o(.ARM.exidx.text._ZN9EmbSysLib3Dev13ScreenGraphic9drawPixelEttt) refers to lib.o(.text._ZN9EmbSysLib3Dev13ScreenGraphic9drawPixelEttt) for [Anonymous Symbol]
    lib.o(.ARM.exidx.text._ZN9EmbSysLib3Dev13ScreenGraphic13drawRectangleEttttt) refers to lib.o(.text._ZN9EmbSysLib3Dev13ScreenGraphic13drawRectangleEttttt) for [Anonymous Symbol]
    lib.o(.ARM.exidx.text._ZN9EmbSysLib3Dev13ScreenGraphic13drawRectangleEtttttt) refers to lib.o(.text._ZN9EmbSysLib3Dev13ScreenGraphic13drawRectangleEtttttt) for [Anonymous Symbol]
    lib.o(.ARM.exidx.text._ZN9EmbSysLib3Dev13ScreenGraphic10drawCircleEttttt) refers to lib.o(.text._ZN9EmbSysLib3Dev13ScreenGraphic10drawCircleEttttt) for [Anonymous Symbol]
    lib.o(.ARM.exidx.text._ZN9EmbSysLib3Dev13ScreenGraphic10drawCircleEtttt) refers to lib.o(.text._ZN9EmbSysLib3Dev13ScreenGraphic10drawCircleEtttt) for [Anonymous Symbol]
    lib.o(.ARM.exidx.text._ZN9EmbSysLib3Dev13ScreenGraphic8drawLineEtttttt) refers to lib.o(.text._ZN9EmbSysLib3Dev13ScreenGraphic8drawLineEtttttt) for [Anonymous Symbol]
    lib.o(.ARM.exidx.text._ZN9EmbSysLib3Dev13ScreenGraphic10drawBitmapEttRNS_2Hw6BitmapE) refers to lib.o(.text._ZN9EmbSysLib3Dev13ScreenGraphic10drawBitmapEttRNS_2Hw6BitmapE) for [Anonymous Symbol]
    lib.o(.text._ZN9EmbSysLib3Dev7PointerC2ERNS_2Hw5TouchE) refers to lib.o(.rodata._ZTVN9EmbSysLib3Dev7PointerE) for vtable for EmbSysLib::Dev::Pointer
    lib.o(.ARM.exidx.text._ZN9EmbSysLib3Dev7PointerC2ERNS_2Hw5TouchE) refers to lib.o(.text._ZN9EmbSysLib3Dev7PointerC2ERNS_2Hw5TouchE) for [Anonymous Symbol]
    lib.o(.ARM.exidx.text._ZN9EmbSysLib3Dev7Pointer3getEv) refers to lib.o(.text._ZN9EmbSysLib3Dev7Pointer3getEv) for [Anonymous Symbol]
    lib.o(.text._ZN9EmbSysLib3Dev11TaskManager5ClockC2ERS1_jt) refers to lib.o(.rodata._ZTVN9EmbSysLib3Dev11TaskManager5ClockE) for vtable for EmbSysLib::Dev::TaskManager::Clock
    lib.o(.text._ZN9EmbSysLib3Dev11TaskManager5ClockC2ERS1_jt) refers to lludivv7m.o(.text) for __aeabi_uldivmod
    lib.o(.ARM.exidx.text._ZN9EmbSysLib3Dev11TaskManager5ClockC2ERS1_jt) refers to lib.o(.text._ZN9EmbSysLib3Dev11TaskManager5ClockC2ERS1_jt) for [Anonymous Symbol]
    lib.o(.ARM.exidx.text._ZN9EmbSysLib3Dev11TaskManager5Clock7getTicsEv) refers to lib.o(.text._ZN9EmbSysLib3Dev11TaskManager5Clock7getTicsEv) for [Anonymous Symbol]
    lib.o(.ARM.exidx.text._ZN9EmbSysLib3Dev11TaskManager5Clock12getTimeOfTicEv) refers to lib.o(.text._ZN9EmbSysLib3Dev11TaskManager5Clock12getTimeOfTicEv) for [Anonymous Symbol]
    lib.o(.text._ZN9EmbSysLib3Dev8TerminalC2ERNS_2Hw4UartEttPKcS6_) refers to lib.o(.rodata._ZTVN9EmbSysLib3Dev8TerminalE) for vtable for EmbSysLib::Dev::Terminal
    lib.o(.text._ZN9EmbSysLib3Dev8TerminalC2ERNS_2Hw4UartEttPKcS6_) refers to new.cpp.o(.text._Znaj) for operator new[](unsigned int)
    lib.o(.ARM.exidx.text._ZN9EmbSysLib3Dev8TerminalC2ERNS_2Hw4UartEttPKcS6_) refers to lib.o(.text._ZN9EmbSysLib3Dev8TerminalC2ERNS_2Hw4UartEttPKcS6_) for [Anonymous Symbol]
    lib.o(.text._ZN9EmbSysLib3Dev8Terminal9getStringEv) refers to strchr.o(.text) for strchr
    lib.o(.text._ZN9EmbSysLib3Dev8Terminal9getStringEv) refers to lib.o(.text._ZN9EmbSysLib3Dev8Terminal3getEv) for EmbSysLib::Dev::Terminal::get()
    lib.o(.ARM.exidx.text._ZN9EmbSysLib3Dev8Terminal9getStringEv) refers to lib.o(.text._ZN9EmbSysLib3Dev8Terminal9getStringEv) for [Anonymous Symbol]
    lib.o(.ARM.exidx.text._ZN9EmbSysLib3Dev8Terminal3getEv) refers to lib.o(.text._ZN9EmbSysLib3Dev8Terminal3getEv) for [Anonymous Symbol]
    lib.o(.text._ZN9EmbSysLib3Dev8Terminal6printfEPKcz) refers to vsnprintf.o(.text) for vsnprintf
    lib.o(.text._ZN9EmbSysLib3Dev8Terminal6printfEPKcz) refers to strlen.o(.text) for strlen
    lib.o(.ARM.exidx.text._ZN9EmbSysLib3Dev8Terminal6printfEPKcz) refers to lib.o(.text._ZN9EmbSysLib3Dev8Terminal6printfEPKcz) for [Anonymous Symbol]
    lib.o(.text._ZN9EmbSysLib4Ctrl13DigitalButtonC2ERNS_3Dev7DigitalERNS2_11TaskManagerEtt) refers to lib.o(.rodata._ZTVN9EmbSysLib4Ctrl13DigitalButtonE) for vtable for EmbSysLib::Ctrl::DigitalButton
    lib.o(.ARM.exidx.text._ZN9EmbSysLib4Ctrl13DigitalButtonC2ERNS_3Dev7DigitalERNS2_11TaskManagerEtt) refers to lib.o(.text._ZN9EmbSysLib4Ctrl13DigitalButtonC2ERNS_3Dev7DigitalERNS2_11TaskManagerEtt) for [Anonymous Symbol]
    lib.o(.ARM.exidx.text._ZN9EmbSysLib4Ctrl13DigitalButton6updateEv) refers to lib.o(.text._ZN9EmbSysLib4Ctrl13DigitalButton6updateEv) for [Anonymous Symbol]
    lib.o(.ARM.exidx.text._ZN9EmbSysLib4Ctrl13DigitalButton9getActionEv) refers to lib.o(.text._ZN9EmbSysLib4Ctrl13DigitalButton9getActionEv) for [Anonymous Symbol]
    lib.o(.text._ZN9EmbSysLib4Ctrl14DigitalEncoderC2EPNS_3Dev7DigitalERNS2_11TaskManagerE) refers to lib.o(.rodata._ZTVN9EmbSysLib4Ctrl14DigitalEncoderE) for vtable for EmbSysLib::Ctrl::DigitalEncoder
    lib.o(.text._ZN9EmbSysLib4Ctrl14DigitalEncoderC2EPNS_3Dev7DigitalERNS2_11TaskManagerE) refers to new.cpp.o(.text._Znaj) for operator new[](unsigned int)
    lib.o(.ARM.exidx.text._ZN9EmbSysLib4Ctrl14DigitalEncoderC2EPNS_3Dev7DigitalERNS2_11TaskManagerE) refers to lib.o(.text._ZN9EmbSysLib4Ctrl14DigitalEncoderC2EPNS_3Dev7DigitalERNS2_11TaskManagerE) for [Anonymous Symbol]
    lib.o(.text._ZN9EmbSysLib4Ctrl14DigitalEncoder8getEventEv) refers to lib.o(.bss._ZN9EmbSysLib2Hw6System12cntInterruptE) for EmbSysLib::Hw::System::cntInterrupt
    lib.o(.ARM.exidx.text._ZN9EmbSysLib4Ctrl14DigitalEncoder8getEventEv) refers to lib.o(.text._ZN9EmbSysLib4Ctrl14DigitalEncoder8getEventEv) for [Anonymous Symbol]
    lib.o(.text._ZN9EmbSysLib4Ctrl14DigitalEncoder6updateEv) refers to lib.o(.bss._ZN9EmbSysLib2Hw6System12cntInterruptE) for EmbSysLib::Hw::System::cntInterrupt
    lib.o(.ARM.exidx.text._ZN9EmbSysLib4Ctrl14DigitalEncoder6updateEv) refers to lib.o(.text._ZN9EmbSysLib4Ctrl14DigitalEncoder6updateEv) for [Anonymous Symbol]
    lib.o(.ARM.exidx.text._ZN9EmbSysLib4Ctrl14DigitalEncoder7getCtrlEv) refers to lib.o(.text._ZN9EmbSysLib4Ctrl14DigitalEncoder7getCtrlEv) for [Anonymous Symbol]
    lib.o(.text._ZN9EmbSysLib4Ctrl22DigitalEncoderJoystickC2EPNS_3Dev7DigitalES4_S4_RNS2_11TaskManagerEt) refers to lib.o(.rodata._ZTVN9EmbSysLib4Ctrl14DigitalEncoderE) for vtable for EmbSysLib::Ctrl::DigitalEncoder
    lib.o(.text._ZN9EmbSysLib4Ctrl22DigitalEncoderJoystickC2EPNS_3Dev7DigitalES4_S4_RNS2_11TaskManagerEt) refers to new.cpp.o(.text._Znaj) for operator new[](unsigned int)
    lib.o(.text._ZN9EmbSysLib4Ctrl22DigitalEncoderJoystickC2EPNS_3Dev7DigitalES4_S4_RNS2_11TaskManagerEt) refers to lib.o(.rodata._ZTVN9EmbSysLib4Ctrl22DigitalEncoderJoystickE) for vtable for EmbSysLib::Ctrl::DigitalEncoderJoystick
    lib.o(.ARM.exidx.text._ZN9EmbSysLib4Ctrl22DigitalEncoderJoystickC2EPNS_3Dev7DigitalES4_S4_RNS2_11TaskManagerEt) refers to lib.o(.text._ZN9EmbSysLib4Ctrl22DigitalEncoderJoystickC2EPNS_3Dev7DigitalES4_S4_RNS2_11TaskManagerEt) for [Anonymous Symbol]
    lib.o(.ARM.exidx.text._ZN9EmbSysLib4Ctrl22DigitalEncoderJoystick12getIncrementEv) refers to lib.o(.text._ZN9EmbSysLib4Ctrl22DigitalEncoderJoystick12getIncrementEv) for [Anonymous Symbol]
    lib.o(.text._ZN9EmbSysLib4Ctrl24DigitalEncoderRotaryknobC2EPNS_3Dev7DigitalES4_S4_RNS2_11TaskManagerE) refers to lib.o(.rodata._ZTVN9EmbSysLib4Ctrl14DigitalEncoderE) for vtable for EmbSysLib::Ctrl::DigitalEncoder
    lib.o(.text._ZN9EmbSysLib4Ctrl24DigitalEncoderRotaryknobC2EPNS_3Dev7DigitalES4_S4_RNS2_11TaskManagerE) refers to new.cpp.o(.text._Znaj) for operator new[](unsigned int)
    lib.o(.text._ZN9EmbSysLib4Ctrl24DigitalEncoderRotaryknobC2EPNS_3Dev7DigitalES4_S4_RNS2_11TaskManagerE) refers to lib.o(.rodata._ZTVN9EmbSysLib4Ctrl24DigitalEncoderRotaryknobE) for vtable for EmbSysLib::Ctrl::DigitalEncoderRotaryknob
    lib.o(.ARM.exidx.text._ZN9EmbSysLib4Ctrl24DigitalEncoderRotaryknobC2EPNS_3Dev7DigitalES4_S4_RNS2_11TaskManagerE) refers to lib.o(.text._ZN9EmbSysLib4Ctrl24DigitalEncoderRotaryknobC2EPNS_3Dev7DigitalES4_S4_RNS2_11TaskManagerE) for [Anonymous Symbol]
    lib.o(.ARM.exidx.text._ZN9EmbSysLib4Ctrl24DigitalEncoderRotaryknob12getIncrementEv) refers to lib.o(.text._ZN9EmbSysLib4Ctrl24DigitalEncoderRotaryknob12getIncrementEv) for [Anonymous Symbol]
    lib.o(.text._ZN9EmbSysLib4Ctrl16DigitalIndicatorC2ERNS_3Dev7DigitalERNS2_11TaskManagerE) refers to lib.o(.rodata._ZTVN9EmbSysLib4Ctrl16DigitalIndicatorE) for vtable for EmbSysLib::Ctrl::DigitalIndicator
    lib.o(.ARM.exidx.text._ZN9EmbSysLib4Ctrl16DigitalIndicatorC2ERNS_3Dev7DigitalERNS2_11TaskManagerE) refers to lib.o(.text._ZN9EmbSysLib4Ctrl16DigitalIndicatorC2ERNS_3Dev7DigitalERNS2_11TaskManagerE) for [Anonymous Symbol]
    lib.o(.ARM.exidx.text._ZN9EmbSysLib4Ctrl16DigitalIndicator6updateEv) refers to lib.o(.text._ZN9EmbSysLib4Ctrl16DigitalIndicator6updateEv) for [Anonymous Symbol]
    lib.o(.ARM.exidx.text._ZN9EmbSysLib4Ctrl16DigitalIndicator3clrEv) refers to lib.o(.text._ZN9EmbSysLib4Ctrl16DigitalIndicator3clrEv) for [Anonymous Symbol]
    lib.o(.ARM.exidx.text._ZN9EmbSysLib4Ctrl16DigitalIndicator7triggerEt) refers to lib.o(.text._ZN9EmbSysLib4Ctrl16DigitalIndicator7triggerEt) for [Anonymous Symbol]
    lib.o(.ARM.exidx.text._ZN9EmbSysLib4Ctrl16DigitalIndicator5blinkEtt) refers to lib.o(.text._ZN9EmbSysLib4Ctrl16DigitalIndicator5blinkEtt) for [Anonymous Symbol]
    lib.o(.text._ZN9EmbSysLib3Mod8USB_Uart13CtrlInterfaceC2ERNS_2Hw9USBdeviceEhRNS_3Std4FlagINS1_20connectionState_enumEEE) refers to lib.o(.text._ZN9EmbSysLib2Hw18USBdeviceInterfaceC2ERNS0_9USBdeviceEhh) for EmbSysLib::Hw::USBdeviceInterface::USBdeviceInterface__sub_object(EmbSysLib::Hw::USBdevice&, unsigned char, unsigned char)
    lib.o(.text._ZN9EmbSysLib3Mod8USB_Uart13CtrlInterfaceC2ERNS_2Hw9USBdeviceEhRNS_3Std4FlagINS1_20connectionState_enumEEE) refers to lib.o(.rodata._ZTVN9EmbSysLib3Mod8USB_Uart13CtrlInterfaceE) for vtable for EmbSysLib::Mod::USB_Uart::CtrlInterface
    lib.o(.ARM.exidx.text._ZN9EmbSysLib3Mod8USB_Uart13CtrlInterfaceC2ERNS_2Hw9USBdeviceEhRNS_3Std4FlagINS1_20connectionState_enumEEE) refers to lib.o(.text._ZN9EmbSysLib3Mod8USB_Uart13CtrlInterfaceC2ERNS_2Hw9USBdeviceEhRNS_3Std4FlagINS1_20connectionState_enumEEE) for [Anonymous Symbol]
    lib.o(.ARM.exidx.text._ZN9EmbSysLib3Mod8USB_Uart13CtrlInterface7onStartEv) refers to lib.o(.text._ZN9EmbSysLib3Mod8USB_Uart13CtrlInterface7onStartEv) for [Anonymous Symbol]
    lib.o(.ARM.exidx.text._ZN9EmbSysLib3Mod8USB_Uart13CtrlInterface6onStopEv) refers to lib.o(.text._ZN9EmbSysLib3Mod8USB_Uart13CtrlInterface6onStopEv) for [Anonymous Symbol]
    lib.o(.ARM.exidx.text._ZN9EmbSysLib3Mod8USB_Uart13CtrlInterface16onRequestCtrl_INERNS_3Std11DataPointerEhtt) refers to lib.o(.text._ZN9EmbSysLib3Mod8USB_Uart13CtrlInterface16onRequestCtrl_INERNS_3Std11DataPointerEhtt) for [Anonymous Symbol]
    lib.o(.ARM.exidx.text._ZN9EmbSysLib3Mod8USB_Uart13CtrlInterface10onTransmitEhRNS_3Std11DataPointerE) refers to lib.o(.text._ZN9EmbSysLib3Mod8USB_Uart13CtrlInterface10onTransmitEhRNS_3Std11DataPointerE) for [Anonymous Symbol]
    lib.o(.ARM.exidx.text._ZN9EmbSysLib3Mod8USB_Uart13CtrlInterface17onRequestCtrl_OUTERNS_3Std11DataPointerEhtt) refers to lib.o(.text._ZN9EmbSysLib3Mod8USB_Uart13CtrlInterface17onRequestCtrl_OUTERNS_3Std11DataPointerEhtt) for [Anonymous Symbol]
    lib.o(.text._ZN9EmbSysLib3Mod8USB_UartC2ERNS_2Hw9USBdeviceEhhh) refers to lib.o(.text._ZN9EmbSysLib2Hw18USBdeviceInterfaceC2ERNS0_9USBdeviceEhh) for EmbSysLib::Hw::USBdeviceInterface::USBdeviceInterface__sub_object(EmbSysLib::Hw::USBdevice&, unsigned char, unsigned char)
    lib.o(.text._ZN9EmbSysLib3Mod8USB_UartC2ERNS_2Hw9USBdeviceEhhh) refers to new.cpp.o(.text._Znaj) for operator new[](unsigned int)
    lib.o(.text._ZN9EmbSysLib3Mod8USB_UartC2ERNS_2Hw9USBdeviceEhhh) refers to lib.o(.rodata._ZTVN9EmbSysLib3Mod8USB_UartE) for vtable for EmbSysLib::Mod::USB_Uart
    lib.o(.text._ZN9EmbSysLib3Mod8USB_UartC2ERNS_2Hw9USBdeviceEhhh) refers to lib.o(.rodata._ZTVN9EmbSysLib3Mod8USB_Uart13CtrlInterfaceE) for vtable for EmbSysLib::Mod::USB_Uart::CtrlInterface
    lib.o(.ARM.exidx.text._ZN9EmbSysLib3Mod8USB_UartC2ERNS_2Hw9USBdeviceEhhh) refers to lib.o(.text._ZN9EmbSysLib3Mod8USB_UartC2ERNS_2Hw9USBdeviceEhhh) for [Anonymous Symbol]
    lib.o(.ARM.exidx.text._ZN9EmbSysLib3Mod8USB_Uart16onConfigEndpointEhRNS_3Std11DataPointerEt) refers to lib.o(.text._ZN9EmbSysLib3Mod8USB_Uart16onConfigEndpointEhRNS_3Std11DataPointerEt) for [Anonymous Symbol]
    lib.o(.text._ZN9EmbSysLib3Mod8USB_Uart10onTransmitEhRNS_3Std11DataPointerE) refers to lib.o(.bss._ZN9EmbSysLib2Hw6System12cntInterruptE) for EmbSysLib::Hw::System::cntInterrupt
    lib.o(.ARM.exidx.text._ZN9EmbSysLib3Mod8USB_Uart10onTransmitEhRNS_3Std11DataPointerE) refers to lib.o(.text._ZN9EmbSysLib3Mod8USB_Uart10onTransmitEhRNS_3Std11DataPointerE) for [Anonymous Symbol]
    lib.o(.text._ZN9EmbSysLib3Mod8USB_Uart9onReceiveEhtRNS_3Std11DataPointerE) refers to lib.o(.bss._ZN9EmbSysLib2Hw6System12cntInterruptE) for EmbSysLib::Hw::System::cntInterrupt
    lib.o(.ARM.exidx.text._ZN9EmbSysLib3Mod8USB_Uart9onReceiveEhtRNS_3Std11DataPointerE) refers to lib.o(.text._ZN9EmbSysLib3Mod8USB_Uart9onReceiveEhtRNS_3Std11DataPointerE) for [Anonymous Symbol]
    lib.o(.text._ZN9EmbSysLib3Mod17USBinterfClassHIDC2ERNS_2Hw9USBdeviceEhhNS_3Std11DataPointerES6_) refers to lib.o(.text._ZN9EmbSysLib2Hw18USBdeviceInterfaceC2ERNS0_9USBdeviceEhh) for EmbSysLib::Hw::USBdeviceInterface::USBdeviceInterface__sub_object(EmbSysLib::Hw::USBdevice&, unsigned char, unsigned char)
    lib.o(.text._ZN9EmbSysLib3Mod17USBinterfClassHIDC2ERNS_2Hw9USBdeviceEhhNS_3Std11DataPointerES6_) refers to lib.o(.rodata._ZTVN9EmbSysLib3Mod17USBinterfClassHIDE) for vtable for EmbSysLib::Mod::USBinterfClassHID
    lib.o(.ARM.exidx.text._ZN9EmbSysLib3Mod17USBinterfClassHIDC2ERNS_2Hw9USBdeviceEhhNS_3Std11DataPointerES6_) refers to lib.o(.text._ZN9EmbSysLib3Mod17USBinterfClassHIDC2ERNS_2Hw9USBdeviceEhhNS_3Std11DataPointerES6_) for [Anonymous Symbol]
    lib.o(.ARM.exidx.text._ZN9EmbSysLib3Mod17USBinterfClassHID15onGetDescriptorEt) refers to lib.o(.text._ZN9EmbSysLib3Mod17USBinterfClassHID15onGetDescriptorEt) for [Anonymous Symbol]
    lib.o(.ARM.exidx.text._ZN9EmbSysLib3Mod17USBinterfClassHID16onConfigEndpointEhRNS_3Std11DataPointerEt) refers to lib.o(.text._ZN9EmbSysLib3Mod17USBinterfClassHID16onConfigEndpointEhRNS_3Std11DataPointerEt) for [Anonymous Symbol]
    lib.o(.ARM.exidx.text._ZN9EmbSysLib3Mod17USBinterfClassHID10onTransmitEhRNS_3Std11DataPointerE) refers to lib.o(.text._ZN9EmbSysLib3Mod17USBinterfClassHID10onTransmitEhRNS_3Std11DataPointerE) for [Anonymous Symbol]
    lib.o(.ARM.exidx.text._ZN9EmbSysLib3Mod17USBinterfClassHID13onReceiveCtrlEt) refers to lib.o(.text._ZN9EmbSysLib3Mod17USBinterfClassHID13onReceiveCtrlEt) for [Anonymous Symbol]
    lib.o(.ARM.exidx.text._ZN9EmbSysLib3Mod17USBinterfClassHID16onRequestCtrl_INERNS_3Std11DataPointerEhtt) refers to lib.o(.text._ZN9EmbSysLib3Mod17USBinterfClassHID16onRequestCtrl_INERNS_3Std11DataPointerEhtt) for [Anonymous Symbol]
    lib.o(.ARM.exidx.text._ZN9EmbSysLib3Mod17USBinterfClassHID17onRequestCtrl_OUTERNS_3Std11DataPointerEhtt) refers to lib.o(.text._ZN9EmbSysLib3Mod17USBinterfClassHID17onRequestCtrl_OUTERNS_3Std11DataPointerEhtt) for [Anonymous Symbol]
    lib.o(.rodata._ZTVN9EmbSysLib2Hw7Adc_McuE) refers to lib.o(.text._ZN9EmbSysLib2Hw3Adc6updateEv) for EmbSysLib::Hw::Adc::update()
    lib.o(.rodata._ZTVN9EmbSysLib2Hw7Adc_McuE) refers to lib.o(.text._ZN9EmbSysLib2Hw3Adc6enableEhh) for EmbSysLib::Hw::Adc::enable(unsigned char, unsigned char)
    lib.o(.rodata._ZTVN9EmbSysLib2Hw7Adc_McuE) refers to lib.o(.text._ZN9EmbSysLib2Hw3Adc3getEh) for EmbSysLib::Hw::Adc::get(unsigned char)
    lib.o(.rodata._ZTVN9EmbSysLib2Hw7Adc_McuE) refers to lib.o(.text._ZN9EmbSysLib2Hw3Adc3isrEv) for EmbSysLib::Hw::Adc::isr()
    lib.o(.rodata._ZTVN9EmbSysLib2Hw7Adc_McuE) refers to lib.o(.text._ZN9EmbSysLib2Hw7Adc_Mcu9getResultEv) for EmbSysLib::Hw::Adc_Mcu::getResult()
    lib.o(.rodata._ZTVN9EmbSysLib2Hw7Adc_McuE) refers to lib.o(.text._ZN9EmbSysLib2Hw7Adc_Mcu7startChEh) for EmbSysLib::Hw::Adc_Mcu::startCh(unsigned char)
    lib.o(.rodata._ZTVN9EmbSysLib2Hw7Adc_McuE) refers to lib.o(.text._ZN9EmbSysLib2Hw7Adc_Mcu8configChEhh) for EmbSysLib::Hw::Adc_Mcu::configCh(unsigned char, unsigned char)
    lib.o(.rodata._ZTVN9EmbSysLib2Hw12Ethernet_McuE) refers to lib.o(.text._ZN9EmbSysLib2Hw3Net6updateEv) for EmbSysLib::Hw::Net::update()
    lib.o(.rodata._ZTVN9EmbSysLib2Hw12Ethernet_McuE) refers to lib.o(.text._ZN9EmbSysLib2Hw3Net7addTaskERNS1_4TaskE) for EmbSysLib::Hw::Net::addTask(EmbSysLib::Hw::Net::Task&)
    lib.o(.rodata._ZTVN9EmbSysLib2Hw12Ethernet_McuE) refers to lib.o(.text._ZN9EmbSysLib2Hw8Ethernet5getIPEv) for EmbSysLib::Hw::Ethernet::getIP()
    lib.o(.rodata._ZTVN9EmbSysLib2Hw12Ethernet_McuE) refers to lib.o(.text._ZN9EmbSysLib2Hw8Ethernet7processEv) for EmbSysLib::Hw::Ethernet::process()
    lib.o(.rodata._ZTVN9EmbSysLib2Hw12Ethernet_McuE) refers to lib.o(.text._ZN9EmbSysLib2Hw12Ethernet_Mcu6createENS0_7NetAddrILh6EEEt) for EmbSysLib::Hw::Ethernet_Mcu::create(EmbSysLib::Hw::NetAddr<(unsigned char)6>, unsigned short)
    lib.o(.rodata._ZTVN9EmbSysLib2Hw12Ethernet_McuE) refers to lib.o(.text._ZN9EmbSysLib2Hw12Ethernet_Mcu10PacketSendEPht) for EmbSysLib::Hw::Ethernet_Mcu::PacketSend(unsigned char*, unsigned short)
    lib.o(.rodata._ZTVN9EmbSysLib2Hw12Ethernet_McuE) refers to lib.o(.text._ZN9EmbSysLib2Hw12Ethernet_Mcu13PacketReceiveEv) for EmbSysLib::Hw::Ethernet_Mcu::PacketReceive()
    lib.o(.rodata._ZTVN9EmbSysLib2Hw12Ethernet_McuE) refers to lib.o(.text._ZN9EmbSysLib2Hw12Ethernet_Mcu7getTypeEv) for EmbSysLib::Hw::Ethernet_Mcu::getType()
    lib.o(.rodata._ZTVN9EmbSysLib2Hw12Memory_BKRAME) refers to lib.o(.text._ZN9EmbSysLib2Hw12Memory_BKRAM6unlockEv) for EmbSysLib::Hw::Memory_BKRAM::unlock()
    lib.o(.rodata._ZTVN9EmbSysLib2Hw12Memory_BKRAME) refers to lib.o(.text._ZN9EmbSysLib2Hw12Memory_BKRAM4lockEv) for EmbSysLib::Hw::Memory_BKRAM::lock()
    lib.o(.rodata._ZTVN9EmbSysLib2Hw12Memory_BKRAME) refers to lib.o(.text._ZN9EmbSysLib2Hw12Memory_BKRAM6getPtrEv) for EmbSysLib::Hw::Memory_BKRAM::getPtr()
    lib.o(.rodata._ZTVN9EmbSysLib2Hw12Memory_BKRAME) refers to lib.o(.text._ZN9EmbSysLib2Hw6Memory5writeEjh) for EmbSysLib::Hw::Memory::write(unsigned int, unsigned char)
    lib.o(.rodata._ZTVN9EmbSysLib2Hw12Memory_BKRAME) refers to lib.o(.text._ZN9EmbSysLib2Hw6Memory4readEj) for EmbSysLib::Hw::Memory::read(unsigned int)
    lib.o(.rodata._ZTVN9EmbSysLib2Hw12Memory_BKRAME) refers to lib.o(.text._ZN9EmbSysLib2Hw6Memory5eraseEv) for EmbSysLib::Hw::Memory::erase()
    lib.o(.rodata._ZTVN9EmbSysLib2Hw12Memory_BKRAME) refers to lib.o(.text._ZNK9EmbSysLib2Hw6Memory7getSizeEv) for EmbSysLib::Hw::Memory::getSize() const
    lib.o(.rodata._ZTVN9EmbSysLib2Hw12Memory_BKRAME) refers to lib.o(.text._ZNK9EmbSysLib2Hw6Memory7isFlashEv) for EmbSysLib::Hw::Memory::isFlash() const
    lib.o(.rodata._ZTVN9EmbSysLib2Hw12Memory_BKRAME) refers to lib.o(.text._ZN9EmbSysLib2Hw12Memory_BKRAM9writeByteEjh) for EmbSysLib::Hw::Memory_BKRAM::writeByte(unsigned int, unsigned char)
    lib.o(.rodata._ZTVN9EmbSysLib2Hw12Memory_BKRAME) refers to lib.o(.text._ZN9EmbSysLib2Hw12Memory_BKRAM8readByteEj) for EmbSysLib::Hw::Memory_BKRAM::readByte(unsigned int)
    lib.o(.rodata._ZTVN9EmbSysLib2Hw12Memory_FlashE) refers to lib.o(.text._ZN9EmbSysLib2Hw12Memory_Flash6unlockEv) for EmbSysLib::Hw::Memory_Flash::unlock()
    lib.o(.rodata._ZTVN9EmbSysLib2Hw12Memory_FlashE) refers to lib.o(.text._ZN9EmbSysLib2Hw12Memory_Flash4lockEv) for EmbSysLib::Hw::Memory_Flash::lock()
    lib.o(.rodata._ZTVN9EmbSysLib2Hw12Memory_FlashE) refers to lib.o(.text._ZN9EmbSysLib2Hw12Memory_Flash6getPtrEv) for EmbSysLib::Hw::Memory_Flash::getPtr()
    lib.o(.rodata._ZTVN9EmbSysLib2Hw12Memory_FlashE) refers to lib.o(.text._ZN9EmbSysLib2Hw6Memory5writeEjh) for EmbSysLib::Hw::Memory::write(unsigned int, unsigned char)
    lib.o(.rodata._ZTVN9EmbSysLib2Hw12Memory_FlashE) refers to lib.o(.text._ZN9EmbSysLib2Hw6Memory4readEj) for EmbSysLib::Hw::Memory::read(unsigned int)
    lib.o(.rodata._ZTVN9EmbSysLib2Hw12Memory_FlashE) refers to lib.o(.text._ZN9EmbSysLib2Hw12Memory_Flash5eraseEv) for EmbSysLib::Hw::Memory_Flash::erase()
    lib.o(.rodata._ZTVN9EmbSysLib2Hw12Memory_FlashE) refers to lib.o(.text._ZNK9EmbSysLib2Hw6Memory7getSizeEv) for EmbSysLib::Hw::Memory::getSize() const
    lib.o(.rodata._ZTVN9EmbSysLib2Hw12Memory_FlashE) refers to lib.o(.text._ZNK9EmbSysLib2Hw6Memory7isFlashEv) for EmbSysLib::Hw::Memory::isFlash() const
    lib.o(.rodata._ZTVN9EmbSysLib2Hw12Memory_FlashE) refers to lib.o(.text._ZN9EmbSysLib2Hw12Memory_Flash9writeByteEjh) for EmbSysLib::Hw::Memory_Flash::writeByte(unsigned int, unsigned char)
    lib.o(.rodata._ZTVN9EmbSysLib2Hw12Memory_FlashE) refers to lib.o(.text._ZN9EmbSysLib2Hw12Memory_Flash8readByteEj) for EmbSysLib::Hw::Memory_Flash::readByte(unsigned int)
    lib.o(.rodata._ZTVN9EmbSysLib2Hw8Port_McuE) refers to lib.o(.text._ZN9EmbSysLib2Hw8Port_Mcu7setModeEjNS0_4Port4ModeE) for EmbSysLib::Hw::Port_Mcu::setMode(unsigned int, EmbSysLib::Hw::Port::Mode)
    lib.o(.rodata._ZTVN9EmbSysLib2Hw8Port_McuE) refers to lib.o(.text._ZN9EmbSysLib2Hw8Port_Mcu10setPinModeEhNS0_4Port4ModeE) for EmbSysLib::Hw::Port_Mcu::setPinMode(unsigned char, EmbSysLib::Hw::Port::Mode)
    lib.o(.rodata._ZTVN9EmbSysLib2Hw8Port_McuE) refers to lib.o(.text._ZN9EmbSysLib2Hw8Port_Mcu3setEj) for EmbSysLib::Hw::Port_Mcu::set(unsigned int)
    lib.o(.rodata._ZTVN9EmbSysLib2Hw8Port_McuE) refers to lib.o(.text._ZN9EmbSysLib2Hw8Port_Mcu3setEjj) for EmbSysLib::Hw::Port_Mcu::set(unsigned int, unsigned int)
    lib.o(.rodata._ZTVN9EmbSysLib2Hw8Port_McuE) refers to lib.o(.text._ZN9EmbSysLib2Hw8Port_Mcu3clrEj) for EmbSysLib::Hw::Port_Mcu::clr(unsigned int)
    lib.o(.rodata._ZTVN9EmbSysLib2Hw8Port_McuE) refers to lib.o(.text._ZN9EmbSysLib2Hw8Port_Mcu3getEv) for EmbSysLib::Hw::Port_Mcu::get()
    lib.o(.rodata._ZTVN9EmbSysLib2Hw7Rtc_McuE) refers to lib.o(.text._ZN9EmbSysLib2Hw7Rtc_Mcu3setERKNS0_3Rtc10PropertiesE) for EmbSysLib::Hw::Rtc_Mcu::set(EmbSysLib::Hw::Rtc::Properties const&)
    lib.o(.rodata._ZTVN9EmbSysLib2Hw7Rtc_McuE) refers to lib.o(.text._ZN9EmbSysLib2Hw7Rtc_Mcu3getERNS0_3Rtc10PropertiesE) for EmbSysLib::Hw::Rtc_Mcu::get(EmbSysLib::Hw::Rtc::Properties&)
    lib.o(.rodata._ZTVN9EmbSysLib2Hw9Timer_McuE) refers to lib.o(.text._ZN9EmbSysLib2Hw5Timer12getCycleTimeEv) for EmbSysLib::Hw::Timer::getCycleTime()
    lib.o(.rodata._ZTVN9EmbSysLib2Hw9Timer_McuE) refers to lib.o(.text._ZN9EmbSysLib2Hw5Timer3addEPNS1_4TaskE) for EmbSysLib::Hw::Timer::add(EmbSysLib::Hw::Timer::Task*)
    lib.o(.rodata._ZTVN9EmbSysLib2Hw9Timer_McuE) refers to lib.o(.text._ZN9EmbSysLib2Hw9Timer_Mcu9enablePWMEhNS0_5Timer4ModeE) for EmbSysLib::Hw::Timer_Mcu::enablePWM(unsigned char, EmbSysLib::Hw::Timer::Mode)
    lib.o(.rodata._ZTVN9EmbSysLib2Hw9Timer_McuE) refers to lib.o(.text._ZN9EmbSysLib2Hw9Timer_Mcu6setPWMEht) for EmbSysLib::Hw::Timer_Mcu::setPWM(unsigned char, unsigned short)
    lib.o(.rodata._ZTVN9EmbSysLib2Hw9Timer_McuE) refers to lib.o(.text._ZN9EmbSysLib2Hw5Timer10isrHandlerEv) for EmbSysLib::Hw::Timer::isrHandler()
    lib.o(.rodata._ZTVN9EmbSysLib2Hw8Uart_McuE) refers to lib.o(.text._ZN9EmbSysLib2Hw4Uart3setEh) for EmbSysLib::Hw::Uart::set(unsigned char)
    lib.o(.rodata._ZTVN9EmbSysLib2Hw8Uart_McuE) refers to lib.o(.text._ZN9EmbSysLib2Hw4Uart3setEPKht) for EmbSysLib::Hw::Uart::set(unsigned char const*, unsigned short)
    lib.o(.rodata._ZTVN9EmbSysLib2Hw8Uart_McuE) refers to lib.o(.text._ZN9EmbSysLib2Hw4Uart3setEPKc) for EmbSysLib::Hw::Uart::set(char const*)
    lib.o(.rodata._ZTVN9EmbSysLib2Hw8Uart_McuE) refers to lib.o(.text._ZN9EmbSysLib2Hw4Uart14isTxBufferFullEv) for EmbSysLib::Hw::Uart::isTxBufferFull()
    lib.o(.rodata._ZTVN9EmbSysLib2Hw8Uart_McuE) refers to lib.o(.text._ZN9EmbSysLib2Hw4Uart20getFifoRemainingSizeEv) for EmbSysLib::Hw::Uart::getFifoRemainingSize()
    lib.o(.rodata._ZTVN9EmbSysLib2Hw8Uart_McuE) refers to lib.o(.text._ZN9EmbSysLib2Hw4Uart3getERh) for EmbSysLib::Hw::Uart::get(unsigned char&)
    lib.o(.rodata._ZTVN9EmbSysLib2Hw8Uart_McuE) refers to lib.o(.text._ZN9EmbSysLib2Hw4Uart3getEv) for EmbSysLib::Hw::Uart::get()
    lib.o(.rodata._ZTVN9EmbSysLib2Hw8Uart_McuE) refers to lib.o(.text._ZN9EmbSysLib2Hw4Uart5isrRxEv) for EmbSysLib::Hw::Uart::isrRx()
    lib.o(.rodata._ZTVN9EmbSysLib2Hw8Uart_McuE) refers to lib.o(.text._ZN9EmbSysLib2Hw4Uart5isrTxEv) for EmbSysLib::Hw::Uart::isrTx()
    lib.o(.rodata._ZTVN9EmbSysLib2Hw8Uart_McuE) refers to lib.o(.text._ZN9EmbSysLib2Hw4Uart12transmitByteEh) for EmbSysLib::Hw::Uart::transmitByte(unsigned char)
    lib.o(.rodata._ZTVN9EmbSysLib2Hw8Uart_McuE) refers to lib.o(.text._ZN9EmbSysLib2Hw8Uart_Mcu7setByteEh) for EmbSysLib::Hw::Uart_Mcu::setByte(unsigned char)
    lib.o(.rodata._ZTVN9EmbSysLib2Hw8Uart_McuE) refers to lib.o(.text._ZN9EmbSysLib2Hw8Uart_Mcu7getByteEv) for EmbSysLib::Hw::Uart_Mcu::getByte()
    lib.o(.rodata._ZTVN9EmbSysLib2Hw8Uart_McuE) refers to lib.o(.text._ZN9EmbSysLib2Hw8Uart_Mcu11setBaudrateEj) for EmbSysLib::Hw::Uart_Mcu::setBaudrate(unsigned int)
    lib.o(.rodata._ZTVN9EmbSysLib2Hw13USBdevice_McuE) refers to lib.o(.text._ZN9EmbSysLib2Hw9USBdevice12eventHandlerEhh) for EmbSysLib::Hw::USBdevice::eventHandler(unsigned char, unsigned char)
    lib.o(.rodata._ZTVN9EmbSysLib2Hw13USBdevice_McuE) refers to lib.o(.text._ZN9EmbSysLib2Hw9USBdevice7suspendEv) for EmbSysLib::Hw::USBdevice::suspend()
    lib.o(.rodata._ZTVN9EmbSysLib2Hw13USBdevice_McuE) refers to lib.o(.text._ZN9EmbSysLib2Hw13USBdevice_Mcu5startEv) for EmbSysLib::Hw::USBdevice_Mcu::start()
    lib.o(.rodata._ZTVN9EmbSysLib2Hw13USBdevice_McuE) refers to lib.o(.text._ZN9EmbSysLib2Hw13USBdevice_Mcu5resetEv) for EmbSysLib::Hw::USBdevice_Mcu::reset()
    lib.o(.rodata._ZTVN9EmbSysLib2Hw13USBdevice_McuE) refers to lib.o(.text._ZN9EmbSysLib2Hw13USBdevice_Mcu9configureEh) for EmbSysLib::Hw::USBdevice_Mcu::configure(unsigned char)
    lib.o(.rodata._ZTVN9EmbSysLib2Hw13USBdevice_McuE) refers to lib.o(.text._ZN9EmbSysLib2Hw13USBdevice_Mcu10setAddressEh) for EmbSysLib::Hw::USBdevice_Mcu::setAddress(unsigned char)
    lib.o(.rodata._ZTVN9EmbSysLib2Hw13USBdevice_McuE) refers to lib.o(.text._ZN9EmbSysLib2Hw13USBdevice_Mcu8configEPEhth) for EmbSysLib::Hw::USBdevice_Mcu::configEP(unsigned char, unsigned short, unsigned char)
    lib.o(.rodata._ZTVN9EmbSysLib2Hw13USBdevice_McuE) refers to lib.o(.text._ZN9EmbSysLib2Hw13USBdevice_Mcu10setStallEPEh) for EmbSysLib::Hw::USBdevice_Mcu::setStallEP(unsigned char)
    lib.o(.rodata._ZTVN9EmbSysLib2Hw13USBdevice_McuE) refers to lib.o(.text._ZN9EmbSysLib2Hw13USBdevice_Mcu10clrStallEPEh) for EmbSysLib::Hw::USBdevice_Mcu::clrStallEP(unsigned char)
    lib.o(.rodata._ZTVN9EmbSysLib2Hw13USBdevice_McuE) refers to lib.o(.text._ZN9EmbSysLib2Hw13USBdevice_Mcu9setNAK_EPEh) for EmbSysLib::Hw::USBdevice_Mcu::setNAK_EP(unsigned char)
    lib.o(.rodata._ZTVN9EmbSysLib2Hw13USBdevice_McuE) refers to lib.o(.text._ZN9EmbSysLib2Hw13USBdevice_Mcu9clrNAK_EPEh) for EmbSysLib::Hw::USBdevice_Mcu::clrNAK_EP(unsigned char)
    lib.o(.rodata._ZTVN9EmbSysLib2Hw13USBdevice_McuE) refers to lib.o(.text._ZN9EmbSysLib2Hw13USBdevice_Mcu6readEPEhPht) for EmbSysLib::Hw::USBdevice_Mcu::readEP(unsigned char, unsigned char*, unsigned short)
    lib.o(.rodata._ZTVN9EmbSysLib2Hw13USBdevice_McuE) refers to lib.o(.text._ZN9EmbSysLib2Hw13USBdevice_Mcu7writeEPEhPht) for EmbSysLib::Hw::USBdevice_Mcu::writeEP(unsigned char, unsigned char*, unsigned short)
    lib.o(.rodata._ZTVN9EmbSysLib2Hw3AdcE) refers to lib.o(.text._ZN9EmbSysLib2Hw3Adc6updateEv) for EmbSysLib::Hw::Adc::update()
    lib.o(.rodata._ZTVN9EmbSysLib2Hw3AdcE) refers to lib.o(.text._ZN9EmbSysLib2Hw3Adc6enableEhh) for EmbSysLib::Hw::Adc::enable(unsigned char, unsigned char)
    lib.o(.rodata._ZTVN9EmbSysLib2Hw3AdcE) refers to lib.o(.text._ZN9EmbSysLib2Hw3Adc3getEh) for EmbSysLib::Hw::Adc::get(unsigned char)
    lib.o(.rodata._ZTVN9EmbSysLib2Hw3AdcE) refers to lib.o(.text._ZN9EmbSysLib2Hw3Adc3isrEv) for EmbSysLib::Hw::Adc::isr()
    lib.o(.rodata._ZTVN9EmbSysLib2Hw3AdcE) refers to cxa_virtual.cpp.o(.text.__cxa_pure_virtual) for __cxa_pure_virtual
    lib.o(.rodata._ZTVN9EmbSysLib2Hw11DisplayCharE) refers to cxa_virtual.cpp.o(.text.__cxa_pure_virtual) for __cxa_pure_virtual
    lib.o(.rodata._ZTVN9EmbSysLib2Hw11DisplayCharE) refers to lib.o(.text._ZN9EmbSysLib2Hw11DisplayChar9putStringEPKc) for EmbSysLib::Hw::DisplayChar::putString(char const*)
    lib.o(.rodata._ZTVN9EmbSysLib2Hw11DisplayCharE) refers to lib.o(.text._ZN9EmbSysLib2Hw11DisplayChar16getNumberOfLinesEv) for EmbSysLib::Hw::DisplayChar::getNumberOfLines()
    lib.o(.rodata._ZTVN9EmbSysLib2Hw11DisplayCharE) refers to lib.o(.text._ZN9EmbSysLib2Hw11DisplayChar18getNumberOfColumnsEv) for EmbSysLib::Hw::DisplayChar::getNumberOfColumns()
    lib.o(.rodata._ZTVN9EmbSysLib2Hw14DisplayGraphicE) refers to cxa_virtual.cpp.o(.text.__cxa_pure_virtual) for __cxa_pure_virtual
    lib.o(.rodata._ZTVN9EmbSysLib2Hw14DisplayGraphicE) refers to main.o(.text._ZN9EmbSysLib2Hw14DisplayGraphic7refreshEv) for EmbSysLib::Hw::DisplayGraphic::refresh()
    lib.o(.rodata._ZTVN9EmbSysLib2Hw14DisplayGraphicE) refers to lib.o(.text._ZN9EmbSysLib2Hw14DisplayGraphic11gotoTextPosEhh) for EmbSysLib::Hw::DisplayGraphic::gotoTextPos(unsigned char, unsigned char)
    lib.o(.rodata._ZTVN9EmbSysLib2Hw14DisplayGraphicE) refers to lib.o(.text._ZN9EmbSysLib2Hw14DisplayGraphic7putCharEc) for EmbSysLib::Hw::DisplayGraphic::putChar(char)
    lib.o(.rodata._ZTVN9EmbSysLib2Hw14DisplayGraphicE) refers to lib.o(.text._ZN9EmbSysLib2Hw11DisplayChar9putStringEPKc) for EmbSysLib::Hw::DisplayChar::putString(char const*)
    lib.o(.rodata._ZTVN9EmbSysLib2Hw14DisplayGraphicE) refers to lib.o(.text._ZN9EmbSysLib2Hw11DisplayChar16getNumberOfLinesEv) for EmbSysLib::Hw::DisplayChar::getNumberOfLines()
    lib.o(.rodata._ZTVN9EmbSysLib2Hw14DisplayGraphicE) refers to lib.o(.text._ZN9EmbSysLib2Hw11DisplayChar18getNumberOfColumnsEv) for EmbSysLib::Hw::DisplayChar::getNumberOfColumns()
    lib.o(.rodata._ZTVN9EmbSysLib2Hw14DisplayGraphicE) refers to lib.o(.text._ZN9EmbSysLib2Hw14DisplayGraphic7setFontENS0_4FontEh) for EmbSysLib::Hw::DisplayGraphic::setFont(EmbSysLib::Hw::Font, unsigned char)
    lib.o(.rodata._ZTVN9EmbSysLib2Hw14DisplayGraphicE) refers to lib.o(.text._ZN9EmbSysLib2Hw14DisplayGraphic7setZoomEh) for EmbSysLib::Hw::DisplayGraphic::setZoom(unsigned char)
    lib.o(.rodata._ZTVN9EmbSysLib2Hw14DisplayGraphicE) refers to lib.o(.text._ZN9EmbSysLib2Hw14DisplayGraphic12setBackColorEt) for EmbSysLib::Hw::DisplayGraphic::setBackColor(unsigned short)
    lib.o(.rodata._ZTVN9EmbSysLib2Hw14DisplayGraphicE) refers to lib.o(.text._ZN9EmbSysLib2Hw14DisplayGraphic13setPaintColorEt) for EmbSysLib::Hw::DisplayGraphic::setPaintColor(unsigned short)
    lib.o(.rodata._ZTVN9EmbSysLib2Hw14DisplayGraphicE) refers to lib.o(.text._ZN9EmbSysLib2Hw14DisplayGraphic12setTextColorEt) for EmbSysLib::Hw::DisplayGraphic::setTextColor(unsigned short)
    lib.o(.rodata._ZTVN9EmbSysLib2Hw14DisplayGraphicE) refers to lib.o(.text._ZN9EmbSysLib2Hw14DisplayGraphic12gotoPixelPosEtt) for EmbSysLib::Hw::DisplayGraphic::gotoPixelPos(unsigned short, unsigned short)
    lib.o(.rodata._ZTVN9EmbSysLib2Hw14DisplayGraphicE) refers to lib.o(.text._ZN9EmbSysLib2Hw14DisplayGraphic8putPixelEtt) for EmbSysLib::Hw::DisplayGraphic::putPixel(unsigned short, unsigned short)
    lib.o(.rodata._ZTVN9EmbSysLib2Hw14DisplayGraphicE) refers to lib.o(.text._ZN9EmbSysLib2Hw14DisplayGraphic12putRectangleEtttt) for EmbSysLib::Hw::DisplayGraphic::putRectangle(unsigned short, unsigned short, unsigned short, unsigned short)
    lib.o(.rodata._ZTVN9EmbSysLib2Hw14DisplayGraphicE) refers to lib.o(.text._ZN9EmbSysLib2Hw14DisplayGraphic9putBitmapEttNS0_6BitmapE) for EmbSysLib::Hw::DisplayGraphic::putBitmap(unsigned short, unsigned short, EmbSysLib::Hw::Bitmap)
    lib.o(.rodata._ZTVN9EmbSysLib2Hw14DisplayGraphicE) refers to main.o(.text._ZN9EmbSysLib2Hw14DisplayGraphic8getWidthEv) for EmbSysLib::Hw::DisplayGraphic::getWidth()
    lib.o(.rodata._ZTVN9EmbSysLib2Hw14DisplayGraphicE) refers to main.o(.text._ZN9EmbSysLib2Hw14DisplayGraphic9getHeightEv) for EmbSysLib::Hw::DisplayGraphic::getHeight()
    lib.o(.rodata._ZTVN9EmbSysLib2Hw8EthernetE) refers to lib.o(.text._ZN9EmbSysLib2Hw3Net6updateEv) for EmbSysLib::Hw::Net::update()
    lib.o(.rodata._ZTVN9EmbSysLib2Hw8EthernetE) refers to lib.o(.text._ZN9EmbSysLib2Hw3Net7addTaskERNS1_4TaskE) for EmbSysLib::Hw::Net::addTask(EmbSysLib::Hw::Net::Task&)
    lib.o(.rodata._ZTVN9EmbSysLib2Hw8EthernetE) refers to lib.o(.text._ZN9EmbSysLib2Hw8Ethernet5getIPEv) for EmbSysLib::Hw::Ethernet::getIP()
    lib.o(.rodata._ZTVN9EmbSysLib2Hw8EthernetE) refers to lib.o(.text._ZN9EmbSysLib2Hw8Ethernet7processEv) for EmbSysLib::Hw::Ethernet::process()
    lib.o(.rodata._ZTVN9EmbSysLib2Hw8EthernetE) refers to cxa_virtual.cpp.o(.text.__cxa_pure_virtual) for __cxa_pure_virtual
    lib.o(.rodata._ZTVN9EmbSysLib2Hw9I2CmasterE) refers to lib.o(.text._ZN9EmbSysLib2Hw9I2Cmaster5writeEhPhhS2_h) for EmbSysLib::Hw::I2Cmaster::write(unsigned char, unsigned char*, unsigned char, unsigned char*, unsigned char)
    lib.o(.rodata._ZTVN9EmbSysLib2Hw9I2CmasterE) refers to lib.o(.text._ZN9EmbSysLib2Hw9I2Cmaster4readEhPhhS2_h) for EmbSysLib::Hw::I2Cmaster::read(unsigned char, unsigned char*, unsigned char, unsigned char*, unsigned char)
    lib.o(.rodata._ZTVN9EmbSysLib2Hw9I2CmasterE) refers to cxa_virtual.cpp.o(.text.__cxa_pure_virtual) for __cxa_pure_virtual
    lib.o(.rodata._ZTVN9EmbSysLib2Hw14I2Cmaster_EmulE) refers to lib.o(.text._ZN9EmbSysLib2Hw9I2Cmaster5writeEhPhhS2_h) for EmbSysLib::Hw::I2Cmaster::write(unsigned char, unsigned char*, unsigned char, unsigned char*, unsigned char)
    lib.o(.rodata._ZTVN9EmbSysLib2Hw14I2Cmaster_EmulE) refers to lib.o(.text._ZN9EmbSysLib2Hw9I2Cmaster4readEhPhhS2_h) for EmbSysLib::Hw::I2Cmaster::read(unsigned char, unsigned char*, unsigned char, unsigned char*, unsigned char)
    lib.o(.rodata._ZTVN9EmbSysLib2Hw14I2Cmaster_EmulE) refers to lib.o(.text._ZN9EmbSysLib2Hw14I2Cmaster_Emul5startEh) for EmbSysLib::Hw::I2Cmaster_Emul::start(unsigned char)
    lib.o(.rodata._ZTVN9EmbSysLib2Hw14I2Cmaster_EmulE) refers to lib.o(.text._ZN9EmbSysLib2Hw14I2Cmaster_Emul4stopEv) for EmbSysLib::Hw::I2Cmaster_Emul::stop()
    lib.o(.rodata._ZTVN9EmbSysLib2Hw14I2Cmaster_EmulE) refers to lib.o(.text._ZN9EmbSysLib2Hw14I2Cmaster_Emul8sendAddrEh) for EmbSysLib::Hw::I2Cmaster_Emul::sendAddr(unsigned char)
    lib.o(.rodata._ZTVN9EmbSysLib2Hw14I2Cmaster_EmulE) refers to lib.o(.text._ZN9EmbSysLib2Hw14I2Cmaster_Emul9writeByteEh) for EmbSysLib::Hw::I2Cmaster_Emul::writeByte(unsigned char)
    lib.o(.rodata._ZTVN9EmbSysLib2Hw14I2Cmaster_EmulE) refers to lib.o(.text._ZN9EmbSysLib2Hw14I2Cmaster_Emul11readByteAckEv) for EmbSysLib::Hw::I2Cmaster_Emul::readByteAck()
    lib.o(.rodata._ZTVN9EmbSysLib2Hw14I2Cmaster_EmulE) refers to lib.o(.text._ZN9EmbSysLib2Hw14I2Cmaster_Emul12readByteNackEv) for EmbSysLib::Hw::I2Cmaster_Emul::readByteNack()
    lib.o(.rodata._ZTVN9EmbSysLib2Hw14I2Cmaster_EmulE) refers to lib.o(.text._ZN9EmbSysLib2Hw14I2Cmaster_Emul11waitForAcknEv) for EmbSysLib::Hw::I2Cmaster_Emul::waitForAckn()
    lib.o(.rodata._ZTVN9EmbSysLib2Hw14I2Cmaster_EmulE) refers to lib.o(.text._ZN9EmbSysLib2Hw14I2Cmaster_Emul4waitEv) for EmbSysLib::Hw::I2Cmaster_Emul::wait()
    lib.o(.rodata._ZTVN9EmbSysLib2Hw10NetEthDHCPE) refers to lib.o(.text._ZN9EmbSysLib2Hw10NetEthDHCP9onReceiveERNS0_9NetSocketE) for EmbSysLib::Hw::NetEthDHCP::onReceive(EmbSysLib::Hw::NetSocket&)
    lib.o(.rodata._ZTVN9EmbSysLib2Hw10NetEthDHCPE) refers to lib.o(.text._ZN9EmbSysLib2Hw10NetEthDHCP9onProcessEv) for EmbSysLib::Hw::NetEthDHCP::onProcess()
    lib.o(.rodata._ZTVN9EmbSysLib2Hw10NetEthDHCPE) refers to lib.o(.text._ZN9EmbSysLib2Hw10NetEthDHCP9onTriggerEv) for EmbSysLib::Hw::NetEthDHCP::onTrigger()
    lib.o(.rodata._ZTVN9EmbSysLib2Hw10NetEthDHCPE) refers to lib.o(.text._ZThn4_N9EmbSysLib2Hw10NetEthDHCP9onProcessEv) for non-virtual thunk to EmbSysLib::Hw::NetEthDHCP::onProcess()
    lib.o(.rodata._ZTVN9EmbSysLib2Hw10NetEthDHCPE) refers to lib.o(.text._ZThn4_N9EmbSysLib2Hw10NetEthDHCP9onTriggerEv) for non-virtual thunk to EmbSysLib::Hw::NetEthDHCP::onTrigger()
    lib.o(.rodata._ZTVN9EmbSysLib2Hw8NetEthIPE) refers to lib.o(.text._ZN9EmbSysLib2Hw8NetEthIP9onProcessEv) for EmbSysLib::Hw::NetEthIP::onProcess()
    lib.o(.rodata._ZTVN9EmbSysLib2Hw8NetEthIPE) refers to lib.o(.text._ZN9EmbSysLib2Hw8NetEthIP9onTriggerEv) for EmbSysLib::Hw::NetEthIP::onTrigger()
    lib.o(.rodata._ZTVN9EmbSysLib2Hw9NetEthTCPE) refers to lib.o(.text._ZN9EmbSysLib2Hw15NetEthTransport7getAddrEv) for EmbSysLib::Hw::NetEthTransport::getAddr()
    lib.o(.rodata._ZTVN9EmbSysLib2Hw9NetEthTCPE) refers to lib.o(.text._ZN9EmbSysLib2Hw15NetEthTransport10getAddrPhyEv) for EmbSysLib::Hw::NetEthTransport::getAddrPhy()
    lib.o(.rodata._ZTVN9EmbSysLib2Hw9NetEthTCPE) refers to lib.o(.text._ZN9EmbSysLib2Hw9NetEthTCP9handleARPENS0_7NetAddrILh4EEENS2_ILh6EEE) for EmbSysLib::Hw::NetEthTCP::handleARP(EmbSysLib::Hw::NetAddr<(unsigned char)4>, EmbSysLib::Hw::NetAddr<(unsigned char)6>)
    lib.o(.rodata._ZTVN9EmbSysLib2Hw9NetEthTCP6SocketE) refers to lib.o(.text._ZN9EmbSysLib2Hw9NetEthTCP6Socket9onProcessEv) for EmbSysLib::Hw::NetEthTCP::Socket::onProcess()
    lib.o(.rodata._ZTVN9EmbSysLib2Hw9NetEthTCP6SocketE) refers to lib.o(.text._ZN9EmbSysLib2Hw9NetEthTCP6Socket9onTriggerEv) for EmbSysLib::Hw::NetEthTCP::Socket::onTrigger()
    lib.o(.rodata._ZTVN9EmbSysLib2Hw9NetEthTCP6SocketE) refers to lib.o(.text._ZN9EmbSysLib2Hw9NetSocket13getRemoteAddrEv) for EmbSysLib::Hw::NetSocket::getRemoteAddr()
    lib.o(.rodata._ZTVN9EmbSysLib2Hw9NetEthTCP6SocketE) refers to lib.o(.text._ZN9EmbSysLib2Hw9NetSocket13getRemotePortEv) for EmbSysLib::Hw::NetSocket::getRemotePort()
    lib.o(.rodata._ZTVN9EmbSysLib2Hw9NetEthTCP6SocketE) refers to lib.o(.text._ZN9EmbSysLib2Hw9NetEthTCP6Socket4openENS0_7NetAddrILh4EEEt) for EmbSysLib::Hw::NetEthTCP::Socket::open(EmbSysLib::Hw::NetAddr<(unsigned char)4>, unsigned short)
    lib.o(.rodata._ZTVN9EmbSysLib2Hw9NetEthTCP6SocketE) refers to lib.o(.text._ZN9EmbSysLib2Hw9NetEthTCP6Socket5closeEv) for EmbSysLib::Hw::NetEthTCP::Socket::close()
    lib.o(.rodata._ZTVN9EmbSysLib2Hw9NetEthTCP6SocketE) refers to lib.o(.text._ZN9EmbSysLib2Hw9NetEthTCP6Socket5clearEv) for EmbSysLib::Hw::NetEthTCP::Socket::clear()
    lib.o(.rodata._ZTVN9EmbSysLib2Hw9NetEthTCP6SocketE) refers to lib.o(.text._ZN9EmbSysLib2Hw9NetSocket5writeEc) for EmbSysLib::Hw::NetSocket::write(char)
    lib.o(.rodata._ZTVN9EmbSysLib2Hw9NetEthTCP6SocketE) refers to lib.o(.text._ZN9EmbSysLib2Hw9NetSocket5writeEPKc) for EmbSysLib::Hw::NetSocket::write(char const*)
    lib.o(.rodata._ZTVN9EmbSysLib2Hw9NetEthTCP6SocketE) refers to lib.o(.text._ZN9EmbSysLib2Hw9NetSocket5writeEPKct) for EmbSysLib::Hw::NetSocket::write(char const*, unsigned short)
    lib.o(.rodata._ZTVN9EmbSysLib2Hw9NetEthTCP6SocketE) refers to lib.o(.text._ZN9EmbSysLib2Hw9NetEthTCP6Socket5flushEv) for EmbSysLib::Hw::NetEthTCP::Socket::flush()
    lib.o(.rodata._ZTVN9EmbSysLib2Hw9NetEthTCP6SocketE) refers to lib.o(.text._ZN9EmbSysLib2Hw9NetEthTCP6Socket3getERh) for EmbSysLib::Hw::NetEthTCP::Socket::get(unsigned char&)
    lib.o(.rodata._ZTVN9EmbSysLib2Hw9NetEthTCP6SocketE) refers to lib.o(.text._ZN9EmbSysLib2Hw9NetEthTCP6Socket14getDataPointerEv) for EmbSysLib::Hw::NetEthTCP::Socket::getDataPointer()
    lib.o(.rodata._ZTVN9EmbSysLib2Hw9NetEthTCP6SocketE) refers to lib.o(.text._ZN9EmbSysLib2Hw9NetEthTCP6Socket10fillBufferEc) for EmbSysLib::Hw::NetEthTCP::Socket::fillBuffer(char)
    lib.o(.rodata._ZTVN9EmbSysLib2Hw9NetEthTCP6SocketE) refers to lib.o(.text._ZN9EmbSysLib2Hw15NetEthTransport6Socket10setTimeoutEtt) for EmbSysLib::Hw::NetEthTransport::Socket::setTimeout(unsigned short, unsigned short)
    lib.o(.rodata._ZTVN9EmbSysLib2Hw9NetEthTCP6SocketE) refers to lib.o(.text._ZN9EmbSysLib2Hw9NetEthTCP6Socket6updateEv) for EmbSysLib::Hw::NetEthTCP::Socket::update()
    lib.o(.rodata._ZTVN9EmbSysLib2Hw9NetEthUDPE) refers to lib.o(.text._ZN9EmbSysLib2Hw15NetEthTransport7getAddrEv) for EmbSysLib::Hw::NetEthTransport::getAddr()
    lib.o(.rodata._ZTVN9EmbSysLib2Hw9NetEthUDPE) refers to lib.o(.text._ZN9EmbSysLib2Hw15NetEthTransport10getAddrPhyEv) for EmbSysLib::Hw::NetEthTransport::getAddrPhy()
    lib.o(.rodata._ZTVN9EmbSysLib2Hw9NetEthUDPE) refers to lib.o(.text._ZN9EmbSysLib2Hw9NetEthUDP9handleARPENS0_7NetAddrILh4EEENS2_ILh6EEE) for EmbSysLib::Hw::NetEthUDP::handleARP(EmbSysLib::Hw::NetAddr<(unsigned char)4>, EmbSysLib::Hw::NetAddr<(unsigned char)6>)
    lib.o(.rodata._ZTVN9EmbSysLib2Hw9NetEthUDP6SocketE) refers to lib.o(.text._ZN9EmbSysLib2Hw9NetEthUDP6Socket9onProcessEv) for EmbSysLib::Hw::NetEthUDP::Socket::onProcess()
    lib.o(.rodata._ZTVN9EmbSysLib2Hw9NetEthUDP6SocketE) refers to lib.o(.text._ZN9EmbSysLib2Hw9NetEthUDP6Socket9onTriggerEv) for EmbSysLib::Hw::NetEthUDP::Socket::onTrigger()
    lib.o(.rodata._ZTVN9EmbSysLib2Hw9NetEthUDP6SocketE) refers to lib.o(.text._ZN9EmbSysLib2Hw9NetSocket13getRemoteAddrEv) for EmbSysLib::Hw::NetSocket::getRemoteAddr()
    lib.o(.rodata._ZTVN9EmbSysLib2Hw9NetEthUDP6SocketE) refers to lib.o(.text._ZN9EmbSysLib2Hw9NetSocket13getRemotePortEv) for EmbSysLib::Hw::NetSocket::getRemotePort()
    lib.o(.rodata._ZTVN9EmbSysLib2Hw9NetEthUDP6SocketE) refers to lib.o(.text._ZN9EmbSysLib2Hw9NetEthUDP6Socket4openENS0_7NetAddrILh4EEEt) for EmbSysLib::Hw::NetEthUDP::Socket::open(EmbSysLib::Hw::NetAddr<(unsigned char)4>, unsigned short)
    lib.o(.rodata._ZTVN9EmbSysLib2Hw9NetEthUDP6SocketE) refers to lib.o(.text._ZN9EmbSysLib2Hw9NetEthUDP6Socket5closeEv) for EmbSysLib::Hw::NetEthUDP::Socket::close()
    lib.o(.rodata._ZTVN9EmbSysLib2Hw9NetEthUDP6SocketE) refers to lib.o(.text._ZN9EmbSysLib2Hw9NetEthUDP6Socket5clearEv) for EmbSysLib::Hw::NetEthUDP::Socket::clear()
    lib.o(.rodata._ZTVN9EmbSysLib2Hw9NetEthUDP6SocketE) refers to lib.o(.text._ZN9EmbSysLib2Hw9NetSocket5writeEc) for EmbSysLib::Hw::NetSocket::write(char)
    lib.o(.rodata._ZTVN9EmbSysLib2Hw9NetEthUDP6SocketE) refers to lib.o(.text._ZN9EmbSysLib2Hw9NetSocket5writeEPKc) for EmbSysLib::Hw::NetSocket::write(char const*)
    lib.o(.rodata._ZTVN9EmbSysLib2Hw9NetEthUDP6SocketE) refers to lib.o(.text._ZN9EmbSysLib2Hw9NetSocket5writeEPKct) for EmbSysLib::Hw::NetSocket::write(char const*, unsigned short)
    lib.o(.rodata._ZTVN9EmbSysLib2Hw9NetEthUDP6SocketE) refers to lib.o(.text._ZN9EmbSysLib2Hw9NetEthUDP6Socket5flushEv) for EmbSysLib::Hw::NetEthUDP::Socket::flush()
    lib.o(.rodata._ZTVN9EmbSysLib2Hw9NetEthUDP6SocketE) refers to lib.o(.text._ZN9EmbSysLib2Hw9NetEthUDP6Socket3getERh) for EmbSysLib::Hw::NetEthUDP::Socket::get(unsigned char&)
    lib.o(.rodata._ZTVN9EmbSysLib2Hw9NetEthUDP6SocketE) refers to lib.o(.text._ZN9EmbSysLib2Hw9NetEthUDP6Socket14getDataPointerEv) for EmbSysLib::Hw::NetEthUDP::Socket::getDataPointer()
    lib.o(.rodata._ZTVN9EmbSysLib2Hw9NetEthUDP6SocketE) refers to lib.o(.text._ZN9EmbSysLib2Hw9NetEthUDP6Socket10fillBufferEc) for EmbSysLib::Hw::NetEthUDP::Socket::fillBuffer(char)
    lib.o(.rodata._ZTVN9EmbSysLib2Hw9NetEthUDP6SocketE) refers to lib.o(.text._ZN9EmbSysLib2Hw15NetEthTransport6Socket10setTimeoutEtt) for EmbSysLib::Hw::NetEthTransport::Socket::setTimeout(unsigned short, unsigned short)
    lib.o(.rodata._ZTVN9EmbSysLib2Hw5TimerE) refers to lib.o(.text._ZN9EmbSysLib2Hw5Timer12getCycleTimeEv) for EmbSysLib::Hw::Timer::getCycleTime()
    lib.o(.rodata._ZTVN9EmbSysLib2Hw5TimerE) refers to lib.o(.text._ZN9EmbSysLib2Hw5Timer3addEPNS1_4TaskE) for EmbSysLib::Hw::Timer::add(EmbSysLib::Hw::Timer::Task*)
    lib.o(.rodata._ZTVN9EmbSysLib2Hw5TimerE) refers to cxa_virtual.cpp.o(.text.__cxa_pure_virtual) for __cxa_pure_virtual
    lib.o(.rodata._ZTVN9EmbSysLib2Hw5TimerE) refers to lib.o(.text._ZN9EmbSysLib2Hw5Timer10isrHandlerEv) for EmbSysLib::Hw::Timer::isrHandler()
    lib.o(.rodata._ZTVN9EmbSysLib2Hw4UartE) refers to lib.o(.text._ZN9EmbSysLib2Hw4Uart3setEh) for EmbSysLib::Hw::Uart::set(unsigned char)
    lib.o(.rodata._ZTVN9EmbSysLib2Hw4UartE) refers to lib.o(.text._ZN9EmbSysLib2Hw4Uart3setEPKht) for EmbSysLib::Hw::Uart::set(unsigned char const*, unsigned short)
    lib.o(.rodata._ZTVN9EmbSysLib2Hw4UartE) refers to lib.o(.text._ZN9EmbSysLib2Hw4Uart3setEPKc) for EmbSysLib::Hw::Uart::set(char const*)
    lib.o(.rodata._ZTVN9EmbSysLib2Hw4UartE) refers to lib.o(.text._ZN9EmbSysLib2Hw4Uart14isTxBufferFullEv) for EmbSysLib::Hw::Uart::isTxBufferFull()
    lib.o(.rodata._ZTVN9EmbSysLib2Hw4UartE) refers to lib.o(.text._ZN9EmbSysLib2Hw4Uart20getFifoRemainingSizeEv) for EmbSysLib::Hw::Uart::getFifoRemainingSize()
    lib.o(.rodata._ZTVN9EmbSysLib2Hw4UartE) refers to lib.o(.text._ZN9EmbSysLib2Hw4Uart3getERh) for EmbSysLib::Hw::Uart::get(unsigned char&)
    lib.o(.rodata._ZTVN9EmbSysLib2Hw4UartE) refers to lib.o(.text._ZN9EmbSysLib2Hw4Uart3getEv) for EmbSysLib::Hw::Uart::get()
    lib.o(.rodata._ZTVN9EmbSysLib2Hw4UartE) refers to lib.o(.text._ZN9EmbSysLib2Hw4Uart5isrRxEv) for EmbSysLib::Hw::Uart::isrRx()
    lib.o(.rodata._ZTVN9EmbSysLib2Hw4UartE) refers to lib.o(.text._ZN9EmbSysLib2Hw4Uart5isrTxEv) for EmbSysLib::Hw::Uart::isrTx()
    lib.o(.rodata._ZTVN9EmbSysLib2Hw4UartE) refers to lib.o(.text._ZN9EmbSysLib2Hw4Uart12transmitByteEh) for EmbSysLib::Hw::Uart::transmitByte(unsigned char)
    lib.o(.rodata._ZTVN9EmbSysLib2Hw4UartE) refers to cxa_virtual.cpp.o(.text.__cxa_pure_virtual) for __cxa_pure_virtual
    lib.o(.rodata._ZTVN9EmbSysLib2Hw9USBdeviceE) refers to lib.o(.text._ZN9EmbSysLib2Hw9USBdevice12eventHandlerEhh) for EmbSysLib::Hw::USBdevice::eventHandler(unsigned char, unsigned char)
    lib.o(.rodata._ZTVN9EmbSysLib2Hw9USBdeviceE) refers to lib.o(.text._ZN9EmbSysLib2Hw9USBdevice7suspendEv) for EmbSysLib::Hw::USBdevice::suspend()
    lib.o(.rodata._ZTVN9EmbSysLib2Hw9USBdeviceE) refers to cxa_virtual.cpp.o(.text.__cxa_pure_virtual) for __cxa_pure_virtual
    lib.o(.rodata._ZTVN9EmbSysLib2Hw16USBdeviceControlE) refers to lib.o(.text._ZN9EmbSysLib2Hw16USBdeviceControl5setupEv) for EmbSysLib::Hw::USBdeviceControl::setup()
    lib.o(.rodata._ZTVN9EmbSysLib2Hw16USBdeviceControlE) refers to lib.o(.text._ZN9EmbSysLib2Hw16USBdeviceControl3outEv) for EmbSysLib::Hw::USBdeviceControl::out()
    lib.o(.rodata._ZTVN9EmbSysLib2Hw16USBdeviceControlE) refers to lib.o(.text._ZN9EmbSysLib2Hw16USBdeviceControl2inEv) for EmbSysLib::Hw::USBdeviceControl::in()
    lib.o(.rodata._ZTVN9EmbSysLib2Hw16USBdeviceControlE) refers to lib.o(.text._ZN9EmbSysLib2Hw16USBdeviceControl5stallEv) for EmbSysLib::Hw::USBdeviceControl::stall()
    lib.o(.rodata._ZTVN9EmbSysLib2Hw18USBdeviceInterfaceE) refers to lib.o(.text._ZN9EmbSysLib2Hw18USBdeviceInterface7onStartEv) for EmbSysLib::Hw::USBdeviceInterface::onStart()
    lib.o(.rodata._ZTVN9EmbSysLib2Hw18USBdeviceInterfaceE) refers to lib.o(.text._ZN9EmbSysLib2Hw18USBdeviceInterface6onStopEv) for EmbSysLib::Hw::USBdeviceInterface::onStop()
    lib.o(.rodata._ZTVN9EmbSysLib2Hw18USBdeviceInterfaceE) refers to lib.o(.text._ZN9EmbSysLib2Hw18USBdeviceInterface16onConfigEndpointEhRNS_3Std11DataPointerEt) for EmbSysLib::Hw::USBdeviceInterface::onConfigEndpoint(unsigned char, EmbSysLib::Std::DataPointer&, unsigned short)
    lib.o(.rodata._ZTVN9EmbSysLib2Hw18USBdeviceInterfaceE) refers to lib.o(.text._ZN9EmbSysLib2Hw18USBdeviceInterface10onTransmitEhRNS_3Std11DataPointerE) for EmbSysLib::Hw::USBdeviceInterface::onTransmit(unsigned char, EmbSysLib::Std::DataPointer&)
    lib.o(.rodata._ZTVN9EmbSysLib2Hw18USBdeviceInterfaceE) refers to lib.o(.text._ZN9EmbSysLib2Hw18USBdeviceInterface9onReceiveEhtRNS_3Std11DataPointerE) for EmbSysLib::Hw::USBdeviceInterface::onReceive(unsigned char, unsigned short, EmbSysLib::Std::DataPointer&)
    lib.o(.rodata._ZTVN9EmbSysLib2Hw18USBdeviceInterfaceE) refers to lib.o(.text._ZN9EmbSysLib2Hw18USBdeviceInterface16onRequestCtrl_INERNS_3Std11DataPointerEhtt) for EmbSysLib::Hw::USBdeviceInterface::onRequestCtrl_IN(EmbSysLib::Std::DataPointer&, unsigned char, unsigned short, unsigned short)
    lib.o(.rodata._ZTVN9EmbSysLib2Hw18USBdeviceInterfaceE) refers to lib.o(.text._ZN9EmbSysLib2Hw18USBdeviceInterface17onRequestCtrl_OUTERNS_3Std11DataPointerEhtt) for EmbSysLib::Hw::USBdeviceInterface::onRequestCtrl_OUT(EmbSysLib::Std::DataPointer&, unsigned char, unsigned short, unsigned short)
    lib.o(.rodata._ZTVN9EmbSysLib2Hw18USBdeviceInterfaceE) refers to lib.o(.text._ZN9EmbSysLib2Hw18USBdeviceInterface14onTransmitCtrlEv) for EmbSysLib::Hw::USBdeviceInterface::onTransmitCtrl()
    lib.o(.rodata._ZTVN9EmbSysLib2Hw18USBdeviceInterfaceE) refers to lib.o(.text._ZN9EmbSysLib2Hw18USBdeviceInterface13onReceiveCtrlEt) for EmbSysLib::Hw::USBdeviceInterface::onReceiveCtrl(unsigned short)
    lib.o(.rodata._ZTVN9EmbSysLib2Hw18USBdeviceInterfaceE) refers to lib.o(.text._ZN9EmbSysLib2Hw18USBdeviceInterface15onGetDescriptorEt) for EmbSysLib::Hw::USBdeviceInterface::onGetDescriptor(unsigned short)
    lib.o(.rodata._ZTVN9EmbSysLib2Hw18USBdeviceInterfaceE) refers to lib.o(.text._ZN9EmbSysLib2Hw18USBdeviceInterface17startTransmissionEh) for EmbSysLib::Hw::USBdeviceInterface::startTransmission(unsigned char)
    lib.o(.rodata._ZTVN9EmbSysLib3Dev11AnalogInAdcE) refers to lib.o(.text._ZN9EmbSysLib3Dev8AnalogIn3getEv) for EmbSysLib::Dev::AnalogIn::get()
    lib.o(.rodata._ZTVN9EmbSysLib3Dev11AnalogInAdcE) refers to lib.o(.text._ZN9EmbSysLib3Dev8AnalogIncvfEv) for EmbSysLib::Dev::AnalogIn::operator float()
    lib.o(.rodata._ZTVN9EmbSysLib3Dev11AnalogInAdcE) refers to lib.o(.text._ZN9EmbSysLib3Dev11AnalogInAdc6getRawEv) for EmbSysLib::Dev::AnalogInAdc::getRaw()
    lib.o(.rodata._ZTVN9EmbSysLib3Dev11AnalogInAdcE) refers to lib.o(.text._ZN9EmbSysLib3Dev11AnalogInAdc6enableEv) for EmbSysLib::Dev::AnalogInAdc::enable()
    lib.o(.rodata._ZTVN9EmbSysLib3Dev9AnalogOutE) refers to lib.o(.text._ZN9EmbSysLib3Dev9AnalogOut3setEf) for EmbSysLib::Dev::AnalogOut::set(float)
    lib.o(.rodata._ZTVN9EmbSysLib3Dev9AnalogOutE) refers to lib.o(.text._ZN9EmbSysLib3Dev9AnalogOutaSEf) for EmbSysLib::Dev::AnalogOut::operator=(float)
    lib.o(.rodata._ZTVN9EmbSysLib3Dev9AnalogOutE) refers to cxa_virtual.cpp.o(.text.__cxa_pure_virtual) for __cxa_pure_virtual
    lib.o(.rodata._ZTVN9EmbSysLib3Dev12AnalogOutDacE) refers to lib.o(.text._ZN9EmbSysLib3Dev9AnalogOut3setEf) for EmbSysLib::Dev::AnalogOut::set(float)
    lib.o(.rodata._ZTVN9EmbSysLib3Dev12AnalogOutDacE) refers to lib.o(.text._ZN9EmbSysLib3Dev9AnalogOutaSEf) for EmbSysLib::Dev::AnalogOut::operator=(float)
    lib.o(.rodata._ZTVN9EmbSysLib3Dev12AnalogOutDacE) refers to lib.o(.text._ZN9EmbSysLib3Dev12AnalogOutDac6setRawEt) for EmbSysLib::Dev::AnalogOutDac::setRaw(unsigned short)
    lib.o(.rodata._ZTVN9EmbSysLib3Dev12AnalogOutPWME) refers to lib.o(.text._ZN9EmbSysLib3Dev9AnalogOut3setEf) for EmbSysLib::Dev::AnalogOut::set(float)
    lib.o(.rodata._ZTVN9EmbSysLib3Dev12AnalogOutPWME) refers to lib.o(.text._ZN9EmbSysLib3Dev9AnalogOutaSEf) for EmbSysLib::Dev::AnalogOut::operator=(float)
    lib.o(.rodata._ZTVN9EmbSysLib3Dev12AnalogOutPWME) refers to lib.o(.text._ZN9EmbSysLib3Dev12AnalogOutPWM6setRawEt) for EmbSysLib::Dev::AnalogOutPWM::setRaw(unsigned short)
    lib.o(.rodata._ZTVN9EmbSysLib3Dev7DigitalE) refers to lib.o(.text._ZN9EmbSysLib3Dev7Digital7setModeENS1_4ModeE) for EmbSysLib::Dev::Digital::setMode(EmbSysLib::Dev::Digital::Mode)
    lib.o(.rodata._ZTVN9EmbSysLib3Dev7DigitalE) refers to lib.o(.text._ZN9EmbSysLib3Dev7Digital3setEb) for EmbSysLib::Dev::Digital::set(bool)
    lib.o(.rodata._ZTVN9EmbSysLib3Dev7DigitalE) refers to lib.o(.text._ZN9EmbSysLib3Dev7Digital3setEv) for EmbSysLib::Dev::Digital::set()
    lib.o(.rodata._ZTVN9EmbSysLib3Dev7DigitalE) refers to lib.o(.text._ZN9EmbSysLib3Dev7Digital3clrEv) for EmbSysLib::Dev::Digital::clr()
    lib.o(.rodata._ZTVN9EmbSysLib3Dev7DigitalE) refers to lib.o(.text._ZN9EmbSysLib3Dev7Digital6toggleEv) for EmbSysLib::Dev::Digital::toggle()
    lib.o(.rodata._ZTVN9EmbSysLib3Dev7DigitalE) refers to lib.o(.text._ZN9EmbSysLib3Dev7Digital3getEv) for EmbSysLib::Dev::Digital::get()
    lib.o(.rodata._ZTVN9EmbSysLib3Dev7DigitalE) refers to lib.o(.text._ZN9EmbSysLib3Dev7Digital8getEventEv) for EmbSysLib::Dev::Digital::getEvent()
    lib.o(.rodata._ZTVN9EmbSysLib3Dev7DigitalE) refers to lib.o(.text._ZN9EmbSysLib3Dev7DigitalaSEb) for EmbSysLib::Dev::Digital::operator=(bool)
    lib.o(.rodata._ZTVN9EmbSysLib3Dev7DigitalE) refers to lib.o(.text._ZN9EmbSysLib3Dev7DigitalaSERS1_) for EmbSysLib::Dev::Digital::operator=(EmbSysLib::Dev::Digital&)
    lib.o(.rodata._ZTVN9EmbSysLib3Dev7DigitalE) refers to lib.o(.text._ZN9EmbSysLib3Dev7DigitalcvbEv) for EmbSysLib::Dev::Digital::operator bool()
    lib.o(.rodata._ZTVN9EmbSysLib3Dev10ScreenCharE) refers to lib.o(.text._ZN9EmbSysLib3Dev10ScreenChar5clearEv) for EmbSysLib::Dev::ScreenChar::clear()
    lib.o(.rodata._ZTVN9EmbSysLib3Dev10ScreenCharE) refers to lib.o(.text._ZN9EmbSysLib3Dev10ScreenChar7refreshEv) for EmbSysLib::Dev::ScreenChar::refresh()
    lib.o(.rodata._ZTVN9EmbSysLib3Dev10ScreenCharE) refers to lib.o(.text._ZN9EmbSysLib3Dev10ScreenChar6printfEhhPKcz) for EmbSysLib::Dev::ScreenChar::printf(unsigned char, unsigned char, char const*, ...)
    lib.o(.rodata._ZTVN9EmbSysLib3Dev13ScreenGraphicE) refers to lib.o(.text._ZN9EmbSysLib3Dev13ScreenGraphic5clearEv) for EmbSysLib::Dev::ScreenGraphic::clear()
    lib.o(.rodata._ZTVN9EmbSysLib3Dev13ScreenGraphicE) refers to lib.o(.text._ZN9EmbSysLib3Dev13ScreenGraphic7refreshEv) for EmbSysLib::Dev::ScreenGraphic::refresh()
    lib.o(.rodata._ZTVN9EmbSysLib3Dev13ScreenGraphicE) refers to lib.o(.text._ZN9EmbSysLib3Dev13ScreenGraphic6printfEhhPKcz) for EmbSysLib::Dev::ScreenGraphic::printf(unsigned char, unsigned char, char const*, ...)
    lib.o(.rodata._ZTVN9EmbSysLib3Dev13ScreenGraphicE) refers to lib.o(.text._ZN9EmbSysLib3Dev13ScreenGraphic7setFontENS_2Hw4FontEh) for EmbSysLib::Dev::ScreenGraphic::setFont(EmbSysLib::Hw::Font, unsigned char)
    lib.o(.rodata._ZTVN9EmbSysLib3Dev13ScreenGraphicE) refers to lib.o(.text._ZN9EmbSysLib3Dev13ScreenGraphic7setZoomEh) for EmbSysLib::Dev::ScreenGraphic::setZoom(unsigned char)
    lib.o(.rodata._ZTVN9EmbSysLib3Dev13ScreenGraphicE) refers to lib.o(.text._ZN9EmbSysLib3Dev13ScreenGraphic12setBackColorEt) for EmbSysLib::Dev::ScreenGraphic::setBackColor(unsigned short)
    lib.o(.rodata._ZTVN9EmbSysLib3Dev13ScreenGraphicE) refers to lib.o(.text._ZN9EmbSysLib3Dev13ScreenGraphic12setTextColorEt) for EmbSysLib::Dev::ScreenGraphic::setTextColor(unsigned short)
    lib.o(.rodata._ZTVN9EmbSysLib3Dev13ScreenGraphicE) refers to lib.o(.text._ZN9EmbSysLib3Dev13ScreenGraphic8drawTextEttPKcz) for EmbSysLib::Dev::ScreenGraphic::drawText(unsigned short, unsigned short, char const*, ...)
    lib.o(.rodata._ZTVN9EmbSysLib3Dev13ScreenGraphicE) refers to lib.o(.text._ZN9EmbSysLib3Dev13ScreenGraphic9drawPixelEttt) for EmbSysLib::Dev::ScreenGraphic::drawPixel(unsigned short, unsigned short, unsigned short)
    lib.o(.rodata._ZTVN9EmbSysLib3Dev13ScreenGraphicE) refers to lib.o(.text._ZN9EmbSysLib3Dev13ScreenGraphic13drawRectangleEttttt) for EmbSysLib::Dev::ScreenGraphic::drawRectangle(unsigned short, unsigned short, unsigned short, unsigned short, unsigned short)
    lib.o(.rodata._ZTVN9EmbSysLib3Dev13ScreenGraphicE) refers to lib.o(.text._ZN9EmbSysLib3Dev13ScreenGraphic13drawRectangleEtttttt) for EmbSysLib::Dev::ScreenGraphic::drawRectangle(unsigned short, unsigned short, unsigned short, unsigned short, unsigned short, unsigned short)
    lib.o(.rodata._ZTVN9EmbSysLib3Dev13ScreenGraphicE) refers to lib.o(.text._ZN9EmbSysLib3Dev13ScreenGraphic10drawCircleEttttt) for EmbSysLib::Dev::ScreenGraphic::drawCircle(unsigned short, unsigned short, unsigned short, unsigned short, unsigned short)
    lib.o(.rodata._ZTVN9EmbSysLib3Dev13ScreenGraphicE) refers to lib.o(.text._ZN9EmbSysLib3Dev13ScreenGraphic10drawCircleEtttt) for EmbSysLib::Dev::ScreenGraphic::drawCircle(unsigned short, unsigned short, unsigned short, unsigned short)
    lib.o(.rodata._ZTVN9EmbSysLib3Dev13ScreenGraphicE) refers to lib.o(.text._ZN9EmbSysLib3Dev13ScreenGraphic8drawLineEtttttt) for EmbSysLib::Dev::ScreenGraphic::drawLine(unsigned short, unsigned short, unsigned short, unsigned short, unsigned short, unsigned short)
    lib.o(.rodata._ZTVN9EmbSysLib3Dev13ScreenGraphicE) refers to lib.o(.text._ZN9EmbSysLib3Dev13ScreenGraphic10drawBitmapEttRNS_2Hw6BitmapE) for EmbSysLib::Dev::ScreenGraphic::drawBitmap(unsigned short, unsigned short, EmbSysLib::Hw::Bitmap&)
    lib.o(.rodata._ZTVN9EmbSysLib3Dev7PointerE) refers to lib.o(.text._ZN9EmbSysLib3Dev7Pointer3getEv) for EmbSysLib::Dev::Pointer::get()
    lib.o(.rodata._ZTVN9EmbSysLib3Dev11TaskManager5ClockE) refers to lib.o(.text._ZN9EmbSysLib3Dev11TaskManager5Clock7getTicsEv) for EmbSysLib::Dev::TaskManager::Clock::getTics()
    lib.o(.rodata._ZTVN9EmbSysLib3Dev11TaskManager5ClockE) refers to lib.o(.text._ZN9EmbSysLib3Dev11TaskManager5Clock12getTimeOfTicEv) for EmbSysLib::Dev::TaskManager::Clock::getTimeOfTic()
    lib.o(.rodata._ZTVN9EmbSysLib3Dev8TerminalE) refers to lib.o(.text._ZN9EmbSysLib3Dev8Terminal6printfEPKcz) for EmbSysLib::Dev::Terminal::printf(char const*, ...)
    lib.o(.rodata._ZTVN9EmbSysLib4Ctrl13DigitalButtonE) refers to lib.o(.text._ZN9EmbSysLib4Ctrl13DigitalButton6updateEv) for EmbSysLib::Ctrl::DigitalButton::update()
    lib.o(.rodata._ZTVN9EmbSysLib4Ctrl14DigitalEncoderE) refers to lib.o(.text._ZN9EmbSysLib4Ctrl14DigitalEncoder6updateEv) for EmbSysLib::Ctrl::DigitalEncoder::update()
    lib.o(.rodata._ZTVN9EmbSysLib4Ctrl14DigitalEncoderE) refers to lib.o(.text._ZN9EmbSysLib4Ctrl14DigitalEncoder7getCtrlEv) for EmbSysLib::Ctrl::DigitalEncoder::getCtrl()
    lib.o(.rodata._ZTVN9EmbSysLib4Ctrl14DigitalEncoderE) refers to cxa_virtual.cpp.o(.text.__cxa_pure_virtual) for __cxa_pure_virtual
    lib.o(.rodata._ZTVN9EmbSysLib4Ctrl22DigitalEncoderJoystickE) refers to lib.o(.text._ZN9EmbSysLib4Ctrl14DigitalEncoder6updateEv) for EmbSysLib::Ctrl::DigitalEncoder::update()
    lib.o(.rodata._ZTVN9EmbSysLib4Ctrl22DigitalEncoderJoystickE) refers to lib.o(.text._ZN9EmbSysLib4Ctrl14DigitalEncoder7getCtrlEv) for EmbSysLib::Ctrl::DigitalEncoder::getCtrl()
    lib.o(.rodata._ZTVN9EmbSysLib4Ctrl22DigitalEncoderJoystickE) refers to lib.o(.text._ZN9EmbSysLib4Ctrl22DigitalEncoderJoystick12getIncrementEv) for EmbSysLib::Ctrl::DigitalEncoderJoystick::getIncrement()
    lib.o(.rodata._ZTVN9EmbSysLib4Ctrl24DigitalEncoderRotaryknobE) refers to lib.o(.text._ZN9EmbSysLib4Ctrl14DigitalEncoder6updateEv) for EmbSysLib::Ctrl::DigitalEncoder::update()
    lib.o(.rodata._ZTVN9EmbSysLib4Ctrl24DigitalEncoderRotaryknobE) refers to lib.o(.text._ZN9EmbSysLib4Ctrl14DigitalEncoder7getCtrlEv) for EmbSysLib::Ctrl::DigitalEncoder::getCtrl()
    lib.o(.rodata._ZTVN9EmbSysLib4Ctrl24DigitalEncoderRotaryknobE) refers to lib.o(.text._ZN9EmbSysLib4Ctrl24DigitalEncoderRotaryknob12getIncrementEv) for EmbSysLib::Ctrl::DigitalEncoderRotaryknob::getIncrement()
    lib.o(.rodata._ZTVN9EmbSysLib4Ctrl16DigitalIndicatorE) refers to lib.o(.text._ZN9EmbSysLib4Ctrl16DigitalIndicator6updateEv) for EmbSysLib::Ctrl::DigitalIndicator::update()
    lib.o(.rodata._ZTVN9EmbSysLib4Ctrl16DigitalIndicatorE) refers to lib.o(.text._ZN9EmbSysLib4Ctrl16DigitalIndicator3clrEv) for EmbSysLib::Ctrl::DigitalIndicator::clr()
    lib.o(.rodata._ZTVN9EmbSysLib4Ctrl16DigitalIndicatorE) refers to lib.o(.text._ZN9EmbSysLib4Ctrl16DigitalIndicator7triggerEt) for EmbSysLib::Ctrl::DigitalIndicator::trigger(unsigned short)
    lib.o(.rodata._ZTVN9EmbSysLib3Mod8USB_Uart13CtrlInterfaceE) refers to lib.o(.text._ZN9EmbSysLib3Mod8USB_Uart13CtrlInterface7onStartEv) for EmbSysLib::Mod::USB_Uart::CtrlInterface::onStart()
    lib.o(.rodata._ZTVN9EmbSysLib3Mod8USB_Uart13CtrlInterfaceE) refers to lib.o(.text._ZN9EmbSysLib3Mod8USB_Uart13CtrlInterface6onStopEv) for EmbSysLib::Mod::USB_Uart::CtrlInterface::onStop()
    lib.o(.rodata._ZTVN9EmbSysLib3Mod8USB_Uart13CtrlInterfaceE) refers to lib.o(.text._ZN9EmbSysLib2Hw18USBdeviceInterface16onConfigEndpointEhRNS_3Std11DataPointerEt) for EmbSysLib::Hw::USBdeviceInterface::onConfigEndpoint(unsigned char, EmbSysLib::Std::DataPointer&, unsigned short)
    lib.o(.rodata._ZTVN9EmbSysLib3Mod8USB_Uart13CtrlInterfaceE) refers to lib.o(.text._ZN9EmbSysLib3Mod8USB_Uart13CtrlInterface10onTransmitEhRNS_3Std11DataPointerE) for EmbSysLib::Mod::USB_Uart::CtrlInterface::onTransmit(unsigned char, EmbSysLib::Std::DataPointer&)
    lib.o(.rodata._ZTVN9EmbSysLib3Mod8USB_Uart13CtrlInterfaceE) refers to lib.o(.text._ZN9EmbSysLib2Hw18USBdeviceInterface9onReceiveEhtRNS_3Std11DataPointerE) for EmbSysLib::Hw::USBdeviceInterface::onReceive(unsigned char, unsigned short, EmbSysLib::Std::DataPointer&)
    lib.o(.rodata._ZTVN9EmbSysLib3Mod8USB_Uart13CtrlInterfaceE) refers to lib.o(.text._ZN9EmbSysLib3Mod8USB_Uart13CtrlInterface16onRequestCtrl_INERNS_3Std11DataPointerEhtt) for EmbSysLib::Mod::USB_Uart::CtrlInterface::onRequestCtrl_IN(EmbSysLib::Std::DataPointer&, unsigned char, unsigned short, unsigned short)
    lib.o(.rodata._ZTVN9EmbSysLib3Mod8USB_Uart13CtrlInterfaceE) refers to lib.o(.text._ZN9EmbSysLib3Mod8USB_Uart13CtrlInterface17onRequestCtrl_OUTERNS_3Std11DataPointerEhtt) for EmbSysLib::Mod::USB_Uart::CtrlInterface::onRequestCtrl_OUT(EmbSysLib::Std::DataPointer&, unsigned char, unsigned short, unsigned short)
    lib.o(.rodata._ZTVN9EmbSysLib3Mod8USB_Uart13CtrlInterfaceE) refers to lib.o(.text._ZN9EmbSysLib2Hw18USBdeviceInterface14onTransmitCtrlEv) for EmbSysLib::Hw::USBdeviceInterface::onTransmitCtrl()
    lib.o(.rodata._ZTVN9EmbSysLib3Mod8USB_Uart13CtrlInterfaceE) refers to lib.o(.text._ZN9EmbSysLib2Hw18USBdeviceInterface13onReceiveCtrlEt) for EmbSysLib::Hw::USBdeviceInterface::onReceiveCtrl(unsigned short)
    lib.o(.rodata._ZTVN9EmbSysLib3Mod8USB_Uart13CtrlInterfaceE) refers to lib.o(.text._ZN9EmbSysLib2Hw18USBdeviceInterface15onGetDescriptorEt) for EmbSysLib::Hw::USBdeviceInterface::onGetDescriptor(unsigned short)
    lib.o(.rodata._ZTVN9EmbSysLib3Mod8USB_Uart13CtrlInterfaceE) refers to lib.o(.text._ZN9EmbSysLib2Hw18USBdeviceInterface17startTransmissionEh) for EmbSysLib::Hw::USBdeviceInterface::startTransmission(unsigned char)
    lib.o(.rodata._ZTVN9EmbSysLib3Mod8USB_UartE) refers to lib.o(.text._ZN9EmbSysLib2Hw18USBdeviceInterface7onStartEv) for EmbSysLib::Hw::USBdeviceInterface::onStart()
    lib.o(.rodata._ZTVN9EmbSysLib3Mod8USB_UartE) refers to lib.o(.text._ZN9EmbSysLib2Hw18USBdeviceInterface6onStopEv) for EmbSysLib::Hw::USBdeviceInterface::onStop()
    lib.o(.rodata._ZTVN9EmbSysLib3Mod8USB_UartE) refers to lib.o(.text._ZN9EmbSysLib3Mod8USB_Uart16onConfigEndpointEhRNS_3Std11DataPointerEt) for EmbSysLib::Mod::USB_Uart::onConfigEndpoint(unsigned char, EmbSysLib::Std::DataPointer&, unsigned short)
    lib.o(.rodata._ZTVN9EmbSysLib3Mod8USB_UartE) refers to lib.o(.text._ZN9EmbSysLib3Mod8USB_Uart10onTransmitEhRNS_3Std11DataPointerE) for EmbSysLib::Mod::USB_Uart::onTransmit(unsigned char, EmbSysLib::Std::DataPointer&)
    lib.o(.rodata._ZTVN9EmbSysLib3Mod8USB_UartE) refers to lib.o(.text._ZN9EmbSysLib3Mod8USB_Uart9onReceiveEhtRNS_3Std11DataPointerE) for EmbSysLib::Mod::USB_Uart::onReceive(unsigned char, unsigned short, EmbSysLib::Std::DataPointer&)
    lib.o(.rodata._ZTVN9EmbSysLib3Mod8USB_UartE) refers to lib.o(.text._ZN9EmbSysLib2Hw18USBdeviceInterface16onRequestCtrl_INERNS_3Std11DataPointerEhtt) for EmbSysLib::Hw::USBdeviceInterface::onRequestCtrl_IN(EmbSysLib::Std::DataPointer&, unsigned char, unsigned short, unsigned short)
    lib.o(.rodata._ZTVN9EmbSysLib3Mod8USB_UartE) refers to lib.o(.text._ZN9EmbSysLib2Hw18USBdeviceInterface17onRequestCtrl_OUTERNS_3Std11DataPointerEhtt) for EmbSysLib::Hw::USBdeviceInterface::onRequestCtrl_OUT(EmbSysLib::Std::DataPointer&, unsigned char, unsigned short, unsigned short)
    lib.o(.rodata._ZTVN9EmbSysLib3Mod8USB_UartE) refers to lib.o(.text._ZN9EmbSysLib2Hw18USBdeviceInterface14onTransmitCtrlEv) for EmbSysLib::Hw::USBdeviceInterface::onTransmitCtrl()
    lib.o(.rodata._ZTVN9EmbSysLib3Mod8USB_UartE) refers to lib.o(.text._ZN9EmbSysLib2Hw18USBdeviceInterface13onReceiveCtrlEt) for EmbSysLib::Hw::USBdeviceInterface::onReceiveCtrl(unsigned short)
    lib.o(.rodata._ZTVN9EmbSysLib3Mod8USB_UartE) refers to lib.o(.text._ZN9EmbSysLib2Hw18USBdeviceInterface15onGetDescriptorEt) for EmbSysLib::Hw::USBdeviceInterface::onGetDescriptor(unsigned short)
    lib.o(.rodata._ZTVN9EmbSysLib3Mod8USB_UartE) refers to lib.o(.text._ZN9EmbSysLib2Hw18USBdeviceInterface17startTransmissionEh) for EmbSysLib::Hw::USBdeviceInterface::startTransmission(unsigned char)
    lib.o(.rodata._ZTVN9EmbSysLib3Mod8USB_UartE) refers to lib.o(.text._ZN9EmbSysLib3Mod8USB_Uart7getByteEv) for EmbSysLib::Mod::USB_Uart::getByte()
    lib.o(.rodata._ZTVN9EmbSysLib3Mod8USB_UartE) refers to lib.o(.text._ZN9EmbSysLib3Mod8USB_Uart7setByteEh) for EmbSysLib::Mod::USB_Uart::setByte(unsigned char)
    lib.o(.rodata._ZTVN9EmbSysLib3Mod8USB_UartE) refers to lib.o(.text._ZN9EmbSysLib3Mod8USB_Uart12transmitByteEh) for EmbSysLib::Mod::USB_Uart::transmitByte(unsigned char)
    lib.o(.rodata._ZTVN9EmbSysLib3Mod8USB_UartE) refers to lib.o(.text._ZN9EmbSysLib2Hw4Uart3setEh) for EmbSysLib::Hw::Uart::set(unsigned char)
    lib.o(.rodata._ZTVN9EmbSysLib3Mod8USB_UartE) refers to lib.o(.text._ZN9EmbSysLib2Hw4Uart3setEPKht) for EmbSysLib::Hw::Uart::set(unsigned char const*, unsigned short)
    lib.o(.rodata._ZTVN9EmbSysLib3Mod8USB_UartE) refers to lib.o(.text._ZN9EmbSysLib2Hw4Uart3setEPKc) for EmbSysLib::Hw::Uart::set(char const*)
    lib.o(.rodata._ZTVN9EmbSysLib3Mod8USB_UartE) refers to lib.o(.text._ZN9EmbSysLib2Hw4Uart14isTxBufferFullEv) for EmbSysLib::Hw::Uart::isTxBufferFull()
    lib.o(.rodata._ZTVN9EmbSysLib3Mod8USB_UartE) refers to lib.o(.text._ZN9EmbSysLib2Hw4Uart20getFifoRemainingSizeEv) for EmbSysLib::Hw::Uart::getFifoRemainingSize()
    lib.o(.rodata._ZTVN9EmbSysLib3Mod8USB_UartE) refers to lib.o(.text._ZN9EmbSysLib2Hw4Uart3getERh) for EmbSysLib::Hw::Uart::get(unsigned char&)
    lib.o(.rodata._ZTVN9EmbSysLib3Mod8USB_UartE) refers to lib.o(.text._ZN9EmbSysLib2Hw4Uart3getEv) for EmbSysLib::Hw::Uart::get()
    lib.o(.rodata._ZTVN9EmbSysLib3Mod8USB_UartE) refers to lib.o(.text._ZN9EmbSysLib2Hw4Uart5isrRxEv) for EmbSysLib::Hw::Uart::isrRx()
    lib.o(.rodata._ZTVN9EmbSysLib3Mod8USB_UartE) refers to lib.o(.text._ZN9EmbSysLib2Hw4Uart5isrTxEv) for EmbSysLib::Hw::Uart::isrTx()
    lib.o(.rodata._ZTVN9EmbSysLib3Mod8USB_UartE) refers to lib.o(.text._ZThn12_N9EmbSysLib3Mod8USB_Uart12transmitByteEh) for non-virtual thunk to EmbSysLib::Mod::USB_Uart::transmitByte(unsigned char)
    lib.o(.rodata._ZTVN9EmbSysLib3Mod8USB_UartE) refers to lib.o(.text._ZThn12_N9EmbSysLib3Mod8USB_Uart7setByteEh) for non-virtual thunk to EmbSysLib::Mod::USB_Uart::setByte(unsigned char)
    lib.o(.rodata._ZTVN9EmbSysLib3Mod8USB_UartE) refers to lib.o(.text._ZThn12_N9EmbSysLib3Mod8USB_Uart7getByteEv) for non-virtual thunk to EmbSysLib::Mod::USB_Uart::getByte()
    lib.o(.rodata._ZTVN9EmbSysLib3Mod17USBinterfClassHIDE) refers to lib.o(.text._ZN9EmbSysLib2Hw18USBdeviceInterface7onStartEv) for EmbSysLib::Hw::USBdeviceInterface::onStart()
    lib.o(.rodata._ZTVN9EmbSysLib3Mod17USBinterfClassHIDE) refers to lib.o(.text._ZN9EmbSysLib2Hw18USBdeviceInterface6onStopEv) for EmbSysLib::Hw::USBdeviceInterface::onStop()
    lib.o(.rodata._ZTVN9EmbSysLib3Mod17USBinterfClassHIDE) refers to lib.o(.text._ZN9EmbSysLib3Mod17USBinterfClassHID16onConfigEndpointEhRNS_3Std11DataPointerEt) for EmbSysLib::Mod::USBinterfClassHID::onConfigEndpoint(unsigned char, EmbSysLib::Std::DataPointer&, unsigned short)
    lib.o(.rodata._ZTVN9EmbSysLib3Mod17USBinterfClassHIDE) refers to lib.o(.text._ZN9EmbSysLib3Mod17USBinterfClassHID10onTransmitEhRNS_3Std11DataPointerE) for EmbSysLib::Mod::USBinterfClassHID::onTransmit(unsigned char, EmbSysLib::Std::DataPointer&)
    lib.o(.rodata._ZTVN9EmbSysLib3Mod17USBinterfClassHIDE) refers to lib.o(.text._ZN9EmbSysLib2Hw18USBdeviceInterface9onReceiveEhtRNS_3Std11DataPointerE) for EmbSysLib::Hw::USBdeviceInterface::onReceive(unsigned char, unsigned short, EmbSysLib::Std::DataPointer&)
    lib.o(.rodata._ZTVN9EmbSysLib3Mod17USBinterfClassHIDE) refers to lib.o(.text._ZN9EmbSysLib3Mod17USBinterfClassHID16onRequestCtrl_INERNS_3Std11DataPointerEhtt) for EmbSysLib::Mod::USBinterfClassHID::onRequestCtrl_IN(EmbSysLib::Std::DataPointer&, unsigned char, unsigned short, unsigned short)
    lib.o(.rodata._ZTVN9EmbSysLib3Mod17USBinterfClassHIDE) refers to lib.o(.text._ZN9EmbSysLib3Mod17USBinterfClassHID17onRequestCtrl_OUTERNS_3Std11DataPointerEhtt) for EmbSysLib::Mod::USBinterfClassHID::onRequestCtrl_OUT(EmbSysLib::Std::DataPointer&, unsigned char, unsigned short, unsigned short)
    lib.o(.rodata._ZTVN9EmbSysLib3Mod17USBinterfClassHIDE) refers to lib.o(.text._ZN9EmbSysLib2Hw18USBdeviceInterface14onTransmitCtrlEv) for EmbSysLib::Hw::USBdeviceInterface::onTransmitCtrl()
    lib.o(.rodata._ZTVN9EmbSysLib3Mod17USBinterfClassHIDE) refers to lib.o(.text._ZN9EmbSysLib3Mod17USBinterfClassHID13onReceiveCtrlEt) for EmbSysLib::Mod::USBinterfClassHID::onReceiveCtrl(unsigned short)
    lib.o(.rodata._ZTVN9EmbSysLib3Mod17USBinterfClassHIDE) refers to lib.o(.text._ZN9EmbSysLib3Mod17USBinterfClassHID15onGetDescriptorEt) for EmbSysLib::Mod::USBinterfClassHID::onGetDescriptor(unsigned short)
    lib.o(.rodata._ZTVN9EmbSysLib3Mod17USBinterfClassHIDE) refers to lib.o(.text._ZN9EmbSysLib2Hw18USBdeviceInterface17startTransmissionEh) for EmbSysLib::Hw::USBdeviceInterface::startTransmission(unsigned char)
    lib.o(.rodata._ZTVN9EmbSysLib3Mod17USBinterfClassHIDE) refers to cxa_virtual.cpp.o(.text.__cxa_pure_virtual) for __cxa_pure_virtual
    lib.o(.rodata._ZTVN9EmbSysLib2Hw6ExtIntE) refers to lib.o(.text._ZN9EmbSysLib2Hw6ExtInt3addEPNS1_4TaskE) for EmbSysLib::Hw::ExtInt::add(EmbSysLib::Hw::ExtInt::Task*)
    lib.o(.rodata._ZTVN9EmbSysLib2Hw6ExtIntE) refers to cxa_virtual.cpp.o(.text.__cxa_pure_virtual) for __cxa_pure_virtual
    lib.o(.rodata._ZTVN9EmbSysLib2Hw6ExtIntE) refers to lib.o(.text._ZN9EmbSysLib2Hw6ExtInt10isrHandlerEv) for EmbSysLib::Hw::ExtInt::isrHandler()
    lib.o(.rodata._ZTVN9EmbSysLib2Hw19USBdeviceDescriptorE) refers to cxa_virtual.cpp.o(.text.__cxa_pure_virtual) for __cxa_pure_virtual
    lib.o(.rodata._ZTVN9EmbSysLib2Hw19USBdeviceDescriptorE) refers to lib.o(.text._ZN9EmbSysLib2Hw19USBdeviceDescriptor19getDescriptorDeviceEv) for EmbSysLib::Hw::USBdeviceDescriptor::getDescriptorDevice()
    lib.o(.rodata._ZTVN9EmbSysLib2Hw19USBdeviceDescriptorE) refers to lib.o(.text._ZN9EmbSysLib2Hw19USBdeviceDescriptor19getDescriptorConfigEh) for EmbSysLib::Hw::USBdeviceDescriptor::getDescriptorConfig(unsigned char)
    lib.o(.rodata._ZTVN9EmbSysLib2Hw19USBdeviceDescriptorE) refers to lib.o(.text._ZN9EmbSysLib2Hw19USBdeviceDescriptor22getDescriptorInterfaceEhh) for EmbSysLib::Hw::USBdeviceDescriptor::getDescriptorInterface(unsigned char, unsigned char)
    lib.o(.rodata._ZTVN9EmbSysLib2Hw19USBdeviceDescriptorE) refers to lib.o(.text._ZN9EmbSysLib2Hw19USBdeviceDescriptor21getDescriptorEndpointEhhh) for EmbSysLib::Hw::USBdeviceDescriptor::getDescriptorEndpoint(unsigned char, unsigned char, unsigned char)
    lib.o(.rodata._ZTVN9EmbSysLib2Hw19USBdeviceDescriptorE) refers to lib.o(.text._ZN9EmbSysLib2Hw19USBdeviceDescriptor16getDescriptorHIDEhhh) for EmbSysLib::Hw::USBdeviceDescriptor::getDescriptorHID(unsigned char, unsigned char, unsigned char)
    lib.o(.rodata._ZTVN9EmbSysLib2Hw19USBdeviceDescriptorE) refers to lib.o(.text._ZN9EmbSysLib2Hw19USBdeviceDescriptor22getDescriptorHIDreportEhhh) for EmbSysLib::Hw::USBdeviceDescriptor::getDescriptorHIDreport(unsigned char, unsigned char, unsigned char)
    lib.o(.rodata._ZTVN9EmbSysLib2Hw19USBdeviceDescriptorE) refers to lib.o(.text._ZN9EmbSysLib2Hw19USBdeviceDescriptor19getDescriptorStringEh) for EmbSysLib::Hw::USBdeviceDescriptor::getDescriptorString(unsigned char)
    lib.o(.rodata._ZTVN9EmbSysLib2Hw19USBdeviceDescriptorE) refers to lib.o(.text._ZN9EmbSysLib2Hw19USBdeviceDescriptor25getDescriptorDeviceVendorEv) for EmbSysLib::Hw::USBdeviceDescriptor::getDescriptorDeviceVendor()
    lib.o(.rodata._ZTVN9EmbSysLib2Hw19USBdeviceDescriptorE) refers to lib.o(.text._ZN9EmbSysLib2Hw19USBdeviceDescriptor17getMaxPacketSize0Ev) for EmbSysLib::Hw::USBdeviceDescriptor::getMaxPacketSize0()
    lib.o(.rodata._ZTVN9EmbSysLib2Hw19USBdeviceDescriptorE) refers to lib.o(.text._ZN9EmbSysLib2Hw19USBdeviceDescriptor21getConfigDeviceStatusEh) for EmbSysLib::Hw::USBdeviceDescriptor::getConfigDeviceStatus(unsigned char)
    startup.o(STACK) refers (Special) to heapauxi.o(.text) for __use_two_region_memory
    startup.o(HEAP) refers (Special) to heapauxi.o(.text) for __use_two_region_memory
    startup.o(RESET) refers (Special) to heapauxi.o(.text) for __use_two_region_memory
    startup.o(RESET) refers to startup.o(STACK) for __initial_sp
    startup.o(RESET) refers to startup.o(.text) for Reset_Handler
    startup.o(RESET) refers to lib.o(.text.PendSV_Handler) for PendSV_Handler
    startup.o(RESET) refers to lib.o(.text.SysTick_Handler) for SysTick_Handler
    startup.o(RESET) refers to lib.o(.text.ADC_IRQHandler) for ADC_IRQHandler
    startup.o(RESET) refers to lib.o(.text.TIM1_UP_TIM10_IRQHandler) for TIM1_UP_TIM10_IRQHandler
    startup.o(RESET) refers to lib.o(.text.TIM1_TRG_COM_TIM11_IRQHandler) for TIM1_TRG_COM_TIM11_IRQHandler
    startup.o(RESET) refers to lib.o(.text.TIM2_IRQHandler) for TIM2_IRQHandler
    startup.o(RESET) refers to lib.o(.text.TIM3_IRQHandler) for TIM3_IRQHandler
    startup.o(RESET) refers to lib.o(.text.TIM4_IRQHandler) for TIM4_IRQHandler
    startup.o(RESET) refers to lib.o(.text.USART1_IRQHandler) for USART1_IRQHandler
    startup.o(RESET) refers to lib.o(.text.USART2_IRQHandler) for USART2_IRQHandler
    startup.o(RESET) refers to lib.o(.text.USART3_IRQHandler) for USART3_IRQHandler
    startup.o(RESET) refers to lib.o(.text.TIM8_TRG_COM_TIM14_IRQHandler) for TIM8_TRG_COM_TIM14_IRQHandler
    startup.o(RESET) refers to lib.o(.text.TIM8_CC_IRQHandler) for TIM8_CC_IRQHandler
    startup.o(RESET) refers to lib.o(.text.TIM5_IRQHandler) for TIM5_IRQHandler
    startup.o(RESET) refers to lib.o(.text.UART4_IRQHandler) for UART4_IRQHandler
    startup.o(RESET) refers to lib.o(.text.UART5_IRQHandler) for UART5_IRQHandler
    startup.o(RESET) refers to lib.o(.text.TIM7_IRQHandler) for TIM7_IRQHandler
    startup.o(RESET) refers to lib.o(.text.OTG_FS_IRQHandler) for OTG_FS_IRQHandler
    startup.o(RESET) refers to lib.o(.text.USART6_IRQHandler) for USART6_IRQHandler
    startup.o(.text) refers (Special) to heapauxi.o(.text) for __use_two_region_memory
    startup.o(.text) refers to lib.o(.text.SystemInit) for SystemInit
    startup.o(.text) refers to __main.o(!!!main) for __main
    startup.o(.text) refers to startup.o(HEAP) for Heap_Mem
    startup.o(.text) refers to startup.o(STACK) for Stack_Mem
    vsnprintf.o(.text) refers (Special) to _printf_a.o(.ARM.Collect$$_printf_percent$$00000006) for _printf_a
    vsnprintf.o(.text) refers (Special) to _printf_c.o(.ARM.Collect$$_printf_percent$$00000013) for _printf_c
    vsnprintf.o(.text) refers (Special) to _printf_charcount.o(.text) for _printf_charcount
    vsnprintf.o(.text) refers (Special) to _printf_d.o(.ARM.Collect$$_printf_percent$$00000009) for _printf_d
    vsnprintf.o(.text) refers (Special) to _printf_e.o(.ARM.Collect$$_printf_percent$$00000004) for _printf_e
    vsnprintf.o(.text) refers (Special) to _printf_f.o(.ARM.Collect$$_printf_percent$$00000003) for _printf_f
    vsnprintf.o(.text) refers (Special) to printf1.o(x$fpl$printf1) for _printf_fp_dec
    vsnprintf.o(.text) refers (Special) to printf2.o(x$fpl$printf2) for _printf_fp_hex
    vsnprintf.o(.text) refers (Special) to _printf_g.o(.ARM.Collect$$_printf_percent$$00000005) for _printf_g
    vsnprintf.o(.text) refers (Special) to _printf_i.o(.ARM.Collect$$_printf_percent$$00000008) for _printf_i
    vsnprintf.o(.text) refers (Special) to _printf_dec.o(.text) for _printf_int_dec
    vsnprintf.o(.text) refers (Special) to _printf_l.o(.ARM.Collect$$_printf_percent$$00000012) for _printf_l
    vsnprintf.o(.text) refers (Special) to _printf_lc.o(.ARM.Collect$$_printf_percent$$00000015) for _printf_lc
    vsnprintf.o(.text) refers (Special) to _printf_ll.o(.ARM.Collect$$_printf_percent$$00000007) for _printf_ll
    vsnprintf.o(.text) refers (Special) to _printf_lld.o(.ARM.Collect$$_printf_percent$$0000000E) for _printf_lld
    vsnprintf.o(.text) refers (Special) to _printf_lli.o(.ARM.Collect$$_printf_percent$$0000000D) for _printf_lli
    vsnprintf.o(.text) refers (Special) to _printf_llo.o(.ARM.Collect$$_printf_percent$$00000010) for _printf_llo
    vsnprintf.o(.text) refers (Special) to _printf_llu.o(.ARM.Collect$$_printf_percent$$0000000F) for _printf_llu
    vsnprintf.o(.text) refers (Special) to _printf_llx.o(.ARM.Collect$$_printf_percent$$00000011) for _printf_llx
    vsnprintf.o(.text) refers (Special) to _printf_longlong_dec.o(.text) for _printf_longlong_dec
    vsnprintf.o(.text) refers (Special) to _printf_hex_int_ll_ptr.o(.text) for _printf_longlong_hex
    vsnprintf.o(.text) refers (Special) to _printf_oct_int_ll.o(.text) for _printf_longlong_oct
    vsnprintf.o(.text) refers (Special) to _printf_ls.o(.ARM.Collect$$_printf_percent$$00000016) for _printf_ls
    vsnprintf.o(.text) refers (Special) to _printf_n.o(.ARM.Collect$$_printf_percent$$00000001) for _printf_n
    vsnprintf.o(.text) refers (Special) to _printf_o.o(.ARM.Collect$$_printf_percent$$0000000B) for _printf_o
    vsnprintf.o(.text) refers (Special) to _printf_p.o(.ARM.Collect$$_printf_percent$$00000002) for _printf_p
    vsnprintf.o(.text) refers (Special) to _printf_percent.o(.ARM.Collect$$_printf_percent$$00000000) for _printf_percent
    vsnprintf.o(.text) refers (Special) to _printf_pad.o(.text) for _printf_post_padding
    vsnprintf.o(.text) refers (Special) to _printf_s.o(.ARM.Collect$$_printf_percent$$00000014) for _printf_s
    vsnprintf.o(.text) refers (Special) to _printf_str.o(.text) for _printf_str
    vsnprintf.o(.text) refers (Special) to _printf_truncate.o(.text) for _printf_truncate_signed
    vsnprintf.o(.text) refers (Special) to _printf_u.o(.ARM.Collect$$_printf_percent$$0000000A) for _printf_u
    vsnprintf.o(.text) refers (Special) to _printf_wctomb.o(.text) for _printf_wctomb
    vsnprintf.o(.text) refers (Special) to _printf_x.o(.ARM.Collect$$_printf_percent$$0000000C) for _printf_x
    vsnprintf.o(.text) refers to _printf_char_common.o(.text) for _printf_char_common
    vsnprintf.o(.text) refers to _snputc.o(.text) for _snputc
    atexit_cxa.o(.text) refers to cxa_atexit.o(.text) for __cxa_atexit
    atexit_cxa.o(.ARM.exidx) refers to atexit_cxa.o(.text) for .text
    cxa_atexit.o(.text) refers to aeabi_atexit.o(.text) for __aeabi_atexit
    cxa_atexit.o(.ARM.exidx) refers to cxa_atexit.o(.text) for .text
    rt_memcpy_v6.o(.text) refers to rt_memcpy_w.o(.text) for __aeabi_memcpy4
    rt_memclr.o(.text) refers to rt_memclr_w.o(.text) for _memset_w
    __main.o(!!!main) refers to __rtentry.o(.ARM.Collect$$rtentry$$00000000) for __rt_entry
    init_aeabi.o(.emb_text) refers (Special) to libinit2.o(.ARM.Collect$$libinit$$00000033) for __rt_lib_init_cpp_2
    init_aeabi.o(.init_array) refers (Special) to libinit2.o(.ARM.Collect$$libinit$$00000033) for __rt_lib_init_cpp_2
    init_aeabi.o(.dummy_text) refers (Special) to libinit2.o(.ARM.Collect$$libinit$$00000033) for __rt_lib_init_cpp_2
    init_aeabi.o(.text) refers (Special) to libinit2.o(.ARM.Collect$$libinit$$00000033) for __rt_lib_init_cpp_2
    init_aeabi.o(.ARM.exidx) refers (Special) to libinit2.o(.ARM.Collect$$libinit$$00000033) for __rt_lib_init_cpp_2
    init_aeabi.o(.ARM.exidx) refers to init_aeabi.o(.text) for .text
    d2f.o(x$fpl$d2f) refers (Special) to usenofp.o(x$fpl$usenofp) for __I$use$fp
    d2f.o(x$fpl$d2f) refers to fretinf.o(x$fpl$fretinf) for __fpl_fretinf
    d2f.o(x$fpl$d2f) refers to dnaninf.o(x$fpl$dnaninf) for __fpl_dnaninf
    ddiv.o(x$fpl$drdiv) refers (Special) to usenofp.o(x$fpl$usenofp) for __I$use$fp
    ddiv.o(x$fpl$drdiv) refers to ddiv.o(x$fpl$ddiv) for ddiv_entry
    ddiv.o(x$fpl$ddiv) refers (Special) to usenofp.o(x$fpl$usenofp) for __I$use$fp
    ddiv.o(x$fpl$ddiv) refers to dretinf.o(x$fpl$dretinf) for __fpl_dretinf
    ddiv.o(x$fpl$ddiv) refers to dnaninf.o(x$fpl$dnaninf) for __fpl_dnaninf
    dfix.o(x$fpl$dfix) refers (Special) to usenofp.o(x$fpl$usenofp) for __I$use$fp
    dfix.o(x$fpl$dfix) refers to dnaninf.o(x$fpl$dnaninf) for __fpl_dnaninf
    dfix.o(x$fpl$dfixr) refers (Special) to usenofp.o(x$fpl$usenofp) for __I$use$fp
    dfix.o(x$fpl$dfixr) refers to dnaninf.o(x$fpl$dnaninf) for __fpl_dnaninf
    dfixu.o(x$fpl$dfixu) refers (Special) to usenofp.o(x$fpl$usenofp) for __I$use$fp
    dfixu.o(x$fpl$dfixu) refers to dnaninf.o(x$fpl$dnaninf) for __fpl_dnaninf
    dfixu.o(x$fpl$dfixur) refers (Special) to usenofp.o(x$fpl$usenofp) for __I$use$fp
    dfixu.o(x$fpl$dfixur) refers to dnaninf.o(x$fpl$dnaninf) for __fpl_dnaninf
    dflt_clz.o(x$fpl$dfltu) refers (Special) to usenofp.o(x$fpl$usenofp) for __I$use$fp
    dflt_clz.o(x$fpl$dflt) refers (Special) to usenofp.o(x$fpl$usenofp) for __I$use$fp
    dflt_clz.o(x$fpl$dfltn) refers (Special) to usenofp.o(x$fpl$usenofp) for __I$use$fp
    dmul.o(x$fpl$dmul) refers (Special) to usenofp.o(x$fpl$usenofp) for __I$use$fp
    dmul.o(x$fpl$dmul) refers to dretinf.o(x$fpl$dretinf) for __fpl_dretinf
    dmul.o(x$fpl$dmul) refers to dnaninf.o(x$fpl$dnaninf) for __fpl_dnaninf
    new.cpp.o(.text._ZSt17__throw_bad_allocv) refers to abort.o(.text) for abort
    new.cpp.o(.ARM.exidx.text._ZSt17__throw_bad_allocv) refers to new.cpp.o(.text._ZSt17__throw_bad_allocv) for [Anonymous Symbol]
    new.cpp.o(.text._Znwj) refers to h1_alloc.o(.text) for malloc
    new.cpp.o(.text._Znwj) refers to cxa_handlers.cpp.o(.text._ZSt15get_new_handlerv) for std::get_new_handler()
    new.cpp.o(.ARM.exidx.text._Znwj) refers to new.cpp.o(.text._Znwj) for [Anonymous Symbol]
    new.cpp.o(.text._ZnwjRKSt9nothrow_t) refers to new.cpp.o(.text._Znwj) for operator new(unsigned int)
    new.cpp.o(.ARM.exidx.text._ZnwjRKSt9nothrow_t) refers to new.cpp.o(.text._ZnwjRKSt9nothrow_t) for [Anonymous Symbol]
    new.cpp.o(.text._Znaj) refers to new.cpp.o(.text._Znwj) for operator new(unsigned int)
    new.cpp.o(.ARM.exidx.text._Znaj) refers to new.cpp.o(.text._Znaj) for [Anonymous Symbol]
    new.cpp.o(.text._ZnajRKSt9nothrow_t) refers to new.cpp.o(.text._Znaj) for operator new[](unsigned int)
    new.cpp.o(.ARM.exidx.text._ZnajRKSt9nothrow_t) refers to new.cpp.o(.text._ZnajRKSt9nothrow_t) for [Anonymous Symbol]
    new.cpp.o(.text._ZdlPv) refers to h1_free.o(.text) for free
    new.cpp.o(.ARM.exidx.text._ZdlPv) refers to new.cpp.o(.text._ZdlPv) for [Anonymous Symbol]
    new.cpp.o(.text._ZdlPvRKSt9nothrow_t) refers to new.cpp.o(.text._ZdlPv) for operator delete(void*)
    new.cpp.o(.ARM.exidx.text._ZdlPvRKSt9nothrow_t) refers to new.cpp.o(.text._ZdlPvRKSt9nothrow_t) for [Anonymous Symbol]
    new.cpp.o(.text._ZdlPvj) refers to new.cpp.o(.text._ZdlPv) for operator delete(void*)
    new.cpp.o(.ARM.exidx.text._ZdlPvj) refers to new.cpp.o(.text._ZdlPvj) for [Anonymous Symbol]
    new.cpp.o(.text._ZdaPv) refers to new.cpp.o(.text._ZdlPv) for operator delete(void*)
    new.cpp.o(.ARM.exidx.text._ZdaPv) refers to new.cpp.o(.text._ZdaPv) for [Anonymous Symbol]
    new.cpp.o(.text._ZdaPvRKSt9nothrow_t) refers to new.cpp.o(.text._ZdaPv) for operator delete[](void*)
    new.cpp.o(.ARM.exidx.text._ZdaPvRKSt9nothrow_t) refers to new.cpp.o(.text._ZdaPvRKSt9nothrow_t) for [Anonymous Symbol]
    new.cpp.o(.text._ZdaPvj) refers to new.cpp.o(.text._ZdaPv) for operator delete[](void*)
    new.cpp.o(.ARM.exidx.text._ZdaPvj) refers to new.cpp.o(.text._ZdaPvj) for [Anonymous Symbol]
    new.cpp.o(.text._ZnwjSt11align_val_t) refers to h1_memalign.o(.text) for posix_memalign
    new.cpp.o(.text._ZnwjSt11align_val_t) refers to cxa_handlers.cpp.o(.text._ZSt15get_new_handlerv) for std::get_new_handler()
    new.cpp.o(.ARM.exidx.text._ZnwjSt11align_val_t) refers to new.cpp.o(.text._ZnwjSt11align_val_t) for [Anonymous Symbol]
    new.cpp.o(.text._ZnwjSt11align_val_tRKSt9nothrow_t) refers to new.cpp.o(.text._ZnwjSt11align_val_t) for operator new(unsigned int, std::align_val_t)
    new.cpp.o(.ARM.exidx.text._ZnwjSt11align_val_tRKSt9nothrow_t) refers to new.cpp.o(.text._ZnwjSt11align_val_tRKSt9nothrow_t) for [Anonymous Symbol]
    new.cpp.o(.text._ZnajSt11align_val_t) refers to new.cpp.o(.text._ZnwjSt11align_val_t) for operator new(unsigned int, std::align_val_t)
    new.cpp.o(.ARM.exidx.text._ZnajSt11align_val_t) refers to new.cpp.o(.text._ZnajSt11align_val_t) for [Anonymous Symbol]
    new.cpp.o(.text._ZnajSt11align_val_tRKSt9nothrow_t) refers to new.cpp.o(.text._ZnajSt11align_val_t) for operator new[](unsigned int, std::align_val_t)
    new.cpp.o(.ARM.exidx.text._ZnajSt11align_val_tRKSt9nothrow_t) refers to new.cpp.o(.text._ZnajSt11align_val_tRKSt9nothrow_t) for [Anonymous Symbol]
    new.cpp.o(.text._ZdlPvSt11align_val_t) refers to h1_free.o(.text) for free
    new.cpp.o(.ARM.exidx.text._ZdlPvSt11align_val_t) refers to new.cpp.o(.text._ZdlPvSt11align_val_t) for [Anonymous Symbol]
    new.cpp.o(.text._ZdlPvSt11align_val_tRKSt9nothrow_t) refers to new.cpp.o(.text._ZdlPvSt11align_val_t) for operator delete(void*, std::align_val_t)
    new.cpp.o(.ARM.exidx.text._ZdlPvSt11align_val_tRKSt9nothrow_t) refers to new.cpp.o(.text._ZdlPvSt11align_val_tRKSt9nothrow_t) for [Anonymous Symbol]
    new.cpp.o(.text._ZdlPvjSt11align_val_t) refers to new.cpp.o(.text._ZdlPvSt11align_val_t) for operator delete(void*, std::align_val_t)
    new.cpp.o(.ARM.exidx.text._ZdlPvjSt11align_val_t) refers to new.cpp.o(.text._ZdlPvjSt11align_val_t) for [Anonymous Symbol]
    new.cpp.o(.text._ZdaPvSt11align_val_t) refers to new.cpp.o(.text._ZdlPvSt11align_val_t) for operator delete(void*, std::align_val_t)
    new.cpp.o(.ARM.exidx.text._ZdaPvSt11align_val_t) refers to new.cpp.o(.text._ZdaPvSt11align_val_t) for [Anonymous Symbol]
    new.cpp.o(.text._ZdaPvSt11align_val_tRKSt9nothrow_t) refers to new.cpp.o(.text._ZdaPvSt11align_val_t) for operator delete[](void*, std::align_val_t)
    new.cpp.o(.ARM.exidx.text._ZdaPvSt11align_val_tRKSt9nothrow_t) refers to new.cpp.o(.text._ZdaPvSt11align_val_tRKSt9nothrow_t) for [Anonymous Symbol]
    new.cpp.o(.text._ZdaPvjSt11align_val_t) refers to new.cpp.o(.text._ZdaPvSt11align_val_t) for operator delete[](void*, std::align_val_t)
    new.cpp.o(.ARM.exidx.text._ZdaPvjSt11align_val_t) refers to new.cpp.o(.text._ZdaPvjSt11align_val_t) for [Anonymous Symbol]
    cxa_virtual.cpp.o(.text.__cxa_pure_virtual) refers to abort_message.cpp.o(.text.abort_message) for abort_message
    cxa_virtual.cpp.o(.ARM.exidx.text.__cxa_pure_virtual) refers to cxa_virtual.cpp.o(.text.__cxa_pure_virtual) for [Anonymous Symbol]
    cxa_virtual.cpp.o(.text.__cxa_deleted_virtual) refers to abort_message.cpp.o(.text.abort_message) for abort_message
    cxa_virtual.cpp.o(.ARM.exidx.text.__cxa_deleted_virtual) refers to cxa_virtual.cpp.o(.text.__cxa_deleted_virtual) for [Anonymous Symbol]
    __rtentry.o(.ARM.Collect$$rtentry$$00000000) refers (Special) to __rtentry2.o(.ARM.Collect$$rtentry$$0000000A) for __rt_entry_li
    __rtentry.o(.ARM.Collect$$rtentry$$00000000) refers (Special) to __rtentry2.o(.ARM.Collect$$rtentry$$0000000D) for __rt_entry_main
    __rtentry.o(.ARM.Collect$$rtentry$$00000000) refers (Special) to __rtentry2.o(.ARM.Collect$$rtentry$$0000000C) for __rt_entry_postli_1
    __rtentry.o(.ARM.Collect$$rtentry$$00000000) refers (Special) to __rtentry2.o(.ARM.Collect$$rtentry$$00000009) for __rt_entry_postsh_1
    __rtentry.o(.ARM.Collect$$rtentry$$00000000) refers (Special) to __rtentry2.o(.ARM.Collect$$rtentry$$00000002) for __rt_entry_presh_1
    __rtentry.o(.ARM.Collect$$rtentry$$00000000) refers (Special) to __rtentry4.o(.ARM.Collect$$rtentry$$00000004) for __rt_entry_sh
    aeabi_ldiv0_sigfpe.o(.text) refers to rt_div0.o(.text) for __rt_div0
    malloc.o(.text) refers (Special) to hguard.o(.text) for __heap$guard
    malloc.o(.text) refers (Special) to init_alloc.o(.text) for _init_alloc
    malloc.o(.text) refers to rt_heap_descriptor_intlibspace.o(.text) for __rt_heap_descriptor
    malloc.o(.text) refers to heapstubs.o(.text) for __Heap_Alloc
    free.o(.text) refers (Special) to hguard.o(.text) for __heap$guard
    free.o(.text) refers to rt_heap_descriptor_intlibspace.o(.text) for __rt_heap_descriptor
    free.o(.text) refers to heapstubs.o(.text) for __Heap_Free
    h1_alloc.o(.text) refers (Special) to h1_init.o(.text) for __Heap_Initialize
    h1_alloc.o(.text) refers to rt_heap_descriptor_intlibspace.o(.text) for __rt_heap_descriptor
    h1_alloc.o(.text) refers to init_alloc.o(.text) for __Heap_Full
    h1_free.o(.text) refers to rt_heap_descriptor_intlibspace.o(.text) for __rt_heap_descriptor
    h1_memalign.o(.text) refers (Special) to h1_init.o(.text) for __Heap_Initialize
    h1_memalign.o(.text) refers to rt_heap_descriptor_intlibspace.o(.text) for __rt_heap_descriptor
    h1_memalign.o(.text) refers to init_alloc.o(.text) for __Heap_Full
    h1_alloc_threads.o(.text) refers (Special) to h1_init.o(.text) for __Heap_Initialize
    h1_alloc_threads.o(.text) refers to init_alloc.o(.text) for __Heap_Full
    h1_alloc_threads.o(.text) refers to rt_heap_descriptor_intlibspace.o(.text) for __rt_heap_descriptor
    h1_free_threads.o(.text) refers to rt_heap_descriptor_intlibspace.o(.text) for __rt_heap_descriptor
    h1_memalign_threads.o(.text) refers (Special) to h1_init.o(.text) for __Heap_Initialize
    h1_memalign_threads.o(.text) refers to rt_heap_descriptor_intlibspace.o(.text) for __rt_heap_descriptor
    h1_memalign_threads.o(.text) refers to init_alloc.o(.text) for __Heap_Full
    heap2.o(i._FDIterate) refers to heap2.o(.conststring) for .conststring
    heap2.o(i.__Heap_ProvideMemory$realtime) refers to fdtree.o(i._FDTree_Delete) for _FDTree_Delete
    heap2.o(i.__Heap_ProvideMemory$realtime) refers to fdtree.o(i._FDTree_Insert) for _FDTree_Insert
    heap2.o(i.__Heap_Stats$realtime) refers to heap2.o(i._Heap2_StatsIterate) for _Heap2_StatsIterate
    heap2.o(i.__Heap_Valid$realtime) refers to heap2.o(i._FDIterate) for _FDIterate
    heap2.o(i.__Heap_Valid$realtime) refers to heap2.o(.conststring) for .conststring
    heap2.o(i.free$realtime) refers to rt_heap_descriptor_intlibspace.o(.text) for __rt_heap_descriptor
    heap2.o(i.free$realtime) refers to fdtree.o(i._FDTree_Delete) for _FDTree_Delete
    heap2.o(i.free$realtime) refers to fdtree.o(i._FDTree_Insert) for _FDTree_Insert
    heap2.o(i.malloc$realtime) refers to rt_heap_descriptor_intlibspace.o(.text) for __rt_heap_descriptor
    heap2.o(i.malloc$realtime) refers to fdtree.o(i._FDTree_FindFirst) for _FDTree_FindFirst
    heap2.o(i.malloc$realtime) refers to init_alloc.o(.text) for __Heap_Full
    heap2.o(i.malloc$realtime) refers to fdtree.o(i._FDTree_RemoveNode) for _FDTree_RemoveNode
    heap2.o(i.malloc$realtime) refers to fdtree.o(i._FDTree_Insert) for _FDTree_Insert
    heap2.o(i.posix_memalign$realtime) refers to rt_heap_descriptor_intlibspace.o(.text) for __rt_heap_descriptor
    heap2.o(i.posix_memalign$realtime) refers to fdtree.o(i._FDTree_FindFirst) for _FDTree_FindFirst
    heap2.o(i.posix_memalign$realtime) refers to init_alloc.o(.text) for __Heap_Full
    heap2.o(i.posix_memalign$realtime) refers to fdtree.o(i._FDTree_RemoveNode) for _FDTree_RemoveNode
    heap2.o(i.posix_memalign$realtime) refers to fdtree.o(i._FDTree_Insert) for _FDTree_Insert
    heap2.o(i.realloc$realtime) refers to rt_heap_descriptor_intlibspace.o(.text) for __rt_heap_descriptor
    heap2.o(i.realloc$realtime) refers to fdtree.o(i._FDTree_Insert) for _FDTree_Insert
    heap2.o(i.realloc$realtime) refers to h1_free.o(.text) for free
    heap2.o(i.realloc$realtime) refers to h1_alloc.o(.text) for malloc
    heap2.o(i.realloc$realtime) refers to fdtree.o(i._FDTree_Delete) for _FDTree_Delete
    heap2.o(i.realloc$realtime) refers to rt_memcpy_w.o(.text) for __aeabi_memcpy4
    heap2_threads.o(i._FDIterate) refers to heap2_threads.o(.conststring) for .conststring
    heap2_threads.o(i.__Heap_Initialize$realtime$concurrent) refers to mutex_dummy.o(.text) for _mutex_initialize
    heap2_threads.o(i.__Heap_ProvideMemory$realtime$concurrent) refers to fdtree.o(i._FDTree_Delete) for _FDTree_Delete
    heap2_threads.o(i.__Heap_ProvideMemory$realtime$concurrent) refers to fdtree.o(i._FDTree_Insert) for _FDTree_Insert
    heap2_threads.o(i.__Heap_Stats$realtime$concurrent) refers to heap2_threads.o(i._Heap2_StatsIterate) for _Heap2_StatsIterate
    heap2_threads.o(i.__Heap_Valid$realtime$concurrent) refers to heap2_threads.o(i._FDIterate) for _FDIterate
    heap2_threads.o(i.__Heap_Valid$realtime$concurrent) refers to heap2_threads.o(.conststring) for .conststring
    heap2_threads.o(i.free$realtime$concurrent) refers to rt_heap_descriptor_intlibspace.o(.text) for __rt_heap_descriptor
    heap2_threads.o(i.free$realtime$concurrent) refers to fdtree.o(i._FDTree_Delete) for _FDTree_Delete
    heap2_threads.o(i.free$realtime$concurrent) refers to fdtree.o(i._FDTree_Insert) for _FDTree_Insert
    heap2_threads.o(i.malloc$realtime$concurrent) refers to rt_heap_descriptor_intlibspace.o(.text) for __rt_heap_descriptor
    heap2_threads.o(i.malloc$realtime$concurrent) refers to fdtree.o(i._FDTree_FindFirst) for _FDTree_FindFirst
    heap2_threads.o(i.malloc$realtime$concurrent) refers to init_alloc.o(.text) for __Heap_Full
    heap2_threads.o(i.malloc$realtime$concurrent) refers to fdtree.o(i._FDTree_RemoveNode) for _FDTree_RemoveNode
    heap2_threads.o(i.malloc$realtime$concurrent) refers to fdtree.o(i._FDTree_Insert) for _FDTree_Insert
    heap2_threads.o(i.posix_memalign$realtime$concurrent) refers to rt_heap_descriptor_intlibspace.o(.text) for __rt_heap_descriptor
    heap2_threads.o(i.posix_memalign$realtime$concurrent) refers to fdtree.o(i._FDTree_FindFirst) for _FDTree_FindFirst
    heap2_threads.o(i.posix_memalign$realtime$concurrent) refers to init_alloc.o(.text) for __Heap_Full
    heap2_threads.o(i.posix_memalign$realtime$concurrent) refers to fdtree.o(i._FDTree_RemoveNode) for _FDTree_RemoveNode
    heap2_threads.o(i.posix_memalign$realtime$concurrent) refers to fdtree.o(i._FDTree_Insert) for _FDTree_Insert
    heap2_threads.o(i.realloc$realtime$concurrent) refers to rt_heap_descriptor_intlibspace.o(.text) for __rt_heap_descriptor
    heap2_threads.o(i.realloc$realtime$concurrent) refers to fdtree.o(i._FDTree_Insert) for _FDTree_Insert
    heap2_threads.o(i.realloc$realtime$concurrent) refers to h1_free.o(.text) for free
    heap2_threads.o(i.realloc$realtime$concurrent) refers to h1_alloc.o(.text) for malloc
    heap2_threads.o(i.realloc$realtime$concurrent) refers to fdtree.o(i._FDTree_Delete) for _FDTree_Delete
    heap2_threads.o(i.realloc$realtime$concurrent) refers to rt_memcpy_w.o(.text) for __aeabi_memcpy4
    __printf.o(.text) refers to _printf_percent.o(.ARM.Collect$$_printf_percent$$00000000) for _printf_percent
    _printf_str.o(.text) refers (Special) to _printf_char.o(.text) for _printf_cs_common
    _printf_str.o(.text) refers (Weak) to _printf_pad.o(.text) for _printf_pre_padding
    _printf_str.o(.text) refers (Weak) to _printf_pad.o(.text) for _printf_post_padding
    _printf_dec.o(.text) refers (Weak) to _printf_truncate.o(.text) for _printf_truncate_signed
    _printf_dec.o(.text) refers (Weak) to _printf_truncate.o(.text) for _printf_truncate_unsigned
    _printf_dec.o(.text) refers to _printf_intcommon.o(.text) for _printf_int_common
    _printf_char_common.o(.text) refers to __printf_flags_ss_wp.o(.text) for __printf
    _printf_wctomb.o(.text) refers (Special) to _printf_wchar.o(.text) for _printf_lcs_common
    _printf_wctomb.o(.text) refers to _c32rtomb.o(.text) for _wcrtomb
    _printf_wctomb.o(.text) refers (Weak) to _printf_pad.o(.text) for _printf_pre_padding
    _printf_wctomb.o(.text) refers (Weak) to _printf_pad.o(.text) for _printf_post_padding
    _printf_wctomb.o(.text) refers to _printf_wctomb.o(.constdata) for .constdata
    _printf_wctomb.o(.constdata) refers (Special) to _printf_wchar.o(.text) for _printf_lcs_common
    _printf_longlong_dec.o(.text) refers to lludiv10.o(.text) for _ll_udiv10
    _printf_longlong_dec.o(.text) refers to _printf_intcommon.o(.text) for _printf_int_common
    _printf_oct_ll.o(.text) refers to _printf_intcommon.o(.text) for _printf_int_common
    _printf_oct_int.o(.text) refers (Weak) to _printf_truncate.o(.text) for _printf_truncate_unsigned
    _printf_oct_int.o(.text) refers to _printf_intcommon.o(.text) for _printf_int_common
    _printf_oct_int_ll.o(.text) refers to _printf_intcommon.o(.text) for _printf_int_common
    _printf_oct_int_ll.o(.text) refers (Weak) to _printf_truncate.o(.text) for _printf_truncate_unsigned
    _printf_hex_ll.o(.text) refers to _printf_intcommon.o(.text) for _printf_int_common
    _printf_hex_ll.o(.text) refers to _printf_hex_ll.o(.constdata) for .constdata
    _printf_hex_int.o(.text) refers (Weak) to _printf_truncate.o(.text) for _printf_truncate_unsigned
    _printf_hex_int.o(.text) refers to _printf_intcommon.o(.text) for _printf_int_common
    _printf_hex_int.o(.text) refers to _printf_hex_int.o(.constdata) for .constdata
    _printf_hex_int_ll.o(.text) refers to _printf_intcommon.o(.text) for _printf_int_common
    _printf_hex_int_ll.o(.text) refers (Weak) to _printf_truncate.o(.text) for _printf_truncate_unsigned
    _printf_hex_int_ll.o(.text) refers to _printf_hex_int_ll.o(.constdata) for .constdata
    _printf_hex_ptr.o(.text) refers to _printf_intcommon.o(.text) for _printf_int_common
    _printf_hex_ptr.o(.text) refers to _printf_hex_ptr.o(.constdata) for .constdata
    _printf_hex_int_ptr.o(.text) refers to _printf_intcommon.o(.text) for _printf_int_common
    _printf_hex_int_ptr.o(.text) refers (Weak) to _printf_truncate.o(.text) for _printf_truncate_unsigned
    _printf_hex_int_ptr.o(.text) refers to _printf_hex_int_ptr.o(.constdata) for .constdata
    _printf_hex_ll_ptr.o(.text) refers to _printf_intcommon.o(.text) for _printf_int_common
    _printf_hex_ll_ptr.o(.text) refers to _printf_hex_ll_ptr.o(.constdata) for .constdata
    _printf_hex_int_ll_ptr.o(.text) refers to _printf_intcommon.o(.text) for _printf_int_common
    _printf_hex_int_ll_ptr.o(.text) refers (Weak) to _printf_truncate.o(.text) for _printf_truncate_unsigned
    _printf_hex_int_ll_ptr.o(.text) refers to _printf_hex_int_ll_ptr.o(.constdata) for .constdata
    __printf_flags.o(.text) refers to _printf_percent.o(.ARM.Collect$$_printf_percent$$00000000) for _printf_percent
    __printf_flags.o(.text) refers to __printf_flags.o(.constdata) for .constdata
    __printf_ss.o(.text) refers to _printf_percent.o(.ARM.Collect$$_printf_percent$$00000000) for _printf_percent
    __printf_flags_ss.o(.text) refers to _printf_percent.o(.ARM.Collect$$_printf_percent$$00000000) for _printf_percent
    __printf_flags_ss.o(.text) refers to __printf_flags_ss.o(.constdata) for .constdata
    __printf_wp.o(.text) refers to __printf_wp.o(i._is_digit) for _is_digit
    __printf_wp.o(.text) refers to _printf_percent.o(.ARM.Collect$$_printf_percent$$00000000) for _printf_percent
    __printf_flags_wp.o(.text) refers to __printf_wp.o(i._is_digit) for _is_digit
    __printf_flags_wp.o(.text) refers to _printf_percent.o(.ARM.Collect$$_printf_percent$$00000000) for _printf_percent
    __printf_flags_wp.o(.text) refers to __printf_flags_wp.o(.constdata) for .constdata
    __printf_ss_wp.o(.text) refers to __printf_wp.o(i._is_digit) for _is_digit
    __printf_ss_wp.o(.text) refers to _printf_percent.o(.ARM.Collect$$_printf_percent$$00000000) for _printf_percent
    __printf_flags_ss_wp.o(.text) refers to __printf_wp.o(i._is_digit) for _is_digit
    __printf_flags_ss_wp.o(.text) refers to _printf_percent.o(.ARM.Collect$$_printf_percent$$00000000) for _printf_percent
    __printf_flags_ss_wp.o(.text) refers to __printf_flags_ss_wp.o(.constdata) for .constdata
    _printf_c.o(.ARM.Collect$$_printf_percent$$00000013) refers (Weak) to _printf_char.o(.text) for _printf_char
    _printf_s.o(.ARM.Collect$$_printf_percent$$00000014) refers (Weak) to _printf_char.o(.text) for _printf_string
    _printf_n.o(.ARM.Collect$$_printf_percent$$00000001) refers (Weak) to _printf_charcount.o(.text) for _printf_charcount
    _printf_x.o(.ARM.Collect$$_printf_percent$$0000000C) refers (Weak) to _printf_hex_int_ll_ptr.o(.text) for _printf_int_hex
    _printf_p.o(.ARM.Collect$$_printf_percent$$00000002) refers (Weak) to _printf_hex_int_ll_ptr.o(.text) for _printf_hex_ptr
    _printf_o.o(.ARM.Collect$$_printf_percent$$0000000B) refers (Weak) to _printf_oct_int_ll.o(.text) for _printf_int_oct
    _printf_i.o(.ARM.Collect$$_printf_percent$$00000008) refers (Weak) to _printf_dec.o(.text) for _printf_int_dec
    _printf_d.o(.ARM.Collect$$_printf_percent$$00000009) refers (Weak) to _printf_dec.o(.text) for _printf_int_dec
    _printf_u.o(.ARM.Collect$$_printf_percent$$0000000A) refers (Weak) to _printf_dec.o(.text) for _printf_int_dec
    _printf_f.o(.ARM.Collect$$_printf_percent$$00000003) refers (Weak) to printf1.o(x$fpl$printf1) for _printf_fp_dec
    _printf_e.o(.ARM.Collect$$_printf_percent$$00000004) refers (Weak) to printf1.o(x$fpl$printf1) for _printf_fp_dec
    _printf_g.o(.ARM.Collect$$_printf_percent$$00000005) refers (Weak) to printf1.o(x$fpl$printf1) for _printf_fp_dec
    _printf_a.o(.ARM.Collect$$_printf_percent$$00000006) refers (Weak) to printf2.o(x$fpl$printf2) for _printf_fp_hex
    _printf_percent.o(.ARM.Collect$$_printf_percent$$00000000) refers (Special) to _printf_percent_end.o(.ARM.Collect$$_printf_percent$$00000017) for _printf_percent_end
    _printf_lli.o(.ARM.Collect$$_printf_percent$$0000000D) refers (Special) to _printf_ll.o(.ARM.Collect$$_printf_percent$$00000007) for _printf_ll
    _printf_lli.o(.ARM.Collect$$_printf_percent$$0000000D) refers (Weak) to _printf_longlong_dec.o(.text) for _printf_longlong_dec
    _printf_lld.o(.ARM.Collect$$_printf_percent$$0000000E) refers (Special) to _printf_ll.o(.ARM.Collect$$_printf_percent$$00000007) for _printf_ll
    _printf_lld.o(.ARM.Collect$$_printf_percent$$0000000E) refers (Weak) to _printf_longlong_dec.o(.text) for _printf_longlong_dec
    _printf_llu.o(.ARM.Collect$$_printf_percent$$0000000F) refers (Special) to _printf_ll.o(.ARM.Collect$$_printf_percent$$00000007) for _printf_ll
    _printf_llu.o(.ARM.Collect$$_printf_percent$$0000000F) refers (Weak) to _printf_longlong_dec.o(.text) for _printf_longlong_dec
    _printf_lc.o(.ARM.Collect$$_printf_percent$$00000015) refers (Special) to _printf_l.o(.ARM.Collect$$_printf_percent$$00000012) for _printf_l
    _printf_lc.o(.ARM.Collect$$_printf_percent$$00000015) refers (Weak) to _printf_wchar.o(.text) for _printf_wchar
    _printf_ls.o(.ARM.Collect$$_printf_percent$$00000016) refers (Special) to _printf_l.o(.ARM.Collect$$_printf_percent$$00000012) for _printf_l
    _printf_ls.o(.ARM.Collect$$_printf_percent$$00000016) refers (Weak) to _printf_wchar.o(.text) for _printf_wstring
    _printf_llo.o(.ARM.Collect$$_printf_percent$$00000010) refers (Special) to _printf_ll.o(.ARM.Collect$$_printf_percent$$00000007) for _printf_ll
    _printf_llo.o(.ARM.Collect$$_printf_percent$$00000010) refers (Weak) to _printf_oct_int_ll.o(.text) for _printf_ll_oct
    _printf_llx.o(.ARM.Collect$$_printf_percent$$00000011) refers (Special) to _printf_ll.o(.ARM.Collect$$_printf_percent$$00000007) for _printf_ll
    _printf_llx.o(.ARM.Collect$$_printf_percent$$00000011) refers (Weak) to _printf_hex_int_ll_ptr.o(.text) for _printf_ll_hex
    abort.o(.text) refers to defsig_abrt_outer.o(.text) for __rt_SIGABRT
    abort.o(.text) refers (Weak) to libshutdown.o(.ARM.Collect$$libshutdown$$00000000) for __rt_lib_shutdown
    abort.o(.text) refers to sys_exit.o(.text) for _sys_exit
    atexit_aeabi.o(.text) refers to aeabi_atexit.o(.text) for __aeabi_atexit
    atexit_aeabi.o(.ARM.exidx) refers to atexit_aeabi.o(.text) for .text
    aeabi_atexit.o(.text) refers (Special) to cxa_finalize.o(.text) for __cxa_finalize
    aeabi_atexit.o(.text) refers to h1_alloc.o(.text) for malloc
    aeabi_atexit.o(.text) refers to rt_ddtor_pointer_addr_intlibspace.o(.text) for __rt_ddtor_pointer_addr
    aeabi_atexit.o(.ARM.exidx) refers (Special) to cxa_finalize.o(.text) for __cxa_finalize
    aeabi_atexit.o(.ARM.exidx) refers to aeabi_atexit.o(.text) for .text
    libinit2.o(.ARM.Collect$$libinit$$00000001) refers to fpinit.o(x$fpl$fpinit) for _fp_init
    libinit2.o(.ARM.Collect$$libinit$$00000007) refers (Weak) to init_alloc.o(.text) for _init_alloc
    libinit2.o(.ARM.Collect$$libinit$$00000011) refers (Weak) to rt_locale_intlibspace.o(.text) for __rt_locale
    libinit2.o(.ARM.Collect$$libinit$$00000012) refers to libinit2.o(.ARM.Collect$$libinit$$00000011) for .ARM.Collect$$libinit$$00000011
    libinit2.o(.ARM.Collect$$libinit$$00000014) refers to libinit2.o(.ARM.Collect$$libinit$$00000011) for .ARM.Collect$$libinit$$00000011
    libinit2.o(.ARM.Collect$$libinit$$00000014) refers (Weak) to lc_ctype_c.o(locale$$code) for _get_lc_ctype
    libinit2.o(.ARM.Collect$$libinit$$00000016) refers to libinit2.o(.ARM.Collect$$libinit$$00000011) for .ARM.Collect$$libinit$$00000011
    libinit2.o(.ARM.Collect$$libinit$$00000018) refers to libinit2.o(.ARM.Collect$$libinit$$00000011) for .ARM.Collect$$libinit$$00000011
    libinit2.o(.ARM.Collect$$libinit$$00000018) refers (Weak) to lc_numeric_c.o(locale$$code) for _get_lc_numeric
    libinit2.o(.ARM.Collect$$libinit$$0000001A) refers to libinit2.o(.ARM.Collect$$libinit$$00000011) for .ARM.Collect$$libinit$$00000011
    libinit2.o(.ARM.Collect$$libinit$$00000028) refers to argv_veneer.o(.emb_text) for __ARM_argv_veneer
    libinit2.o(.ARM.Collect$$libinit$$00000029) refers to argv_veneer.o(.emb_text) for __ARM_argv_veneer
    libinit2.o(.ARM.Collect$$libinit$$00000033) refers (Weak) to init_aeabi.o(.text) for __cpp_initialize__aeabi_
    dnaninf.o(x$fpl$dnaninf) refers (Special) to usenofp.o(x$fpl$usenofp) for __I$use$fp
    dretinf.o(x$fpl$dretinf) refers (Special) to usenofp.o(x$fpl$usenofp) for __I$use$fp
    fretinf.o(x$fpl$fretinf) refers (Special) to usenofp.o(x$fpl$usenofp) for __I$use$fp
    printf1.o(x$fpl$printf1) refers to _printf_fp_dec.o(.text) for _printf_fp_dec_real
    printf2.o(x$fpl$printf2) refers to _printf_fp_hex.o(.text) for _printf_fp_hex_real
    printf2b.o(x$fpl$printf2) refers to _printf_fp_hex.o(.text) for _printf_fp_hex_real
    abort_message.cpp.o(.text.abort_message) refers to abort.o(.text) for abort
    abort_message.cpp.o(.ARM.exidx.text.abort_message) refers to abort_message.cpp.o(.text.abort_message) for [Anonymous Symbol]
    cxa_handlers.cpp.o(.text._ZSt14get_unexpectedv) refers to cxa_default_handlers.cpp.o(.data.__cxa_unexpected_handler) for __cxa_unexpected_handler
    cxa_handlers.cpp.o(.ARM.exidx.text._ZSt14get_unexpectedv) refers to cxa_handlers.cpp.o(.text._ZSt14get_unexpectedv) for [Anonymous Symbol]
    cxa_handlers.cpp.o(.text._ZSt12__unexpectedPFvvE) refers to abort_message.cpp.o(.text.abort_message) for abort_message
    cxa_handlers.cpp.o(.ARM.exidx.text._ZSt12__unexpectedPFvvE) refers to cxa_handlers.cpp.o(.text._ZSt12__unexpectedPFvvE) for [Anonymous Symbol]
    cxa_handlers.cpp.o(.text._ZSt10unexpectedv) refers to cxa_default_handlers.cpp.o(.data.__cxa_unexpected_handler) for __cxa_unexpected_handler
    cxa_handlers.cpp.o(.text._ZSt10unexpectedv) refers to cxa_handlers.cpp.o(.text._ZSt12__unexpectedPFvvE) for std::__unexpected(void (*)())
    cxa_handlers.cpp.o(.ARM.exidx.text._ZSt10unexpectedv) refers to cxa_handlers.cpp.o(.text._ZSt10unexpectedv) for [Anonymous Symbol]
    cxa_handlers.cpp.o(.text._ZSt13get_terminatev) refers to cxa_default_handlers.cpp.o(.data.__cxa_terminate_handler) for __cxa_terminate_handler
    cxa_handlers.cpp.o(.ARM.exidx.text._ZSt13get_terminatev) refers to cxa_handlers.cpp.o(.text._ZSt13get_terminatev) for [Anonymous Symbol]
    cxa_handlers.cpp.o(.text._ZSt11__terminatePFvvE) refers to abort_message.cpp.o(.text.abort_message) for abort_message
    cxa_handlers.cpp.o(.ARM.exidx.text._ZSt11__terminatePFvvE) refers to cxa_handlers.cpp.o(.text._ZSt11__terminatePFvvE) for [Anonymous Symbol]
    cxa_handlers.cpp.o(.text._ZSt9terminatev) refers to cxa_default_handlers.cpp.o(.data.__cxa_terminate_handler) for __cxa_terminate_handler
    cxa_handlers.cpp.o(.text._ZSt9terminatev) refers to cxa_handlers.cpp.o(.text._ZSt11__terminatePFvvE) for std::__terminate(void (*)())
    cxa_handlers.cpp.o(.ARM.exidx.text._ZSt9terminatev) refers to cxa_handlers.cpp.o(.text._ZSt9terminatev) for [Anonymous Symbol]
    cxa_handlers.cpp.o(.text._ZSt15get_new_handlerv) refers to cxa_default_handlers.cpp.o(.bss.__cxa_new_handler) for __cxa_new_handler
    cxa_handlers.cpp.o(.ARM.exidx.text._ZSt15get_new_handlerv) refers to cxa_handlers.cpp.o(.text._ZSt15get_new_handlerv) for [Anonymous Symbol]
    sys_exit.o(.text) refers (Special) to use_no_semi.o(.text) for __I$use$semihosting
    sys_exit.o(.text) refers (Special) to indicate_semi.o(.text) for __semihosting_library_function
    sys_exit_hlt.o(.text) refers (Special) to use_no_semi.o(.text) for __I$use$semihosting
    sys_exit_hlt.o(.text) refers (Special) to indicate_semi.o(.text) for __semihosting_library_function
    __rtentry2.o(.ARM.Collect$$rtentry$$00000008) refers to boardinit2.o(.text) for _platform_post_stackheap_init
    __rtentry2.o(.ARM.Collect$$rtentry$$0000000A) refers to libinit.o(.ARM.Collect$$libinit$$00000000) for __rt_lib_init
    __rtentry2.o(.ARM.Collect$$rtentry$$0000000B) refers to boardinit3.o(.text) for _platform_post_lib_init
    __rtentry2.o(.ARM.Collect$$rtentry$$0000000D) refers to main.o(.text.main) for main
    __rtentry2.o(.ARM.Collect$$rtentry$$0000000D) refers to exit.o(.text) for exit
    __rtentry2.o(.ARM.exidx) refers to __rtentry2.o(.ARM.Collect$$rtentry$$00000001) for .ARM.Collect$$rtentry$$00000001
    __rtentry2.o(.ARM.exidx) refers to __rtentry2.o(.ARM.Collect$$rtentry$$00000008) for .ARM.Collect$$rtentry$$00000008
    __rtentry2.o(.ARM.exidx) refers to __rtentry2.o(.ARM.Collect$$rtentry$$0000000A) for .ARM.Collect$$rtentry$$0000000A
    __rtentry2.o(.ARM.exidx) refers to __rtentry2.o(.ARM.Collect$$rtentry$$0000000B) for .ARM.Collect$$rtentry$$0000000B
    __rtentry2.o(.ARM.exidx) refers to __rtentry2.o(.ARM.Collect$$rtentry$$0000000D) for .ARM.Collect$$rtentry$$0000000D
    __rtentry4.o(.ARM.Collect$$rtentry$$00000004) refers to sys_stackheap_outer.o(.text) for __user_setup_stackheap
    __rtentry4.o(.ARM.exidx) refers to __rtentry4.o(.ARM.Collect$$rtentry$$00000004) for .ARM.Collect$$rtentry$$00000004
    rt_div0.o(.text) refers to defsig_fpe_outer.o(.text) for __rt_SIGFPE
    rt_heap_descriptor.o(.text) refers to rt_heap_descriptor.o(.bss) for __rt_heap_descriptor_data
    rt_heap_descriptor_intlibspace.o(.text) refers to libspace.o(.bss) for __libspace_start
    rt_ddtor_pointer_addr.o(.text) refers to rt_ddtor_pointer_addr.o(.bss) for __rt_ddtor_pointer_addr_data
    rt_ddtor_pointer_addr_intlibspace.o(.text) refers to libspace.o(.bss) for __libspace_start
    init_alloc.o(.text) refers (Special) to hguard.o(.text) for __heap$guard
    init_alloc.o(.text) refers (Special) to libinit2.o(.ARM.Collect$$libinit$$00000007) for __rt_lib_init_heap_2
    init_alloc.o(.text) refers (Special) to maybetermalloc1.o(.text) for _maybe_terminate_alloc
    init_alloc.o(.text) refers to h1_extend.o(.text) for __Heap_ProvideMemory
    init_alloc.o(.text) refers to defsig_rtmem_outer.o(.text) for __rt_SIGRTMEM
    init_alloc.o(.text) refers to rt_heap_descriptor_intlibspace.o(.text) for __rt_heap_descriptor
    init_alloc.o(.text) refers to h1_init.o(.text) for __Heap_Initialize
    h1_init_threads.o(.text) refers to mutex_dummy.o(.text) for _mutex_initialize
    _printf_intcommon.o(.text) refers (Weak) to _printf_pad.o(.text) for _printf_pre_padding
    _printf_intcommon.o(.text) refers (Weak) to _printf_pad.o(.text) for _printf_pre_padding
    _printf_intcommon.o(.text) refers (Weak) to _printf_pad.o(.text) for _printf_post_padding
    _printf_fp_dec.o(.text) refers (Special) to usenofp.o(x$fpl$usenofp) for __I$use$fp
    _printf_fp_dec.o(.text) refers (Special) to lc_numeric_c.o(locale$$code) for _get_lc_numeric
    _printf_fp_dec.o(.text) refers to bigflt0.o(.text) for _btod_etento
    _printf_fp_dec.o(.text) refers to btod.o(CL$$btod_d2e) for _btod_d2e
    _printf_fp_dec.o(.text) refers to btod.o(CL$$btod_ediv) for _btod_ediv
    _printf_fp_dec.o(.text) refers to btod.o(CL$$btod_emul) for _btod_emul
    _printf_fp_dec.o(.text) refers to lludiv10.o(.text) for _ll_udiv10
    _printf_fp_dec.o(.text) refers to fpclassify.o(i.__ARM_fpclassify) for __ARM_fpclassify
    _printf_fp_dec.o(.text) refers to _printf_fp_infnan.o(.text) for _printf_fp_infnan
    _printf_fp_dec.o(.text) refers (Weak) to _printf_pad.o(.text) for _printf_pre_padding
    _printf_fp_dec.o(.text) refers (Weak) to _printf_pad.o(.text) for _printf_pre_padding
    _printf_fp_dec.o(.text) refers to rt_locale_intlibspace.o(.text) for __rt_locale
    _printf_fp_dec.o(.text) refers (Weak) to _printf_pad.o(.text) for _printf_post_padding
    _printf_fp_dec_accurate.o(.text) refers (Special) to usenofp.o(x$fpl$usenofp) for __I$use$fp
    _printf_fp_dec_accurate.o(.text) refers (Special) to lc_numeric_c.o(locale$$code) for _get_lc_numeric
    _printf_fp_dec_accurate.o(.text) refers to btod_accurate.o(.text) for _btod_main
    _printf_fp_dec_accurate.o(.text) refers to fpclassify.o(i.__ARM_fpclassify) for __ARM_fpclassify
    _printf_fp_dec_accurate.o(.text) refers to _printf_fp_infnan.o(.text) for _printf_fp_infnan
    _printf_fp_dec_accurate.o(.text) refers (Weak) to _printf_pad.o(.text) for _printf_pre_padding
    _printf_fp_dec_accurate.o(.text) refers (Weak) to _printf_pad.o(.text) for _printf_pre_padding
    _printf_fp_dec_accurate.o(.text) refers to rt_locale_intlibspace.o(.text) for __rt_locale
    _printf_fp_dec_accurate.o(.text) refers (Weak) to _printf_pad.o(.text) for _printf_post_padding
    _printf_fp_hex.o(.text) refers (Special) to usenofp.o(x$fpl$usenofp) for __I$use$fp
    _printf_fp_hex.o(.text) refers to fpclassify.o(i.__ARM_fpclassify) for __ARM_fpclassify
    _printf_fp_hex.o(.text) refers to _printf_fp_infnan.o(.text) for _printf_fp_infnan
    _printf_fp_hex.o(.text) refers (Weak) to _printf_pad.o(.text) for _printf_pre_padding
    _printf_fp_hex.o(.text) refers (Weak) to _printf_pad.o(.text) for _printf_pre_padding
    _printf_fp_hex.o(.text) refers (Weak) to _printf_pad.o(.text) for _printf_post_padding
    _printf_fp_hex.o(.text) refers to _printf_fp_hex.o(.constdata) for .constdata
    _printf_fp_hex.o(.constdata) refers (Special) to usenofp.o(x$fpl$usenofp) for __I$use$fp
    _printf_char.o(.text) refers (Weak) to _printf_str.o(.text) for _printf_str
    _printf_wchar.o(.text) refers (Weak) to _printf_wctomb.o(.text) for _printf_wctomb
    _c32rtomb.o(.text) refers to rt_ctype_table.o(.text) for __rt_ctype_table
    cxa_finalize.o(.text) refers (Special) to libshutdown2.o(.ARM.Collect$$libshutdown$$00000001) for __rt_lib_shutdown_cpp_2
    cxa_finalize.o(.text) refers to rt_ddtor_pointer_addr_intlibspace.o(.text) for __rt_ddtor_pointer_addr
    cxa_finalize.o(.text) refers to h1_free.o(.text) for free
    cxa_finalize.o(.ARM.exidx) refers (Special) to libshutdown2.o(.ARM.Collect$$libshutdown$$00000001) for __rt_lib_shutdown_cpp_2
    cxa_finalize.o(.ARM.exidx) refers to cxa_finalize.o(.text) for .text
    defsig_abrt_outer.o(.text) refers to defsig_abrt_inner.o(.text) for __rt_SIGABRT_inner
    defsig_abrt_outer.o(.text) refers to defsig_exit.o(.text) for __sig_exit
    defsig_abrt_formal.o(.text) refers to rt_raise.o(.text) for __rt_raise
    _get_argv.o(.text) refers (Special) to hrguard.o(.text) for __heap_region$guard
    _get_argv.o(.text) refers to h1_alloc.o(.text) for malloc
    _get_argv.o(.text) refers to defsig_rtmem_outer.o(.text) for __rt_SIGRTMEM
    _get_argv.o(.text) refers to sys_command.o(.text) for _sys_command_string
    argv_veneer.o(.emb_text) refers to no_argv.o(.text) for __ARM_get_argv
    cxa_default_handlers.cpp.o(.text._ZSt14set_unexpectedPFvvE) refers to cxa_default_handlers.cpp.o(.data.__cxa_unexpected_handler) for __cxa_unexpected_handler
    cxa_default_handlers.cpp.o(.text._ZSt14set_unexpectedPFvvE) refers to cxa_handlers.cpp.o(.text._ZSt9terminatev) for std::terminate()
    cxa_default_handlers.cpp.o(.ARM.exidx.text._ZSt14set_unexpectedPFvvE) refers to cxa_default_handlers.cpp.o(.text._ZSt14set_unexpectedPFvvE) for [Anonymous Symbol]
    cxa_default_handlers.cpp.o(.text._ZSt13set_terminatePFvvE) refers to cxa_default_handlers.cpp.o(.data.__cxa_terminate_handler) for __cxa_terminate_handler
    cxa_default_handlers.cpp.o(.text._ZSt13set_terminatePFvvE) refers to abort.o(.text) for abort
    cxa_default_handlers.cpp.o(.ARM.exidx.text._ZSt13set_terminatePFvvE) refers to cxa_default_handlers.cpp.o(.text._ZSt13set_terminatePFvvE) for [Anonymous Symbol]
    cxa_default_handlers.cpp.o(.text._ZSt15set_new_handlerPFvvE) refers to cxa_default_handlers.cpp.o(.bss.__cxa_new_handler) for __cxa_new_handler
    cxa_default_handlers.cpp.o(.ARM.exidx.text._ZSt15set_new_handlerPFvvE) refers to cxa_default_handlers.cpp.o(.text._ZSt15set_new_handlerPFvvE) for [Anonymous Symbol]
    cxa_default_handlers.cpp.o(.data.__cxa_terminate_handler) refers to abort.o(.text) for abort
    cxa_default_handlers.cpp.o(.data.__cxa_unexpected_handler) refers to cxa_handlers.cpp.o(.text._ZSt9terminatev) for std::terminate()
    sys_command.o(.text) refers (Special) to use_no_semi.o(.text) for __I$use$semihosting
    sys_command.o(.text) refers (Special) to indicate_semi.o(.text) for __semihosting_library_function
    sys_command_hlt.o(.text) refers (Special) to use_no_semi.o(.text) for __I$use$semihosting
    sys_command_hlt.o(.text) refers (Special) to indicate_semi.o(.text) for __semihosting_library_function
    libspace.o(.text) refers to libspace.o(.bss) for __libspace_start
    sys_stackheap_outer.o(.text) refers to libspace.o(.text) for __user_perproc_libspace
    sys_stackheap_outer.o(.text) refers to startup.o(.text) for __user_initial_stackheap
    rt_ctype_table.o(.text) refers to rt_locale_intlibspace.o(.text) for __rt_locale
    rt_ctype_table.o(.text) refers to lc_ctype_c.o(locale$$code) for _get_lc_ctype
    rt_raise.o(.text) refers to __raise.o(.text) for __raise
    rt_raise.o(.text) refers to sys_exit.o(.text) for _sys_exit
    rt_locale.o(.text) refers to rt_locale.o(.bss) for __rt_locale_data
    rt_locale_intlibspace.o(.text) refers to libspace.o(.bss) for __libspace_start
    maybetermalloc2.o(.text) refers (Special) to term_alloc.o(.text) for _terminate_alloc
    h1_extend.o(.text) refers to h1_free.o(.text) for free
    h1_extend_threads.o(.text) refers to h1_free_threads.o(.text) for free_internal$concurrent
    _printf_fp_infnan.o(.text) refers (Weak) to _printf_pad.o(.text) for _printf_pre_padding
    _printf_fp_infnan.o(.text) refers (Weak) to _printf_pad.o(.text) for _printf_post_padding
    bigflt0.o(.text) refers (Special) to usenofp.o(x$fpl$usenofp) for __I$use$fp
    bigflt0.o(.text) refers to btod.o(CL$$btod_emul) for _btod_emul
    bigflt0.o(.text) refers to btod.o(CL$$btod_ediv) for _btod_ediv
    bigflt0.o(.text) refers to bigflt0.o(.constdata) for .constdata
    bigflt0.o(.constdata) refers (Special) to usenofp.o(x$fpl$usenofp) for __I$use$fp
    btod.o(CL$$btod_d2e) refers (Special) to usenofp.o(x$fpl$usenofp) for __I$use$fp
    btod.o(CL$$btod_d2e) refers to btod.o(CL$$btod_d2e_norm_op1) for _d2e_norm_op1
    btod.o(CL$$btod_d2e_norm_op1) refers (Special) to usenofp.o(x$fpl$usenofp) for __I$use$fp
    btod.o(CL$$btod_d2e_norm_op1) refers to btod.o(CL$$btod_d2e_denorm_low) for _d2e_denorm_low
    btod.o(CL$$btod_d2e_denorm_low) refers (Special) to usenofp.o(x$fpl$usenofp) for __I$use$fp
    btod.o(CL$$btod_emul) refers (Special) to usenofp.o(x$fpl$usenofp) for __I$use$fp
    btod.o(CL$$btod_emul) refers to btod.o(CL$$btod_mult_common) for __btod_mult_common
    btod.o(CL$$btod_emul) refers to btod.o(CL$$btod_e2e) for _e2e
    btod.o(CL$$btod_ediv) refers (Special) to usenofp.o(x$fpl$usenofp) for __I$use$fp
    btod.o(CL$$btod_ediv) refers to btod.o(CL$$btod_div_common) for __btod_div_common
    btod.o(CL$$btod_ediv) refers to btod.o(CL$$btod_e2e) for _e2e
    btod.o(CL$$btod_emuld) refers (Special) to usenofp.o(x$fpl$usenofp) for __I$use$fp
    btod.o(CL$$btod_emuld) refers to btod.o(CL$$btod_mult_common) for __btod_mult_common
    btod.o(CL$$btod_emuld) refers to btod.o(CL$$btod_e2d) for _e2d
    btod.o(CL$$btod_edivd) refers (Special) to usenofp.o(x$fpl$usenofp) for __I$use$fp
    btod.o(CL$$btod_edivd) refers to btod.o(CL$$btod_div_common) for __btod_div_common
    btod.o(CL$$btod_edivd) refers to btod.o(CL$$btod_e2d) for _e2d
    btod.o(CL$$btod_e2e) refers (Special) to usenofp.o(x$fpl$usenofp) for __I$use$fp
    btod.o(CL$$btod_e2d) refers (Special) to usenofp.o(x$fpl$usenofp) for __I$use$fp
    btod.o(CL$$btod_e2d) refers to btod.o(CL$$btod_e2e) for _e2e
    btod.o(CL$$btod_mult_common) refers (Special) to usenofp.o(x$fpl$usenofp) for __I$use$fp
    btod.o(CL$$btod_div_common) refers (Special) to usenofp.o(x$fpl$usenofp) for __I$use$fp
    btod_accurate.o(.text) refers to btod_accurate_common.o(.text) for _btod_common
    lc_numeric_c.o(locale$$data) refers (Special) to libinit2.o(.ARM.Collect$$libinit$$00000018) for __rt_lib_init_lc_numeric_2
    lc_numeric_c.o(locale$$code) refers (Special) to libinit2.o(.ARM.Collect$$libinit$$00000018) for __rt_lib_init_lc_numeric_2
    lc_numeric_c.o(locale$$code) refers to strcmpv7m_pel.o(.text) for strcmp
    lc_numeric_c.o(locale$$code) refers to lc_numeric_c.o(locale$$data) for __lcnum_c_name
    exit.o(.text) refers to rtexit.o(.ARM.Collect$$rtexit$$00000000) for __rt_exit
    defsig_exit.o(.text) refers to sys_exit.o(.text) for _sys_exit
    defsig_abrt_inner.o(.text) refers to defsig_general.o(.text) for __default_signal_display
    defsig_fpe_outer.o(.text) refers to defsig_fpe_inner.o(.text) for __rt_SIGFPE_inner
    defsig_fpe_outer.o(.text) refers to defsig_exit.o(.text) for __sig_exit
    defsig_fpe_formal.o(.text) refers to rt_raise.o(.text) for __rt_raise
    defsig_rtmem_outer.o(.text) refers to defsig_rtmem_inner.o(.text) for __rt_SIGRTMEM_inner
    defsig_rtmem_outer.o(.text) refers to defsig_exit.o(.text) for __sig_exit
    defsig_rtmem_formal.o(.text) refers to rt_raise.o(.text) for __rt_raise
    heapauxa.o(.text) refers to heapauxa.o(.data) for .data
    _get_argv_nomalloc.o(.text) refers (Special) to hrguard.o(.text) for __heap_region$guard
    _get_argv_nomalloc.o(.text) refers to defsig_rtmem_outer.o(.text) for __rt_SIGRTMEM
    _get_argv_nomalloc.o(.text) refers to sys_command.o(.text) for _sys_command_string
    libinit.o(.ARM.Collect$$libinit$$00000000) refers (Special) to libinit2.o(.ARM.Collect$$libinit$$00000030) for __rt_lib_init_alloca_1
    libinit.o(.ARM.Collect$$libinit$$00000000) refers (Special) to libinit2.o(.ARM.Collect$$libinit$$0000002E) for __rt_lib_init_argv_1
    libinit.o(.ARM.Collect$$libinit$$00000000) refers (Special) to libinit2.o(.ARM.Collect$$libinit$$0000001D) for __rt_lib_init_atexit_1
    libinit.o(.ARM.Collect$$libinit$$00000000) refers (Special) to libinit2.o(.ARM.Collect$$libinit$$00000023) for __rt_lib_init_clock_1
    libinit.o(.ARM.Collect$$libinit$$00000000) refers (Special) to libinit2.o(.ARM.Collect$$libinit$$00000034) for __rt_lib_init_cpp_1
    libinit.o(.ARM.Collect$$libinit$$00000000) refers (Special) to libinit2.o(.ARM.Collect$$libinit$$00000032) for __rt_lib_init_exceptions_1
    libinit.o(.ARM.Collect$$libinit$$00000000) refers (Special) to libinit2.o(.ARM.Collect$$libinit$$00000001) for __rt_lib_init_fp_1
    libinit.o(.ARM.Collect$$libinit$$00000000) refers (Special) to libinit2.o(.ARM.Collect$$libinit$$00000021) for __rt_lib_init_fp_trap_1
    libinit.o(.ARM.Collect$$libinit$$00000000) refers (Special) to libinit2.o(.ARM.Collect$$libinit$$00000025) for __rt_lib_init_getenv_1
    libinit.o(.ARM.Collect$$libinit$$00000000) refers (Special) to libinit2.o(.ARM.Collect$$libinit$$0000000C) for __rt_lib_init_heap_1
    libinit.o(.ARM.Collect$$libinit$$00000000) refers (Special) to libinit2.o(.ARM.Collect$$libinit$$00000013) for __rt_lib_init_lc_collate_1
    libinit.o(.ARM.Collect$$libinit$$00000000) refers (Special) to libinit2.o(.ARM.Collect$$libinit$$00000015) for __rt_lib_init_lc_ctype_1
    libinit.o(.ARM.Collect$$libinit$$00000000) refers (Special) to libinit2.o(.ARM.Collect$$libinit$$00000017) for __rt_lib_init_lc_monetary_1
    libinit.o(.ARM.Collect$$libinit$$00000000) refers (Special) to libinit2.o(.ARM.Collect$$libinit$$00000019) for __rt_lib_init_lc_numeric_1
    libinit.o(.ARM.Collect$$libinit$$00000000) refers (Special) to libinit2.o(.ARM.Collect$$libinit$$0000001B) for __rt_lib_init_lc_time_1
    libinit.o(.ARM.Collect$$libinit$$00000000) refers (Special) to libinit2.o(.ARM.Collect$$libinit$$00000006) for __rt_lib_init_preinit_1
    libinit.o(.ARM.Collect$$libinit$$00000000) refers (Special) to libinit2.o(.ARM.Collect$$libinit$$00000010) for __rt_lib_init_rand_1
    libinit.o(.ARM.Collect$$libinit$$00000000) refers (Special) to libinit2.o(.ARM.Collect$$libinit$$00000004) for __rt_lib_init_relocate_pie_1
    libinit.o(.ARM.Collect$$libinit$$00000000) refers (Special) to libinit2.o(.ARM.Collect$$libinit$$00000035) for __rt_lib_init_return
    libinit.o(.ARM.Collect$$libinit$$00000000) refers (Special) to libinit2.o(.ARM.Collect$$libinit$$0000001F) for __rt_lib_init_signal_1
    libinit.o(.ARM.Collect$$libinit$$00000000) refers (Special) to libinit2.o(.ARM.Collect$$libinit$$00000027) for __rt_lib_init_stdio_1
    libinit.o(.ARM.Collect$$libinit$$00000000) refers (Special) to libinit2.o(.ARM.Collect$$libinit$$0000000E) for __rt_lib_init_user_alloc_1
    libshutdown2.o(.ARM.Collect$$libshutdown$$00000001) refers (Weak) to cxa_finalize.o(.text) for __cxa_finalize
    libshutdown2.o(.ARM.Collect$$libshutdown$$0000000D) refers (Weak) to term_alloc.o(.text) for _terminate_alloc
    istatus.o(x$fpl$ieeestatus) refers (Special) to usenofp.o(x$fpl$usenofp) for __I$use$fp
    fpclassify.o(i.__ARM_fpclassify) refers (Special) to usenofp.o(x$fpl$usenofp) for __I$use$fp
    rtexit.o(.ARM.Collect$$rtexit$$00000000) refers (Special) to rtexit2.o(.ARM.Collect$$rtexit$$00000004) for __rt_exit_exit
    rtexit.o(.ARM.Collect$$rtexit$$00000000) refers (Special) to rtexit2.o(.ARM.Collect$$rtexit$$00000003) for __rt_exit_ls
    rtexit.o(.ARM.Collect$$rtexit$$00000000) refers (Special) to rtexit2.o(.ARM.Collect$$rtexit$$00000002) for __rt_exit_prels_1
    rtexit.o(.ARM.exidx) refers (Special) to rtexit2.o(.ARM.Collect$$rtexit$$00000004) for __rt_exit_exit
    rtexit.o(.ARM.exidx) refers (Special) to rtexit2.o(.ARM.Collect$$rtexit$$00000003) for __rt_exit_ls
    rtexit.o(.ARM.exidx) refers (Special) to rtexit2.o(.ARM.Collect$$rtexit$$00000002) for __rt_exit_prels_1
    rtexit.o(.ARM.exidx) refers to rtexit.o(.ARM.Collect$$rtexit$$00000000) for .ARM.Collect$$rtexit$$00000000
    term_alloc.o(.text) refers (Special) to libshutdown2.o(.ARM.Collect$$libshutdown$$0000000E) for __rt_lib_shutdown_heap_2
    term_alloc.o(.text) refers to rt_heap_descriptor_intlibspace.o(.text) for __rt_heap_descriptor
    term_alloc.o(.text) refers to h1_final.o(.text) for __Heap_Finalize
    btod_accurate_common.o(.text) refers to llushr.o(.text) for __aeabi_llsr
    lc_ctype_c.o(locale$$data) refers (Special) to libinit2.o(.ARM.Collect$$libinit$$00000014) for __rt_lib_init_lc_ctype_2
    lc_ctype_c.o(locale$$code) refers (Special) to libinit2.o(.ARM.Collect$$libinit$$00000014) for __rt_lib_init_lc_ctype_2
    lc_ctype_c.o(locale$$code) refers to strcmpv7m_pel.o(.text) for strcmp
    lc_ctype_c.o(locale$$code) refers to lc_ctype_c.o(locale$$data) for __lcctype_c_name
    __raise.o(.text) refers to defsig.o(CL$$defsig) for __default_signal_handler
    defsig_general.o(.text) refers to sys_wrch.o(.text) for _ttywrch
    defsig_fpe_inner.o(.text) refers to defsig_general.o(.text) for __default_signal_display
    defsig_rtmem_inner.o(.text) refers to defsig_general.o(.text) for __default_signal_display
    sys_wrch.o(.text) refers (Special) to use_no_semi.o(.text) for __I$use$semihosting
    sys_wrch.o(.text) refers (Special) to indicate_semi.o(.text) for __semihosting_library_function
    sys_wrch_hlt.o(.text) refers (Special) to use_no_semi.o(.text) for __I$use$semihosting
    sys_wrch_hlt.o(.text) refers (Special) to indicate_semi.o(.text) for __semihosting_library_function
    rtexit2.o(.ARM.Collect$$rtexit$$00000003) refers to libshutdown.o(.ARM.Collect$$libshutdown$$00000000) for __rt_lib_shutdown
    rtexit2.o(.ARM.Collect$$rtexit$$00000004) refers to sys_exit.o(.text) for _sys_exit
    rtexit2.o(.ARM.exidx) refers to rtexit2.o(.ARM.Collect$$rtexit$$00000001) for .ARM.Collect$$rtexit$$00000001
    rtexit2.o(.ARM.exidx) refers to rtexit2.o(.ARM.Collect$$rtexit$$00000003) for .ARM.Collect$$rtexit$$00000003
    rtexit2.o(.ARM.exidx) refers to rtexit2.o(.ARM.Collect$$rtexit$$00000004) for .ARM.Collect$$rtexit$$00000004
    defsig.o(CL$$defsig) refers to defsig_abrt_inner.o(.text) for __rt_SIGABRT_inner
    defsig.o(CL$$defsig) refers to defsig_fpe_inner.o(.text) for __rt_SIGFPE_inner
    defsig.o(CL$$defsig) refers to defsig_rtmem_inner.o(.text) for __rt_SIGRTMEM_inner
    defsig_rtred_inner.o(.text) refers to defsig_general.o(.text) for __default_signal_display
    defsig_stak_inner.o(.text) refers to defsig_general.o(.text) for __default_signal_display
    defsig_pvfn_inner.o(.text) refers to defsig_general.o(.text) for __default_signal_display
    defsig_cppl_inner.o(.text) refers to defsig_general.o(.text) for __default_signal_display
    defsig_segv_inner.o(.text) refers to defsig_general.o(.text) for __default_signal_display
    defsig_other.o(.text) refers to defsig_general.o(.text) for __default_signal_display
    libshutdown.o(.ARM.Collect$$libshutdown$$00000000) refers (Special) to libshutdown2.o(.ARM.Collect$$libshutdown$$00000002) for __rt_lib_shutdown_cpp_1
    libshutdown.o(.ARM.Collect$$libshutdown$$00000000) refers (Special) to libshutdown2.o(.ARM.Collect$$libshutdown$$00000007) for __rt_lib_shutdown_fp_trap_1
    libshutdown.o(.ARM.Collect$$libshutdown$$00000000) refers (Special) to libshutdown2.o(.ARM.Collect$$libshutdown$$0000000F) for __rt_lib_shutdown_heap_1
    libshutdown.o(.ARM.Collect$$libshutdown$$00000000) refers (Special) to libshutdown2.o(.ARM.Collect$$libshutdown$$00000010) for __rt_lib_shutdown_return
    libshutdown.o(.ARM.Collect$$libshutdown$$00000000) refers (Special) to libshutdown2.o(.ARM.Collect$$libshutdown$$0000000A) for __rt_lib_shutdown_signal_1
    libshutdown.o(.ARM.Collect$$libshutdown$$00000000) refers (Special) to libshutdown2.o(.ARM.Collect$$libshutdown$$00000004) for __rt_lib_shutdown_stdio_1
    libshutdown.o(.ARM.Collect$$libshutdown$$00000000) refers (Special) to libshutdown2.o(.ARM.Collect$$libshutdown$$0000000C) for __rt_lib_shutdown_user_alloc_1
    main.o(.text._ZN9EmbSysLib2Hw7Dsi_Mcu4InitEttb) refers to lib.o(.text._Z18System_GetDSIclockv) for System_GetDSIclock()
    main.o(.ARM.exidx.text._ZN9EmbSysLib2Hw7Dsi_Mcu4InitEttb) refers to main.o(.text._ZN9EmbSysLib2Hw7Dsi_Mcu4InitEttb) for [Anonymous Symbol]
    main.o(.ARM.exidx.text._ZN9EmbSysLib2Hw9I2Cmaster6Device7isErrorEv) refers to main.o(.text._ZN9EmbSysLib2Hw9I2Cmaster6Device7isErrorEv) for [Anonymous Symbol]
    main.o(.text._ZN9EmbSysLib2Hw11MemoryImageC2ERNS0_6MemoryEPKc) refers to lib.o(.text._ZN9EmbSysLib2Hw6MemoryC2Etjhb) for EmbSysLib::Hw::Memory::Memory__sub_object(unsigned short, unsigned int, unsigned char, bool)
    main.o(.text._ZN9EmbSysLib2Hw11MemoryImageC2ERNS0_6MemoryEPKc) refers to main.o(.rodata._ZTVN9EmbSysLib2Hw11MemoryImageE) for vtable for EmbSysLib::Hw::MemoryImage
    main.o(.text._ZN9EmbSysLib2Hw11MemoryImageC2ERNS0_6MemoryEPKc) refers to strcmpv7m_pel.o(.text) for strcmp
    main.o(.text._ZN9EmbSysLib2Hw11MemoryImageC2ERNS0_6MemoryEPKc) refers to lib.o(.text._ZN9EmbSysLib3Std6Report5errorEt) for EmbSysLib::Std::Report::error(unsigned short)
    main.o(.ARM.exidx.text._ZN9EmbSysLib2Hw11MemoryImageC2ERNS0_6MemoryEPKc) refers to main.o(.text._ZN9EmbSysLib2Hw11MemoryImageC2ERNS0_6MemoryEPKc) for [Anonymous Symbol]
    main.o(.ARM.exidx.text._ZN9EmbSysLib2Hw11MemoryImage6getPtrEv) refers to main.o(.text._ZN9EmbSysLib2Hw11MemoryImage6getPtrEv) for [Anonymous Symbol]
    main.o(.text._ZN9EmbSysLib2Hw7Fmc_McuC2ENS1_7FMCtypeEb) refers to lib.o(.text._ZN9EmbSysLib2Hw9PinConfig3setENS1_8FunctionEj) for EmbSysLib::Hw::PinConfig::set(EmbSysLib::Hw::PinConfig::Function, unsigned int)
    main.o(.text._ZN9EmbSysLib2Hw7Fmc_McuC2ENS1_7FMCtypeEb) refers to main.o(.text._ZN9EmbSysLib2Hw7Fmc_Mcu10SDRAM_InitEv) for EmbSysLib::Hw::Fmc_Mcu::SDRAM_Init()
    main.o(.ARM.exidx.text._ZN9EmbSysLib2Hw7Fmc_McuC2ENS1_7FMCtypeEb) refers to main.o(.text._ZN9EmbSysLib2Hw7Fmc_McuC2ENS1_7FMCtypeEb) for [Anonymous Symbol]
    main.o(.ARM.exidx.text._ZN9EmbSysLib2Hw14DisplayGraphic8getWidthEv) refers to main.o(.text._ZN9EmbSysLib2Hw14DisplayGraphic8getWidthEv) for [Anonymous Symbol]
    main.o(.ARM.exidx.text._ZN9EmbSysLib2Hw14DisplayGraphic9getHeightEv) refers to main.o(.text._ZN9EmbSysLib2Hw14DisplayGraphic9getHeightEv) for [Anonymous Symbol]
    main.o(.ARM.exidx.text._ZN15myReportHandler8onReportEttb) refers to main.o(.text._ZN15myReportHandler8onReportEttb) for [Anonymous Symbol]
    main.o(.ARM.exidx.text._ZN9EmbSysLib2Hw14DisplayGraphic7refreshEv) refers to main.o(.text._ZN9EmbSysLib2Hw14DisplayGraphic7refreshEv) for [Anonymous Symbol]
    main.o(.ARM.exidx.text._ZN9EmbSysLib3Dev11TaskManager6updateEv) refers to main.o(.text._ZN9EmbSysLib3Dev11TaskManager6updateEv) for [Anonymous Symbol]
    main.o(.ARM.exidx.text._ZN9EmbSysLib3Dev11TaskManager3addEPNS1_4TaskE) refers to main.o(.text._ZN9EmbSysLib3Dev11TaskManager3addEPNS1_4TaskE) for [Anonymous Symbol]
    main.o(.ARM.exidx.text._ZN9EmbSysLib3Dev11TaskManager12getCycleTimeEv) refers to main.o(.text._ZN9EmbSysLib3Dev11TaskManager12getCycleTimeEv) for [Anonymous Symbol]
    main.o(.ARM.exidx.text._ZN9EmbSysLib3Dev11TaskManager7getTicsEv) refers to main.o(.text._ZN9EmbSysLib3Dev11TaskManager7getTicsEv) for [Anonymous Symbol]
    main.o(.ARM.exidx.text._ZN9EmbSysLib2Hw11MemoryImage6unlockEv) refers to main.o(.text._ZN9EmbSysLib2Hw11MemoryImage6unlockEv) for [Anonymous Symbol]
    main.o(.ARM.exidx.text._ZN9EmbSysLib2Hw11MemoryImage4lockEv) refers to main.o(.text._ZN9EmbSysLib2Hw11MemoryImage4lockEv) for [Anonymous Symbol]
    main.o(.text._ZN9EmbSysLib2Hw11MemoryImage9writeByteEjh) refers to lib.o(.text._ZN9EmbSysLib3Std6Report5errorEt) for EmbSysLib::Std::Report::error(unsigned short)
    main.o(.ARM.exidx.text._ZN9EmbSysLib2Hw11MemoryImage9writeByteEjh) refers to main.o(.text._ZN9EmbSysLib2Hw11MemoryImage9writeByteEjh) for [Anonymous Symbol]
    main.o(.ARM.exidx.text._ZN9EmbSysLib2Hw11MemoryImage8readByteEj) refers to main.o(.text._ZN9EmbSysLib2Hw11MemoryImage8readByteEj) for [Anonymous Symbol]
    main.o(.text._ZN9EmbSysLib2Hw7Fmc_Mcu10SDRAM_InitEv) refers to lib.o(.text._ZN9EmbSysLib2Hw6System13delayMilliSecEt) for EmbSysLib::Hw::System::delayMilliSec(unsigned short)
    main.o(.ARM.exidx.text._ZN9EmbSysLib2Hw7Fmc_Mcu10SDRAM_InitEv) refers to main.o(.text._ZN9EmbSysLib2Hw7Fmc_Mcu10SDRAM_InitEv) for [Anonymous Symbol]
    main.o(.ARM.exidx.text._ZN9EmbSysLib2Hw7Dsi_Mcu10writeShortEhh) refers to main.o(.text._ZN9EmbSysLib2Hw7Dsi_Mcu10writeShortEhh) for [Anonymous Symbol]
    main.o(.ARM.exidx.text._ZN9EmbSysLib2Hw7Dsi_Mcu9writeLongEPhj) refers to main.o(.text._ZN9EmbSysLib2Hw7Dsi_Mcu9writeLongEPhj) for [Anonymous Symbol]
    main.o(.rodata._ZTV15myReportHandler) refers to main.o(.text._ZN15myReportHandler8onReportEttb) for myReportHandler::onReport(unsigned short, unsigned short, bool)
    main.o(.rodata._ZTVN9EmbSysLib2Hw23DisplayGraphic_OTM8009AE) refers to cxa_virtual.cpp.o(.text.__cxa_pure_virtual) for __cxa_pure_virtual
    main.o(.rodata._ZTVN9EmbSysLib2Hw23DisplayGraphic_OTM8009AE) refers to main.o(.text._ZN9EmbSysLib2Hw14DisplayGraphic7refreshEv) for EmbSysLib::Hw::DisplayGraphic::refresh()
    main.o(.rodata._ZTVN9EmbSysLib2Hw23DisplayGraphic_OTM8009AE) refers to lib.o(.text._ZN9EmbSysLib2Hw14DisplayGraphic11gotoTextPosEhh) for EmbSysLib::Hw::DisplayGraphic::gotoTextPos(unsigned char, unsigned char)
    main.o(.rodata._ZTVN9EmbSysLib2Hw23DisplayGraphic_OTM8009AE) refers to lib.o(.text._ZN9EmbSysLib2Hw14DisplayGraphic7putCharEc) for EmbSysLib::Hw::DisplayGraphic::putChar(char)
    main.o(.rodata._ZTVN9EmbSysLib2Hw23DisplayGraphic_OTM8009AE) refers to lib.o(.text._ZN9EmbSysLib2Hw11DisplayChar9putStringEPKc) for EmbSysLib::Hw::DisplayChar::putString(char const*)
    main.o(.rodata._ZTVN9EmbSysLib2Hw23DisplayGraphic_OTM8009AE) refers to lib.o(.text._ZN9EmbSysLib2Hw11DisplayChar16getNumberOfLinesEv) for EmbSysLib::Hw::DisplayChar::getNumberOfLines()
    main.o(.rodata._ZTVN9EmbSysLib2Hw23DisplayGraphic_OTM8009AE) refers to lib.o(.text._ZN9EmbSysLib2Hw11DisplayChar18getNumberOfColumnsEv) for EmbSysLib::Hw::DisplayChar::getNumberOfColumns()
    main.o(.rodata._ZTVN9EmbSysLib2Hw23DisplayGraphic_OTM8009AE) refers to lib.o(.text._ZN9EmbSysLib2Hw14DisplayGraphic7setFontENS0_4FontEh) for EmbSysLib::Hw::DisplayGraphic::setFont(EmbSysLib::Hw::Font, unsigned char)
    main.o(.rodata._ZTVN9EmbSysLib2Hw23DisplayGraphic_OTM8009AE) refers to lib.o(.text._ZN9EmbSysLib2Hw14DisplayGraphic7setZoomEh) for EmbSysLib::Hw::DisplayGraphic::setZoom(unsigned char)
    main.o(.rodata._ZTVN9EmbSysLib2Hw23DisplayGraphic_OTM8009AE) refers to lib.o(.text._ZN9EmbSysLib2Hw14DisplayGraphic12setBackColorEt) for EmbSysLib::Hw::DisplayGraphic::setBackColor(unsigned short)
    main.o(.rodata._ZTVN9EmbSysLib2Hw23DisplayGraphic_OTM8009AE) refers to lib.o(.text._ZN9EmbSysLib2Hw14DisplayGraphic13setPaintColorEt) for EmbSysLib::Hw::DisplayGraphic::setPaintColor(unsigned short)
    main.o(.rodata._ZTVN9EmbSysLib2Hw23DisplayGraphic_OTM8009AE) refers to lib.o(.text._ZN9EmbSysLib2Hw14DisplayGraphic12setTextColorEt) for EmbSysLib::Hw::DisplayGraphic::setTextColor(unsigned short)
    main.o(.rodata._ZTVN9EmbSysLib2Hw23DisplayGraphic_OTM8009AE) refers to lib.o(.text._ZN9EmbSysLib2Hw14DisplayGraphic12gotoPixelPosEtt) for EmbSysLib::Hw::DisplayGraphic::gotoPixelPos(unsigned short, unsigned short)
    main.o(.rodata._ZTVN9EmbSysLib2Hw23DisplayGraphic_OTM8009AE) refers to lib.o(.text._ZN9EmbSysLib2Hw14DisplayGraphic8putPixelEtt) for EmbSysLib::Hw::DisplayGraphic::putPixel(unsigned short, unsigned short)
    main.o(.rodata._ZTVN9EmbSysLib2Hw23DisplayGraphic_OTM8009AE) refers to lib.o(.text._ZN9EmbSysLib2Hw14DisplayGraphic12putRectangleEtttt) for EmbSysLib::Hw::DisplayGraphic::putRectangle(unsigned short, unsigned short, unsigned short, unsigned short)
    main.o(.rodata._ZTVN9EmbSysLib2Hw23DisplayGraphic_OTM8009AE) refers to lib.o(.text._ZN9EmbSysLib2Hw14DisplayGraphic9putBitmapEttNS0_6BitmapE) for EmbSysLib::Hw::DisplayGraphic::putBitmap(unsigned short, unsigned short, EmbSysLib::Hw::Bitmap)
    main.o(.rodata._ZTVN9EmbSysLib2Hw23DisplayGraphic_OTM8009AE) refers to main.o(.text._ZN9EmbSysLib2Hw14DisplayGraphic8getWidthEv) for EmbSysLib::Hw::DisplayGraphic::getWidth()
    main.o(.rodata._ZTVN9EmbSysLib2Hw23DisplayGraphic_OTM8009AE) refers to main.o(.text._ZN9EmbSysLib2Hw14DisplayGraphic9getHeightEv) for EmbSysLib::Hw::DisplayGraphic::getHeight()
    main.o(.rodata._ZTVN9EmbSysLib2Hw9I2Cmaster6DeviceE) refers to main.o(.text._ZN9EmbSysLib2Hw9I2Cmaster6Device7isErrorEv) for EmbSysLib::Hw::I2Cmaster::Device::isError()
    main.o(.rodata._ZTVN9EmbSysLib3Dev11TaskManagerE) refers to main.o(.text._ZN9EmbSysLib3Dev11TaskManager6updateEv) for EmbSysLib::Dev::TaskManager::update()
    main.o(.rodata._ZTVN9EmbSysLib3Dev11TaskManagerE) refers to main.o(.text._ZN9EmbSysLib3Dev11TaskManager3addEPNS1_4TaskE) for EmbSysLib::Dev::TaskManager::add(EmbSysLib::Dev::TaskManager::Task*)
    main.o(.rodata._ZTVN9EmbSysLib3Dev11TaskManagerE) refers to main.o(.text._ZN9EmbSysLib3Dev11TaskManager12getCycleTimeEv) for EmbSysLib::Dev::TaskManager::getCycleTime()
    main.o(.rodata._ZTVN9EmbSysLib3Dev11TaskManagerE) refers to main.o(.text._ZN9EmbSysLib3Dev11TaskManager7getTicsEv) for EmbSysLib::Dev::TaskManager::getTics()
    main.o(.rodata._ZTVN9EmbSysLib2Hw11MemoryImageE) refers to main.o(.text._ZN9EmbSysLib2Hw11MemoryImage6unlockEv) for EmbSysLib::Hw::MemoryImage::unlock()
    main.o(.rodata._ZTVN9EmbSysLib2Hw11MemoryImageE) refers to main.o(.text._ZN9EmbSysLib2Hw11MemoryImage4lockEv) for EmbSysLib::Hw::MemoryImage::lock()
    main.o(.rodata._ZTVN9EmbSysLib2Hw11MemoryImageE) refers to main.o(.text._ZN9EmbSysLib2Hw11MemoryImage6getPtrEv) for EmbSysLib::Hw::MemoryImage::getPtr()
    main.o(.rodata._ZTVN9EmbSysLib2Hw11MemoryImageE) refers to lib.o(.text._ZN9EmbSysLib2Hw6Memory5writeEjh) for EmbSysLib::Hw::Memory::write(unsigned int, unsigned char)
    main.o(.rodata._ZTVN9EmbSysLib2Hw11MemoryImageE) refers to lib.o(.text._ZN9EmbSysLib2Hw6Memory4readEj) for EmbSysLib::Hw::Memory::read(unsigned int)
    main.o(.rodata._ZTVN9EmbSysLib2Hw11MemoryImageE) refers to lib.o(.text._ZN9EmbSysLib2Hw6Memory5eraseEv) for EmbSysLib::Hw::Memory::erase()
    main.o(.rodata._ZTVN9EmbSysLib2Hw11MemoryImageE) refers to lib.o(.text._ZNK9EmbSysLib2Hw6Memory7getSizeEv) for EmbSysLib::Hw::Memory::getSize() const
    main.o(.rodata._ZTVN9EmbSysLib2Hw11MemoryImageE) refers to lib.o(.text._ZNK9EmbSysLib2Hw6Memory7isFlashEv) for EmbSysLib::Hw::Memory::isFlash() const
    main.o(.rodata._ZTVN9EmbSysLib2Hw11MemoryImageE) refers to main.o(.text._ZN9EmbSysLib2Hw11MemoryImage9writeByteEjh) for EmbSysLib::Hw::MemoryImage::writeByte(unsigned int, unsigned char)
    main.o(.rodata._ZTVN9EmbSysLib2Hw11MemoryImageE) refers to main.o(.text._ZN9EmbSysLib2Hw11MemoryImage8readByteEj) for EmbSysLib::Hw::MemoryImage::readByte(unsigned int)
    main.o(.rodata._ZTVN9EmbSysLib2Hw7Dsi_McuE) refers to main.o(.text._ZN9EmbSysLib2Hw7Dsi_Mcu10writeShortEhh) for EmbSysLib::Hw::Dsi_Mcu::writeShort(unsigned char, unsigned char)
    main.o(.rodata._ZTVN9EmbSysLib2Hw7Dsi_McuE) refers to main.o(.text._ZN9EmbSysLib2Hw7Dsi_Mcu9writeLongEPhj) for EmbSysLib::Hw::Dsi_Mcu::writeLong(unsigned char*, unsigned int)
    lib.o(.ARM.exidx.text._ZN9EmbSysLib2Hw13USBdevice_Mcu3isrEv) refers to lib.o(.text._ZN9EmbSysLib2Hw13USBdevice_Mcu3isrEv) for [Anonymous Symbol]
    lib.o(.ARM.exidx.text._ZN9EmbSysLib2Hw9NetSocket5writeEPKct) refers to lib.o(.text._ZN9EmbSysLib2Hw9NetSocket5writeEPKct) for [Anonymous Symbol]
    lib.o(.ARM.exidx.text._ZN9EmbSysLib2Hw9NetSocket5writeEc) refers to lib.o(.text._ZN9EmbSysLib2Hw9NetSocket5writeEc) for [Anonymous Symbol]
    lib.o(.ARM.exidx.text._ZN9EmbSysLib2Hw4Port3Pin3setEb) refers to lib.o(.text._ZN9EmbSysLib2Hw4Port3Pin3setEb) for [Anonymous Symbol]
    lib.o(.ARM.exidx.text._ZN9EmbSysLib2Hw4Port3Pin7setModeENS1_4ModeE) refers to lib.o(.text._ZN9EmbSysLib2Hw4Port3Pin7setModeENS1_4ModeE) for [Anonymous Symbol]
    lib.o(.ARM.exidx.text._ZN9EmbSysLib2Hw4Port3Pin3getEv) refers to lib.o(.text._ZN9EmbSysLib2Hw4Port3Pin3getEv) for [Anonymous Symbol]
    lib.o(.ARM.exidx.text._ZN9EmbSysLib2Hw3Adc6updateEv) refers to lib.o(.text._ZN9EmbSysLib2Hw3Adc6updateEv) for [Anonymous Symbol]
    lib.o(.ARM.exidx.text._ZN9EmbSysLib2Hw3Adc3getEh) refers to lib.o(.text._ZN9EmbSysLib2Hw3Adc3getEh) for [Anonymous Symbol]
    lib.o(.ARM.exidx.text._ZN9EmbSysLib2Hw3Adc3isrEv) refers to lib.o(.text._ZN9EmbSysLib2Hw3Adc3isrEv) for [Anonymous Symbol]
    lib.o(.ARM.exidx.text._ZN9EmbSysLib2Hw7Adc_Mcu9getResultEv) refers to lib.o(.text._ZN9EmbSysLib2Hw7Adc_Mcu9getResultEv) for [Anonymous Symbol]
    lib.o(.ARM.exidx.text._ZN9EmbSysLib2Hw7Adc_Mcu7startChEh) refers to lib.o(.text._ZN9EmbSysLib2Hw7Adc_Mcu7startChEh) for [Anonymous Symbol]
    lib.o(.ARM.exidx.text._ZN9EmbSysLib2Hw3Net6updateEv) refers to lib.o(.text._ZN9EmbSysLib2Hw3Net6updateEv) for [Anonymous Symbol]
    lib.o(.ARM.exidx.text._ZN9EmbSysLib2Hw3Net7addTaskERNS1_4TaskE) refers to lib.o(.text._ZN9EmbSysLib2Hw3Net7addTaskERNS1_4TaskE) for [Anonymous Symbol]
    lib.o(.ARM.exidx.text._ZN9EmbSysLib2Hw12Memory_BKRAM6getPtrEv) refers to lib.o(.text._ZN9EmbSysLib2Hw12Memory_BKRAM6getPtrEv) for [Anonymous Symbol]
    lib.o(.text._ZN9EmbSysLib2Hw6Memory5writeEjh) refers to lib.o(.bss._ZN9EmbSysLib3Std6Report10globalCodeE) for EmbSysLib::Std::Report::globalCode
    lib.o(.text._ZN9EmbSysLib2Hw6Memory5writeEjh) refers to lib.o(.bss._ZN9EmbSysLib3Std6Report12globalModuleE) for EmbSysLib::Std::Report::globalModule
    lib.o(.text._ZN9EmbSysLib2Hw6Memory5writeEjh) refers to lib.o(.bss._ZN9EmbSysLib3Std6Report10msgHandlerE) for EmbSysLib::Std::Report::msgHandler
    lib.o(.text._ZN9EmbSysLib2Hw6Memory5writeEjh) refers to lib.o(.text._ZL18__NVIC_SystemResetv) for __NVIC_SystemReset()
    lib.o(.ARM.exidx.text._ZN9EmbSysLib2Hw6Memory5writeEjh) refers to lib.o(.text._ZN9EmbSysLib2Hw6Memory5writeEjh) for [Anonymous Symbol]
    lib.o(.text._ZN9EmbSysLib2Hw6Memory4readEj) refers to lib.o(.bss._ZN9EmbSysLib3Std6Report10globalCodeE) for EmbSysLib::Std::Report::globalCode
    lib.o(.text._ZN9EmbSysLib2Hw6Memory4readEj) refers to lib.o(.bss._ZN9EmbSysLib3Std6Report12globalModuleE) for EmbSysLib::Std::Report::globalModule
    lib.o(.text._ZN9EmbSysLib2Hw6Memory4readEj) refers to lib.o(.bss._ZN9EmbSysLib3Std6Report10msgHandlerE) for EmbSysLib::Std::Report::msgHandler
    lib.o(.text._ZN9EmbSysLib2Hw6Memory4readEj) refers to lib.o(.text._ZL18__NVIC_SystemResetv) for __NVIC_SystemReset()
    lib.o(.ARM.exidx.text._ZN9EmbSysLib2Hw6Memory4readEj) refers to lib.o(.text._ZN9EmbSysLib2Hw6Memory4readEj) for [Anonymous Symbol]
    lib.o(.ARM.exidx.text._ZN9EmbSysLib2Hw6Memory5eraseEv) refers to lib.o(.text._ZN9EmbSysLib2Hw6Memory5eraseEv) for [Anonymous Symbol]
    lib.o(.ARM.exidx.text._ZNK9EmbSysLib2Hw6Memory7getSizeEv) refers to lib.o(.text._ZNK9EmbSysLib2Hw6Memory7getSizeEv) for [Anonymous Symbol]
    lib.o(.ARM.exidx.text._ZNK9EmbSysLib2Hw6Memory7isFlashEv) refers to lib.o(.text._ZNK9EmbSysLib2Hw6Memory7isFlashEv) for [Anonymous Symbol]
    lib.o(.ARM.exidx.text._ZN9EmbSysLib2Hw12Memory_BKRAM9writeByteEjh) refers to lib.o(.text._ZN9EmbSysLib2Hw12Memory_BKRAM9writeByteEjh) for [Anonymous Symbol]
    lib.o(.ARM.exidx.text._ZN9EmbSysLib2Hw12Memory_BKRAM8readByteEj) refers to lib.o(.text._ZN9EmbSysLib2Hw12Memory_BKRAM8readByteEj) for [Anonymous Symbol]
    lib.o(.ARM.exidx.text._ZN9EmbSysLib2Hw12Memory_Flash6getPtrEv) refers to lib.o(.text._ZN9EmbSysLib2Hw12Memory_Flash6getPtrEv) for [Anonymous Symbol]
    lib.o(.ARM.exidx.text._ZN9EmbSysLib2Hw8Port_Mcu3setEj) refers to lib.o(.text._ZN9EmbSysLib2Hw8Port_Mcu3setEj) for [Anonymous Symbol]
    lib.o(.ARM.exidx.text._ZN9EmbSysLib2Hw8Port_Mcu3setEjj) refers to lib.o(.text._ZN9EmbSysLib2Hw8Port_Mcu3setEjj) for [Anonymous Symbol]
    lib.o(.ARM.exidx.text._ZN9EmbSysLib2Hw8Port_Mcu3clrEj) refers to lib.o(.text._ZN9EmbSysLib2Hw8Port_Mcu3clrEj) for [Anonymous Symbol]
    lib.o(.ARM.exidx.text._ZN9EmbSysLib2Hw8Port_Mcu3getEv) refers to lib.o(.text._ZN9EmbSysLib2Hw8Port_Mcu3getEv) for [Anonymous Symbol]
    lib.o(.ARM.exidx.text._ZN9EmbSysLib2Hw5Timer10isrHandlerEv) refers to lib.o(.text._ZN9EmbSysLib2Hw5Timer10isrHandlerEv) for [Anonymous Symbol]
    lib.o(.text._ZN9EmbSysLib2Hw4Uart14isTxBufferFullEv) refers to lib.o(.bss._ZN9EmbSysLib2Hw6System12cntInterruptE) for EmbSysLib::Hw::System::cntInterrupt
    lib.o(.ARM.exidx.text._ZN9EmbSysLib2Hw4Uart14isTxBufferFullEv) refers to lib.o(.text._ZN9EmbSysLib2Hw4Uart14isTxBufferFullEv) for [Anonymous Symbol]
    lib.o(.text._ZN9EmbSysLib2Hw4Uart20getFifoRemainingSizeEv) refers to lib.o(.bss._ZN9EmbSysLib2Hw6System12cntInterruptE) for EmbSysLib::Hw::System::cntInterrupt
    lib.o(.ARM.exidx.text._ZN9EmbSysLib2Hw4Uart20getFifoRemainingSizeEv) refers to lib.o(.text._ZN9EmbSysLib2Hw4Uart20getFifoRemainingSizeEv) for [Anonymous Symbol]
    lib.o(.text._ZN9EmbSysLib2Hw4Uart5isrTxEv) refers to lib.o(.bss._ZN9EmbSysLib2Hw6System12cntInterruptE) for EmbSysLib::Hw::System::cntInterrupt
    lib.o(.ARM.exidx.text._ZN9EmbSysLib2Hw4Uart5isrTxEv) refers to lib.o(.text._ZN9EmbSysLib2Hw4Uart5isrTxEv) for [Anonymous Symbol]
    lib.o(.ARM.exidx.text._ZN9EmbSysLib2Hw8Uart_Mcu7setByteEh) refers to lib.o(.text._ZN9EmbSysLib2Hw8Uart_Mcu7setByteEh) for [Anonymous Symbol]
    lib.o(.ARM.exidx.text._ZN9EmbSysLib2Hw8Uart_Mcu7getByteEv) refers to lib.o(.text._ZN9EmbSysLib2Hw8Uart_Mcu7getByteEv) for [Anonymous Symbol]
    lib.o(.ARM.exidx.text._ZN9EmbSysLib2Hw11DisplayChar16getNumberOfLinesEv) refers to lib.o(.text._ZN9EmbSysLib2Hw11DisplayChar16getNumberOfLinesEv) for [Anonymous Symbol]
    lib.o(.ARM.exidx.text._ZN9EmbSysLib2Hw11DisplayChar18getNumberOfColumnsEv) refers to lib.o(.text._ZN9EmbSysLib2Hw11DisplayChar18getNumberOfColumnsEv) for [Anonymous Symbol]
    lib.o(.ARM.exidx.text._ZN9EmbSysLib2Hw10NetEthDHCP9onProcessEv) refers to lib.o(.text._ZN9EmbSysLib2Hw10NetEthDHCP9onProcessEv) for [Anonymous Symbol]
    lib.o(.ARM.exidx.text._ZThn4_N9EmbSysLib2Hw10NetEthDHCP9onProcessEv) refers to lib.o(.text._ZThn4_N9EmbSysLib2Hw10NetEthDHCP9onProcessEv) for [Anonymous Symbol]
    lib.o(.ARM.exidx.text._ZN9EmbSysLib2Hw15NetEthTransport7getAddrEv) refers to lib.o(.text._ZN9EmbSysLib2Hw15NetEthTransport7getAddrEv) for [Anonymous Symbol]
    lib.o(.ARM.exidx.text._ZN9EmbSysLib2Hw15NetEthTransport10getAddrPhyEv) refers to lib.o(.text._ZN9EmbSysLib2Hw15NetEthTransport10getAddrPhyEv) for [Anonymous Symbol]
    lib.o(.ARM.exidx.text._ZN9EmbSysLib2Hw9NetSocket13getRemoteAddrEv) refers to lib.o(.text._ZN9EmbSysLib2Hw9NetSocket13getRemoteAddrEv) for [Anonymous Symbol]
    lib.o(.ARM.exidx.text._ZN9EmbSysLib2Hw9NetSocket13getRemotePortEv) refers to lib.o(.text._ZN9EmbSysLib2Hw9NetSocket13getRemotePortEv) for [Anonymous Symbol]
    lib.o(.text._ZN9EmbSysLib2Hw9NetSocket5writeEPKc) refers to strlen.o(.text) for strlen
    lib.o(.ARM.exidx.text._ZN9EmbSysLib2Hw9NetSocket5writeEPKc) refers to lib.o(.text._ZN9EmbSysLib2Hw9NetSocket5writeEPKc) for [Anonymous Symbol]
    lib.o(.ARM.exidx.text._ZN9EmbSysLib2Hw15NetEthTransport6Socket10setTimeoutEtt) refers to lib.o(.text._ZN9EmbSysLib2Hw15NetEthTransport6Socket10setTimeoutEtt) for [Anonymous Symbol]
    lib.o(.ARM.exidx.text._ZN9EmbSysLib2Hw6ExtInt10isrHandlerEv) refers to lib.o(.text._ZN9EmbSysLib2Hw6ExtInt10isrHandlerEv) for [Anonymous Symbol]
    lib.o(.ARM.exidx.text._ZN9EmbSysLib2Hw18USBdeviceInterface7onStartEv) refers to lib.o(.text._ZN9EmbSysLib2Hw18USBdeviceInterface7onStartEv) for [Anonymous Symbol]
    lib.o(.ARM.exidx.text._ZN9EmbSysLib2Hw18USBdeviceInterface6onStopEv) refers to lib.o(.text._ZN9EmbSysLib2Hw18USBdeviceInterface6onStopEv) for [Anonymous Symbol]
    lib.o(.ARM.exidx.text._ZN9EmbSysLib2Hw18USBdeviceInterface16onConfigEndpointEhRNS_3Std11DataPointerEt) refers to lib.o(.text._ZN9EmbSysLib2Hw18USBdeviceInterface16onConfigEndpointEhRNS_3Std11DataPointerEt) for [Anonymous Symbol]
    lib.o(.ARM.exidx.text._ZN9EmbSysLib2Hw18USBdeviceInterface10onTransmitEhRNS_3Std11DataPointerE) refers to lib.o(.text._ZN9EmbSysLib2Hw18USBdeviceInterface10onTransmitEhRNS_3Std11DataPointerE) for [Anonymous Symbol]
    lib.o(.ARM.exidx.text._ZN9EmbSysLib2Hw18USBdeviceInterface9onReceiveEhtRNS_3Std11DataPointerE) refers to lib.o(.text._ZN9EmbSysLib2Hw18USBdeviceInterface9onReceiveEhtRNS_3Std11DataPointerE) for [Anonymous Symbol]
    lib.o(.ARM.exidx.text._ZN9EmbSysLib2Hw18USBdeviceInterface16onRequestCtrl_INERNS_3Std11DataPointerEhtt) refers to lib.o(.text._ZN9EmbSysLib2Hw18USBdeviceInterface16onRequestCtrl_INERNS_3Std11DataPointerEhtt) for [Anonymous Symbol]
    lib.o(.ARM.exidx.text._ZN9EmbSysLib2Hw18USBdeviceInterface17onRequestCtrl_OUTERNS_3Std11DataPointerEhtt) refers to lib.o(.text._ZN9EmbSysLib2Hw18USBdeviceInterface17onRequestCtrl_OUTERNS_3Std11DataPointerEhtt) for [Anonymous Symbol]
    lib.o(.ARM.exidx.text._ZN9EmbSysLib2Hw18USBdeviceInterface14onTransmitCtrlEv) refers to lib.o(.text._ZN9EmbSysLib2Hw18USBdeviceInterface14onTransmitCtrlEv) for [Anonymous Symbol]
    lib.o(.ARM.exidx.text._ZN9EmbSysLib2Hw18USBdeviceInterface13onReceiveCtrlEt) refers to lib.o(.text._ZN9EmbSysLib2Hw18USBdeviceInterface13onReceiveCtrlEt) for [Anonymous Symbol]
    lib.o(.ARM.exidx.text._ZN9EmbSysLib2Hw18USBdeviceInterface15onGetDescriptorEt) refers to lib.o(.text._ZN9EmbSysLib2Hw18USBdeviceInterface15onGetDescriptorEt) for [Anonymous Symbol]
    lib.o(.ARM.exidx.text._ZN9EmbSysLib3Dev8AnalogIn3getEv) refers to lib.o(.text._ZN9EmbSysLib3Dev8AnalogIn3getEv) for [Anonymous Symbol]
    lib.o(.ARM.exidx.text._ZN9EmbSysLib3Dev8AnalogIncvfEv) refers to lib.o(.text._ZN9EmbSysLib3Dev8AnalogIncvfEv) for [Anonymous Symbol]
    lib.o(.ARM.exidx.text._ZN9EmbSysLib3Dev9AnalogOutaSEf) refers to lib.o(.text._ZN9EmbSysLib3Dev9AnalogOutaSEf) for [Anonymous Symbol]
    lib.o(.ARM.exidx.text._ZN9EmbSysLib3Dev7Digital3setEv) refers to lib.o(.text._ZN9EmbSysLib3Dev7Digital3setEv) for [Anonymous Symbol]
    lib.o(.ARM.exidx.text._ZN9EmbSysLib3Dev7Digital3clrEv) refers to lib.o(.text._ZN9EmbSysLib3Dev7Digital3clrEv) for [Anonymous Symbol]
    lib.o(.ARM.exidx.text._ZN9EmbSysLib3Dev7Digital6toggleEv) refers to lib.o(.text._ZN9EmbSysLib3Dev7Digital6toggleEv) for [Anonymous Symbol]
    lib.o(.ARM.exidx.text._ZN9EmbSysLib3Dev7Digital8getEventEv) refers to lib.o(.text._ZN9EmbSysLib3Dev7Digital8getEventEv) for [Anonymous Symbol]
    lib.o(.ARM.exidx.text._ZN9EmbSysLib3Dev7DigitalaSEb) refers to lib.o(.text._ZN9EmbSysLib3Dev7DigitalaSEb) for [Anonymous Symbol]
    lib.o(.ARM.exidx.text._ZN9EmbSysLib3Dev7DigitalaSERS1_) refers to lib.o(.text._ZN9EmbSysLib3Dev7DigitalaSERS1_) for [Anonymous Symbol]
    lib.o(.ARM.exidx.text._ZN9EmbSysLib3Dev7DigitalcvbEv) refers to lib.o(.text._ZN9EmbSysLib3Dev7DigitalcvbEv) for [Anonymous Symbol]
    lib.o(.ARM.exidx.text._ZN9EmbSysLib3Mod8USB_Uart7getByteEv) refers to lib.o(.text._ZN9EmbSysLib3Mod8USB_Uart7getByteEv) for [Anonymous Symbol]
    lib.o(.ARM.exidx.text._ZN9EmbSysLib3Mod8USB_Uart7setByteEh) refers to lib.o(.text._ZN9EmbSysLib3Mod8USB_Uart7setByteEh) for [Anonymous Symbol]
    lib.o(.text._ZN9EmbSysLib3Mod8USB_Uart12transmitByteEh) refers to lib.o(.bss._ZN9EmbSysLib2Hw6System12cntInterruptE) for EmbSysLib::Hw::System::cntInterrupt
    lib.o(.ARM.exidx.text._ZN9EmbSysLib3Mod8USB_Uart12transmitByteEh) refers to lib.o(.text._ZN9EmbSysLib3Mod8USB_Uart12transmitByteEh) for [Anonymous Symbol]
    lib.o(.text._ZThn12_N9EmbSysLib3Mod8USB_Uart12transmitByteEh) refers to lib.o(.bss._ZN9EmbSysLib2Hw6System12cntInterruptE) for EmbSysLib::Hw::System::cntInterrupt
    lib.o(.ARM.exidx.text._ZThn12_N9EmbSysLib3Mod8USB_Uart12transmitByteEh) refers to lib.o(.text._ZThn12_N9EmbSysLib3Mod8USB_Uart12transmitByteEh) for [Anonymous Symbol]
    lib.o(.ARM.exidx.text._ZThn12_N9EmbSysLib3Mod8USB_Uart7setByteEh) refers to lib.o(.text._ZThn12_N9EmbSysLib3Mod8USB_Uart7setByteEh) for [Anonymous Symbol]
    lib.o(.ARM.exidx.text._ZThn12_N9EmbSysLib3Mod8USB_Uart7getByteEv) refers to lib.o(.text._ZThn12_N9EmbSysLib3Mod8USB_Uart7getByteEv) for [Anonymous Symbol]
    lib.o(.text._ZN9EmbSysLib2Hw7Dac_Mcu3setEht) refers to lib.o(.bss._ZN9EmbSysLib3Std6Report10globalCodeE) for EmbSysLib::Std::Report::globalCode
    lib.o(.text._ZN9EmbSysLib2Hw7Dac_Mcu3setEht) refers to lib.o(.bss._ZN9EmbSysLib3Std6Report12globalModuleE) for EmbSysLib::Std::Report::globalModule
    lib.o(.text._ZN9EmbSysLib2Hw7Dac_Mcu3setEht) refers to lib.o(.bss._ZN9EmbSysLib3Std6Report10msgHandlerE) for EmbSysLib::Std::Report::msgHandler
    lib.o(.text._ZN9EmbSysLib2Hw7Dac_Mcu3setEht) refers to lib.o(.text._ZL18__NVIC_SystemResetv) for __NVIC_SystemReset()
    lib.o(.ARM.exidx.text._ZN9EmbSysLib2Hw7Dac_Mcu3setEht) refers to lib.o(.text._ZN9EmbSysLib2Hw7Dac_Mcu3setEht) for [Anonymous Symbol]
    lib.o(.text._ZN9EmbSysLib2Hw7Dac_Mcu6enableEh) refers to lib.o(.text._ZN9EmbSysLib2Hw9PinConfig3setENS1_8FunctionEj) for EmbSysLib::Hw::PinConfig::set(EmbSysLib::Hw::PinConfig::Function, unsigned int)
    lib.o(.text._ZN9EmbSysLib2Hw7Dac_Mcu6enableEh) refers to lib.o(.bss._ZN9EmbSysLib3Std6Report10globalCodeE) for EmbSysLib::Std::Report::globalCode
    lib.o(.text._ZN9EmbSysLib2Hw7Dac_Mcu6enableEh) refers to lib.o(.bss._ZN9EmbSysLib3Std6Report12globalModuleE) for EmbSysLib::Std::Report::globalModule
    lib.o(.text._ZN9EmbSysLib2Hw7Dac_Mcu6enableEh) refers to lib.o(.bss._ZN9EmbSysLib3Std6Report10msgHandlerE) for EmbSysLib::Std::Report::msgHandler
    lib.o(.text._ZN9EmbSysLib2Hw7Dac_Mcu6enableEh) refers to lib.o(.text._ZL18__NVIC_SystemResetv) for __NVIC_SystemReset()
    lib.o(.ARM.exidx.text._ZN9EmbSysLib2Hw7Dac_Mcu6enableEh) refers to lib.o(.text._ZN9EmbSysLib2Hw7Dac_Mcu6enableEh) for [Anonymous Symbol]
    lib.o(.ARM.exidx.text._ZN9EmbSysLib2Hw13I2Cmaster_Mcu5startEh) refers to lib.o(.text._ZN9EmbSysLib2Hw13I2Cmaster_Mcu5startEh) for [Anonymous Symbol]
    lib.o(.ARM.exidx.text._ZN9EmbSysLib2Hw13I2Cmaster_Mcu4stopEv) refers to lib.o(.text._ZN9EmbSysLib2Hw13I2Cmaster_Mcu4stopEv) for [Anonymous Symbol]
    lib.o(.ARM.exidx.text._ZN9EmbSysLib2Hw13I2Cmaster_Mcu8sendAddrEh) refers to lib.o(.text._ZN9EmbSysLib2Hw13I2Cmaster_Mcu8sendAddrEh) for [Anonymous Symbol]
    lib.o(.ARM.exidx.text._ZN9EmbSysLib2Hw13I2Cmaster_Mcu9writeByteEh) refers to lib.o(.text._ZN9EmbSysLib2Hw13I2Cmaster_Mcu9writeByteEh) for [Anonymous Symbol]
    lib.o(.ARM.exidx.text._ZN9EmbSysLib2Hw13I2Cmaster_Mcu11readByteAckEv) refers to lib.o(.text._ZN9EmbSysLib2Hw13I2Cmaster_Mcu11readByteAckEv) for [Anonymous Symbol]
    lib.o(.ARM.exidx.text._ZN9EmbSysLib2Hw13I2Cmaster_Mcu12readByteNackEv) refers to lib.o(.text._ZN9EmbSysLib2Hw13I2Cmaster_Mcu12readByteNackEv) for [Anonymous Symbol]
    lib.o(.ARM.exidx.text._ZN9EmbSysLib2Hw13I2Cmaster_Mcu11waitForAcknEj) refers to lib.o(.text._ZN9EmbSysLib2Hw13I2Cmaster_Mcu11waitForAcknEj) for [Anonymous Symbol]
    lib.o(.ARM.exidx.text._ZN9EmbSysLib2Hw4Port3Pin3setEv) refers to lib.o(.text._ZN9EmbSysLib2Hw4Port3Pin3setEv) for [Anonymous Symbol]
    lib.o(.ARM.exidx.text._ZN9EmbSysLib2Hw4Port3Pin3clrEv) refers to lib.o(.text._ZN9EmbSysLib2Hw4Port3Pin3clrEv) for [Anonymous Symbol]
    lib.o(.ARM.exidx.text._ZN9EmbSysLib2Hw5Touch7getPosXEv) refers to lib.o(.text._ZN9EmbSysLib2Hw5Touch7getPosXEv) for [Anonymous Symbol]
    lib.o(.ARM.exidx.text._ZN9EmbSysLib2Hw5Touch7getPosYEv) refers to lib.o(.text._ZN9EmbSysLib2Hw5Touch7getPosYEv) for [Anonymous Symbol]
    lib.o(.ARM.exidx.text._ZN9EmbSysLib2Hw5Touch9isTouchedEv) refers to lib.o(.text._ZN9EmbSysLib2Hw5Touch9isTouchedEv) for [Anonymous Symbol]
    lib.o(.ARM.exidx.text._ZN9EmbSysLib2Hw3Net7Handler6updateEv) refers to lib.o(.text._ZN9EmbSysLib2Hw3Net7Handler6updateEv) for [Anonymous Symbol]
    lib.o(.rodata._ZTVN9EmbSysLib2Hw7Dac_McuE) refers to lib.o(.text._ZN9EmbSysLib2Hw7Dac_Mcu3setEht) for EmbSysLib::Hw::Dac_Mcu::set(unsigned char, unsigned short)
    lib.o(.rodata._ZTVN9EmbSysLib2Hw7Dac_McuE) refers to lib.o(.text._ZN9EmbSysLib2Hw7Dac_Mcu6enableEh) for EmbSysLib::Hw::Dac_Mcu::enable(unsigned char)
    lib.o(.rodata._ZTVN9EmbSysLib2Hw13I2Cmaster_McuE) refers to lib.o(.text._ZN9EmbSysLib2Hw9I2Cmaster5writeEhPhhS2_h) for EmbSysLib::Hw::I2Cmaster::write(unsigned char, unsigned char*, unsigned char, unsigned char*, unsigned char)
    lib.o(.rodata._ZTVN9EmbSysLib2Hw13I2Cmaster_McuE) refers to lib.o(.text._ZN9EmbSysLib2Hw9I2Cmaster4readEhPhhS2_h) for EmbSysLib::Hw::I2Cmaster::read(unsigned char, unsigned char*, unsigned char, unsigned char*, unsigned char)
    lib.o(.rodata._ZTVN9EmbSysLib2Hw13I2Cmaster_McuE) refers to lib.o(.text._ZN9EmbSysLib2Hw13I2Cmaster_Mcu5startEh) for EmbSysLib::Hw::I2Cmaster_Mcu::start(unsigned char)
    lib.o(.rodata._ZTVN9EmbSysLib2Hw13I2Cmaster_McuE) refers to lib.o(.text._ZN9EmbSysLib2Hw13I2Cmaster_Mcu4stopEv) for EmbSysLib::Hw::I2Cmaster_Mcu::stop()
    lib.o(.rodata._ZTVN9EmbSysLib2Hw13I2Cmaster_McuE) refers to lib.o(.text._ZN9EmbSysLib2Hw13I2Cmaster_Mcu8sendAddrEh) for EmbSysLib::Hw::I2Cmaster_Mcu::sendAddr(unsigned char)
    lib.o(.rodata._ZTVN9EmbSysLib2Hw13I2Cmaster_McuE) refers to lib.o(.text._ZN9EmbSysLib2Hw13I2Cmaster_Mcu9writeByteEh) for EmbSysLib::Hw::I2Cmaster_Mcu::writeByte(unsigned char)
    lib.o(.rodata._ZTVN9EmbSysLib2Hw13I2Cmaster_McuE) refers to lib.o(.text._ZN9EmbSysLib2Hw13I2Cmaster_Mcu11readByteAckEv) for EmbSysLib::Hw::I2Cmaster_Mcu::readByteAck()
    lib.o(.rodata._ZTVN9EmbSysLib2Hw13I2Cmaster_McuE) refers to lib.o(.text._ZN9EmbSysLib2Hw13I2Cmaster_Mcu12readByteNackEv) for EmbSysLib::Hw::I2Cmaster_Mcu::readByteNack()
    lib.o(.rodata._ZTVN9EmbSysLib2Hw13I2Cmaster_McuE) refers to lib.o(.text._ZN9EmbSysLib2Hw13I2Cmaster_Mcu11waitForAcknEj) for EmbSysLib::Hw::I2Cmaster_Mcu::waitForAckn(unsigned int)
    lib.o(.rodata._ZTVN9EmbSysLib3Std5ClockE) refers to cxa_virtual.cpp.o(.text.__cxa_pure_virtual) for __cxa_pure_virtual
    lib.o(.rodata._ZTVN9EmbSysLib3Std6Report7HandlerE) refers to cxa_virtual.cpp.o(.text.__cxa_pure_virtual) for __cxa_pure_virtual
    lib.o(.rodata._ZTVN9EmbSysLib2Hw3DacE) refers to cxa_virtual.cpp.o(.text.__cxa_pure_virtual) for __cxa_pure_virtual
    lib.o(.rodata._ZTVN9EmbSysLib2Hw6MemoryE) refers to cxa_virtual.cpp.o(.text.__cxa_pure_virtual) for __cxa_pure_virtual
    lib.o(.rodata._ZTVN9EmbSysLib2Hw6MemoryE) refers to lib.o(.text._ZN9EmbSysLib2Hw6Memory5writeEjh) for EmbSysLib::Hw::Memory::write(unsigned int, unsigned char)
    lib.o(.rodata._ZTVN9EmbSysLib2Hw6MemoryE) refers to lib.o(.text._ZN9EmbSysLib2Hw6Memory4readEj) for EmbSysLib::Hw::Memory::read(unsigned int)
    lib.o(.rodata._ZTVN9EmbSysLib2Hw6MemoryE) refers to lib.o(.text._ZN9EmbSysLib2Hw6Memory5eraseEv) for EmbSysLib::Hw::Memory::erase()
    lib.o(.rodata._ZTVN9EmbSysLib2Hw6MemoryE) refers to lib.o(.text._ZNK9EmbSysLib2Hw6Memory7getSizeEv) for EmbSysLib::Hw::Memory::getSize() const
    lib.o(.rodata._ZTVN9EmbSysLib2Hw6MemoryE) refers to lib.o(.text._ZNK9EmbSysLib2Hw6Memory7isFlashEv) for EmbSysLib::Hw::Memory::isFlash() const
    lib.o(.rodata._ZTVN9EmbSysLib2Hw4PortE) refers to cxa_virtual.cpp.o(.text.__cxa_pure_virtual) for __cxa_pure_virtual
    lib.o(.rodata._ZTVN9EmbSysLib2Hw4Port3PinE) refers to lib.o(.text._ZN9EmbSysLib2Hw4Port3Pin7setModeENS1_4ModeE) for EmbSysLib::Hw::Port::Pin::setMode(EmbSysLib::Hw::Port::Mode)
    lib.o(.rodata._ZTVN9EmbSysLib2Hw4Port3PinE) refers to lib.o(.text._ZN9EmbSysLib2Hw4Port3Pin3setEv) for EmbSysLib::Hw::Port::Pin::set()
    lib.o(.rodata._ZTVN9EmbSysLib2Hw4Port3PinE) refers to lib.o(.text._ZN9EmbSysLib2Hw4Port3Pin3setEb) for EmbSysLib::Hw::Port::Pin::set(bool)
    lib.o(.rodata._ZTVN9EmbSysLib2Hw4Port3PinE) refers to lib.o(.text._ZN9EmbSysLib2Hw4Port3Pin3clrEv) for EmbSysLib::Hw::Port::Pin::clr()
    lib.o(.rodata._ZTVN9EmbSysLib2Hw4Port3PinE) refers to lib.o(.text._ZN9EmbSysLib2Hw4Port3Pin3getEv) for EmbSysLib::Hw::Port::Pin::get()
    lib.o(.rodata._ZTVN9EmbSysLib2Hw3RtcE) refers to cxa_virtual.cpp.o(.text.__cxa_pure_virtual) for __cxa_pure_virtual
    lib.o(.rodata._ZTVN9EmbSysLib2Hw9SPImasterE) refers to cxa_virtual.cpp.o(.text.__cxa_pure_virtual) for __cxa_pure_virtual
    lib.o(.rodata._ZTVN9EmbSysLib2Hw5TouchE) refers to cxa_virtual.cpp.o(.text.__cxa_pure_virtual) for __cxa_pure_virtual
    lib.o(.rodata._ZTVN9EmbSysLib2Hw5TouchE) refers to lib.o(.text._ZN9EmbSysLib2Hw5Touch7getPosXEv) for EmbSysLib::Hw::Touch::getPosX()
    lib.o(.rodata._ZTVN9EmbSysLib2Hw5TouchE) refers to lib.o(.text._ZN9EmbSysLib2Hw5Touch7getPosYEv) for EmbSysLib::Hw::Touch::getPosY()
    lib.o(.rodata._ZTVN9EmbSysLib2Hw5TouchE) refers to lib.o(.text._ZN9EmbSysLib2Hw5Touch9isTouchedEv) for EmbSysLib::Hw::Touch::isTouched()
    lib.o(.rodata._ZTVN9EmbSysLib3Dev8AnalogInE) refers to lib.o(.text._ZN9EmbSysLib3Dev8AnalogIn3getEv) for EmbSysLib::Dev::AnalogIn::get()
    lib.o(.rodata._ZTVN9EmbSysLib3Dev8AnalogInE) refers to lib.o(.text._ZN9EmbSysLib3Dev8AnalogIncvfEv) for EmbSysLib::Dev::AnalogIn::operator float()
    lib.o(.rodata._ZTVN9EmbSysLib3Dev8AnalogInE) refers to cxa_virtual.cpp.o(.text.__cxa_pure_virtual) for __cxa_pure_virtual
    lib.o(.rodata._ZTVN9EmbSysLib2Hw3NetE) refers to lib.o(.text._ZN9EmbSysLib2Hw3Net6updateEv) for EmbSysLib::Hw::Net::update()
    lib.o(.rodata._ZTVN9EmbSysLib2Hw3NetE) refers to lib.o(.text._ZN9EmbSysLib2Hw3Net7addTaskERNS1_4TaskE) for EmbSysLib::Hw::Net::addTask(EmbSysLib::Hw::Net::Task&)
    lib.o(.rodata._ZTVN9EmbSysLib2Hw3NetE) refers to cxa_virtual.cpp.o(.text.__cxa_pure_virtual) for __cxa_pure_virtual
    lib.o(.rodata._ZTVN9EmbSysLib2Hw3Net7HandlerE) refers to lib.o(.text._ZN9EmbSysLib2Hw3Net7Handler6updateEv) for EmbSysLib::Hw::Net::Handler::update()


==============================================================================

Removing Unused input sections from the image.

    Removing main.o(.text), (0 bytes).
    Removing main.o(.ARM.exidx.text._ZN9EmbSysLib2Hw23DisplayGraphic_OTM8009A4initEv), (8 bytes).
    Removing main.o(.text._ZN9EmbSysLib2Hw26DisplayGraphic_OTM8009AcmdC2ERNS0_7Dsi_McuERNS0_4Port3PinENS0_23DisplayGraphic_OTM8009A11OrientationENS0_4FontEh), (202 bytes).
    Removing main.o(.ARM.exidx.text._ZN9EmbSysLib2Hw26DisplayGraphic_OTM8009AcmdC2ERNS0_7Dsi_McuERNS0_4Port3PinENS0_23DisplayGraphic_OTM8009A11OrientationENS0_4FontEh), (8 bytes).
    Removing main.o(.text._ZN9EmbSysLib2Hw26DisplayGraphic_OTM8009Acmd7refreshEv), (2 bytes).
    Removing main.o(.ARM.exidx.text._ZN9EmbSysLib2Hw26DisplayGraphic_OTM8009Acmd7refreshEv), (8 bytes).
    Removing main.o(.text._ZN9EmbSysLib2Hw26DisplayGraphic_OTM8009Acmd5clearEv), (78 bytes).
    Removing main.o(.ARM.exidx.text._ZN9EmbSysLib2Hw26DisplayGraphic_OTM8009Acmd5clearEv), (8 bytes).
    Removing main.o(.text._ZN9EmbSysLib2Hw26DisplayGraphic_OTM8009Acmd7setAreaEtttt), (22 bytes).
    Removing main.o(.ARM.exidx.text._ZN9EmbSysLib2Hw26DisplayGraphic_OTM8009Acmd7setAreaEtttt), (8 bytes).
    Removing main.o(.text._ZN9EmbSysLib2Hw26DisplayGraphic_OTM8009Acmd8setPixelEttt), (128 bytes).
    Removing main.o(.ARM.exidx.text._ZN9EmbSysLib2Hw26DisplayGraphic_OTM8009Acmd8setPixelEttt), (8 bytes).
    Removing main.o(.text._ZN9EmbSysLib2Hw26DisplayGraphic_OTM8009Acmd8setPixelEt), (226 bytes).
    Removing main.o(.ARM.exidx.text._ZN9EmbSysLib2Hw26DisplayGraphic_OTM8009Acmd8setPixelEt), (8 bytes).
    Removing main.o(.ARM.exidx.text._ZN9EmbSysLib2Hw26DisplayGraphic_OTM8009AramC2ERNS0_7Dsi_McuERNS0_4Port3PinENS0_23DisplayGraphic_OTM8009A11OrientationENS0_4FontEh), (8 bytes).
    Removing main.o(.ARM.exidx.text._ZN9EmbSysLib2Hw26DisplayGraphic_OTM8009Aram7refreshEv), (8 bytes).
    Removing main.o(.ARM.exidx.text._ZN9EmbSysLib2Hw26DisplayGraphic_OTM8009Aram5clearEv), (8 bytes).
    Removing main.o(.ARM.exidx.text._ZN9EmbSysLib2Hw26DisplayGraphic_OTM8009Aram7setAreaEtttt), (8 bytes).
    Removing main.o(.ARM.exidx.text._ZN9EmbSysLib2Hw26DisplayGraphic_OTM8009Aram8setPixelEttt), (8 bytes).
    Removing main.o(.ARM.exidx.text._ZN9EmbSysLib2Hw26DisplayGraphic_OTM8009Aram8setPixelEt), (8 bytes).
    Removing main.o(.text._ZN9EmbSysLib2Hw12Touch_FT6206C2ERNS0_9I2CmasterEttNS0_5Touch11OrientationE), (54 bytes).
    Removing main.o(.ARM.exidx.text._ZN9EmbSysLib2Hw12Touch_FT6206C2ERNS0_9I2CmasterEttNS0_5Touch11OrientationE), (8 bytes).
    Removing main.o(.ARM.exidx.text._ZN9EmbSysLib2Hw12Touch_FT62066updateEv), (8 bytes).
    Removing main.o(.ARM.exidx.text.main), (8 bytes).
    Removing main.o(.ARM.exidx.text._GLOBAL__sub_I_main.cpp), (8 bytes).
    Removing main.o(.rodata.cst16), (144 bytes).
    Removing main.o(.rodata..L__const._ZN9EmbSysLib2Hw23DisplayGraphic_OTM8009A4initEv.data.30), (11 bytes).
    Removing main.o(.rodata._ZTVN9EmbSysLib2Hw26DisplayGraphic_OTM8009AcmdE), (92 bytes).
    Removing main.o(.rodata.uartIsc), (4 bytes).
    Removing main.o(.ARM.use_no_argv), (4 bytes).
    Removing main.o(.rodata..L__const._ZN9EmbSysLib2Hw23DisplayGraphic_OTM8009A4initEv.data.22), (12 bytes).
    Removing main.o(.rodata.str1.4), (12 bytes).
    Removing main.o(.rodata..L__const._ZN9EmbSysLib2Hw23DisplayGraphic_OTM8009A4initEv.data.32), (12 bytes).
    Removing main.o(.rodata..L__const._ZN9EmbSysLib2Hw23DisplayGraphic_OTM8009A4initEv.data.35), (12 bytes).
    Removing lib.o(.text), (0 bytes).
    Removing lib.o(.text._ZN9EmbSysLib2Hw6SystemC2Eb), (28 bytes).
    Removing lib.o(.ARM.exidx.text._ZN9EmbSysLib2Hw6SystemC2Eb), (8 bytes).
    Removing lib.o(.text._ZN9EmbSysLib2Hw6System15disableWatchdogEv), (2 bytes).
    Removing lib.o(.ARM.exidx.text._ZN9EmbSysLib2Hw6System15disableWatchdogEv), (8 bytes).
    Removing lib.o(.text._ZN9EmbSysLib2Hw6System16disableInterruptEv), (22 bytes).
    Removing lib.o(.ARM.exidx.text._ZN9EmbSysLib2Hw6System16disableInterruptEv), (8 bytes).
    Removing lib.o(.text._ZN9EmbSysLib2Hw6System5startEv), (26 bytes).
    Removing lib.o(.ARM.exidx.text._ZN9EmbSysLib2Hw6System5startEv), (8 bytes).
    Removing lib.o(.text._ZN9EmbSysLib2Hw6System15enableInterruptEv), (26 bytes).
    Removing lib.o(.ARM.exidx.text._ZN9EmbSysLib2Hw6System15enableInterruptEv), (8 bytes).
    Removing lib.o(.text._ZN9EmbSysLib2Hw6System14enableWatchdogEt), (58 bytes).
    Removing lib.o(.ARM.exidx.text._ZN9EmbSysLib2Hw6System14enableWatchdogEt), (8 bytes).
    Removing lib.o(.text._ZN9EmbSysLib2Hw6System12feedWatchdogEv), (16 bytes).
    Removing lib.o(.ARM.exidx.text._ZN9EmbSysLib2Hw6System12feedWatchdogEv), (8 bytes).
    Removing lib.o(.text._ZN9EmbSysLib2Hw6System5resetEv), (26 bytes).
    Removing lib.o(.ARM.exidx.text._ZN9EmbSysLib2Hw6System5resetEv), (8 bytes).
    Removing lib.o(.ARM.exidx.text._ZL18__NVIC_SystemResetv), (8 bytes).
    Removing lib.o(.text._ZN9EmbSysLib2Hw6System13delayMicroSecEt), (48 bytes).
    Removing lib.o(.ARM.exidx.text._ZN9EmbSysLib2Hw6System13delayMicroSecEt), (8 bytes).
    Removing lib.o(.ARM.exidx.text._ZN9EmbSysLib2Hw6System13delayMilliSecEt), (8 bytes).
    Removing lib.o(.ARM.exidx.text.SystemInit), (8 bytes).
    Removing lib.o(.ARM.exidx.text._Z18System_GetDSIclockv), (8 bytes).
    Removing lib.o(.text._Z4htont), (4 bytes).
    Removing lib.o(.ARM.exidx.text._Z4htont), (8 bytes).
    Removing lib.o(.text._Z4htonj), (4 bytes).
    Removing lib.o(.ARM.exidx.text._Z4htonj), (8 bytes).
    Removing lib.o(.text._Z4ntoht), (4 bytes).
    Removing lib.o(.ARM.exidx.text._Z4ntoht), (8 bytes).
    Removing lib.o(.text._Z4ntohj), (4 bytes).
    Removing lib.o(.ARM.exidx.text._Z4ntohj), (8 bytes).
    Removing lib.o(.ARM.exidx.text._ZN9EmbSysLib2Hw9PinConfig3setEP12GPIO_TypeDefhjh), (8 bytes).
    Removing lib.o(.ARM.exidx.text._ZN9EmbSysLib2Hw9PinConfig3setENS1_8FunctionEj), (8 bytes).
    Removing lib.o(.ARM.exidx.text._ZN9EmbSysLib3Std6Report5errorEt), (8 bytes).
    Removing lib.o(.text._ZN9EmbSysLib2Hw7Adc_McuC2ENS1_5AdcIdERNS0_5TimerE), (334 bytes).
    Removing lib.o(.ARM.exidx.text._ZN9EmbSysLib2Hw7Adc_McuC2ENS1_5AdcIdERNS0_5TimerE), (8 bytes).
    Removing lib.o(.text._ZN9EmbSysLib2Hw3AdcC2EthRNS0_5TimerE), (72 bytes).
    Removing lib.o(.ARM.exidx.text._ZN9EmbSysLib2Hw3AdcC2EthRNS0_5TimerE), (8 bytes).
    Removing lib.o(.text._ZN9EmbSysLib2Hw7Adc_Mcu8configChEhh), (1662 bytes).
    Removing lib.o(.ARM.exidx.text._ZN9EmbSysLib2Hw7Adc_Mcu8configChEhh), (8 bytes).
    Removing lib.o(.ARM.exidx.text.ADC_IRQHandler), (8 bytes).
    Removing lib.o(.text._ZN9EmbSysLib2Hw7Dac_McuC2Ev), (36 bytes).
    Removing lib.o(.ARM.exidx.text._ZN9EmbSysLib2Hw7Dac_McuC2Ev), (8 bytes).
    Removing lib.o(.text._ZN9EmbSysLib2Hw3DacC2Et), (20 bytes).
    Removing lib.o(.ARM.exidx.text._ZN9EmbSysLib2Hw3DacC2Et), (8 bytes).
    Removing lib.o(.text._ZN9EmbSysLib2Hw12Ethernet_McuC2ERKNS0_7NetAddrILh6EEERNS0_5TimerE), (1048 bytes).
    Removing lib.o(.ARM.exidx.text._ZN9EmbSysLib2Hw12Ethernet_McuC2ERKNS0_7NetAddrILh6EEERNS0_5TimerE), (8 bytes).
    Removing lib.o(.text._ZN9EmbSysLib2Hw8EthernetC2ERKNS0_7NetAddrILh6EEERNS0_5TimerE), (136 bytes).
    Removing lib.o(.ARM.exidx.text._ZN9EmbSysLib2Hw8EthernetC2ERKNS0_7NetAddrILh6EEERNS0_5TimerE), (8 bytes).
    Removing lib.o(.text._ZN9EmbSysLib2Hw12Ethernet_Mcu16WritePHYRegisterEttt), (154 bytes).
    Removing lib.o(.ARM.exidx.text._ZN9EmbSysLib2Hw12Ethernet_Mcu16WritePHYRegisterEttt), (8 bytes).
    Removing lib.o(.text._ZN9EmbSysLib2Hw12Ethernet_Mcu15ReadPHYRegisterEtt), (132 bytes).
    Removing lib.o(.ARM.exidx.text._ZN9EmbSysLib2Hw12Ethernet_Mcu15ReadPHYRegisterEtt), (8 bytes).
    Removing lib.o(.text._ZN9EmbSysLib2Hw12Ethernet_Mcu4InitEt), (1056 bytes).
    Removing lib.o(.ARM.exidx.text._ZN9EmbSysLib2Hw12Ethernet_Mcu4InitEt), (8 bytes).
    Removing lib.o(.text._ZN9EmbSysLib2Hw12Ethernet_Mcu16MACAddressConfigERKNS0_7NetAddrILh6EEE), (18 bytes).
    Removing lib.o(.ARM.exidx.text._ZN9EmbSysLib2Hw12Ethernet_Mcu16MACAddressConfigERKNS0_7NetAddrILh6EEE), (8 bytes).
    Removing lib.o(.text._ZN9EmbSysLib2Hw12Ethernet_Mcu18DMATxDescChainInitEv), (104 bytes).
    Removing lib.o(.ARM.exidx.text._ZN9EmbSysLib2Hw12Ethernet_Mcu18DMATxDescChainInitEv), (8 bytes).
    Removing lib.o(.text._ZN9EmbSysLib2Hw12Ethernet_Mcu18DMARxDescChainInitEv), (122 bytes).
    Removing lib.o(.ARM.exidx.text._ZN9EmbSysLib2Hw12Ethernet_Mcu18DMARxDescChainInitEv), (8 bytes).
    Removing lib.o(.text._ZN9EmbSysLib2Hw12Ethernet_Mcu5StartEv), (58 bytes).
    Removing lib.o(.ARM.exidx.text._ZN9EmbSysLib2Hw12Ethernet_Mcu5StartEv), (8 bytes).
    Removing lib.o(.text._ZN9EmbSysLib2Hw12Ethernet_Mcu7getTypeEv), (40 bytes).
    Removing lib.o(.ARM.exidx.text._ZN9EmbSysLib2Hw12Ethernet_Mcu7getTypeEv), (8 bytes).
    Removing lib.o(.text._ZN9EmbSysLib2Hw12Ethernet_Mcu10PacketSendEPht), (136 bytes).
    Removing lib.o(.ARM.exidx.text._ZN9EmbSysLib2Hw12Ethernet_Mcu10PacketSendEPht), (8 bytes).
    Removing lib.o(.text._ZN9EmbSysLib2Hw12Ethernet_Mcu28Prepare_Transmit_DescriptorsEt), (124 bytes).
    Removing lib.o(.ARM.exidx.text._ZN9EmbSysLib2Hw12Ethernet_Mcu28Prepare_Transmit_DescriptorsEt), (8 bytes).
    Removing lib.o(.text._ZN9EmbSysLib2Hw12Ethernet_Mcu13PacketReceiveEv), (254 bytes).
    Removing lib.o(.ARM.exidx.text._ZN9EmbSysLib2Hw12Ethernet_Mcu13PacketReceiveEv), (8 bytes).
    Removing lib.o(.text._ZN9EmbSysLib2Hw12Ethernet_Mcu18CheckFrameReceivedEv), (86 bytes).
    Removing lib.o(.ARM.exidx.text._ZN9EmbSysLib2Hw12Ethernet_Mcu18CheckFrameReceivedEv), (8 bytes).
    Removing lib.o(.text._ZN9EmbSysLib2Hw12Ethernet_Mcu18Get_Received_FrameEv), (48 bytes).
    Removing lib.o(.ARM.exidx.text._ZN9EmbSysLib2Hw12Ethernet_Mcu18Get_Received_FrameEv), (8 bytes).
    Removing lib.o(.text._ZN9EmbSysLib2Hw12Ethernet_Mcu6createENS0_7NetAddrILh6EEEt), (24 bytes).
    Removing lib.o(.ARM.exidx.text._ZN9EmbSysLib2Hw12Ethernet_Mcu6createENS0_7NetAddrILh6EEEt), (8 bytes).
    Removing lib.o(.ARM.exidx.text._ZN9EmbSysLib2Hw13I2Cmaster_McuC2ENS1_6I2C_IDEt), (8 bytes).
    Removing lib.o(.text._ZN9EmbSysLib2Hw9I2CmasterC2Et), (24 bytes).
    Removing lib.o(.ARM.exidx.text._ZN9EmbSysLib2Hw9I2CmasterC2Et), (8 bytes).
    Removing lib.o(.text._ZN9EmbSysLib2Hw12Memory_BKRAMC2Ev), (62 bytes).
    Removing lib.o(.ARM.exidx.text._ZN9EmbSysLib2Hw12Memory_BKRAMC2Ev), (8 bytes).
    Removing lib.o(.ARM.exidx.text._ZN9EmbSysLib2Hw6MemoryC2Etjhb), (8 bytes).
    Removing lib.o(.text._ZN9EmbSysLib2Hw12Memory_BKRAM6unlockEv), (18 bytes).
    Removing lib.o(.ARM.exidx.text._ZN9EmbSysLib2Hw12Memory_BKRAM6unlockEv), (8 bytes).
    Removing lib.o(.text._ZN9EmbSysLib2Hw12Memory_BKRAM4lockEv), (18 bytes).
    Removing lib.o(.ARM.exidx.text._ZN9EmbSysLib2Hw12Memory_BKRAM4lockEv), (8 bytes).
    Removing lib.o(.ARM.exidx.text._ZN9EmbSysLib2Hw12Memory_FlashC2Ehh), (8 bytes).
    Removing lib.o(.text._ZN9EmbSysLib3Std6Report5alertEt), (78 bytes).
    Removing lib.o(.ARM.exidx.text._ZN9EmbSysLib3Std6Report5alertEt), (8 bytes).
    Removing lib.o(.ARM.exidx.text._ZN9EmbSysLib2Hw12Memory_Flash6unlockEv), (8 bytes).
    Removing lib.o(.ARM.exidx.text._ZN9EmbSysLib2Hw12Memory_Flash4lockEv), (8 bytes).
    Removing lib.o(.ARM.exidx.text._ZN9EmbSysLib2Hw12Memory_Flash5eraseEv), (8 bytes).
    Removing lib.o(.text._ZN9EmbSysLib2Hw12Memory_Flash9erasePageEh), (84 bytes).
    Removing lib.o(.ARM.exidx.text._ZN9EmbSysLib2Hw12Memory_Flash9erasePageEh), (8 bytes).
    Removing lib.o(.ARM.exidx.text._ZN9EmbSysLib2Hw12Memory_Flash9writeByteEjh), (8 bytes).
    Removing lib.o(.ARM.exidx.text._ZN9EmbSysLib2Hw12Memory_Flash8readByteEj), (8 bytes).
    Removing lib.o(.ARM.exidx.text._ZN9EmbSysLib2Hw8Port_McuC2ENS1_6PortIdE), (8 bytes).
    Removing lib.o(.text._ZN9EmbSysLib2Hw4PortC2Et), (20 bytes).
    Removing lib.o(.ARM.exidx.text._ZN9EmbSysLib2Hw4PortC2Et), (8 bytes).
    Removing lib.o(.ARM.exidx.text._ZN9EmbSysLib2Hw8Port_Mcu7setModeEjNS0_4Port4ModeE), (8 bytes).
    Removing lib.o(.ARM.exidx.text._ZN9EmbSysLib2Hw8Port_Mcu10setPinModeEhNS0_4Port4ModeE), (8 bytes).
    Removing lib.o(.text._ZN9EmbSysLib2Hw7Rtc_McuC2ENS1_17RTC_ClockConfig_tE), (222 bytes).
    Removing lib.o(.ARM.exidx.text._ZN9EmbSysLib2Hw7Rtc_McuC2ENS1_17RTC_ClockConfig_tE), (8 bytes).
    Removing lib.o(.text._ZN9EmbSysLib2Hw3RtcC2Et), (20 bytes).
    Removing lib.o(.ARM.exidx.text._ZN9EmbSysLib2Hw3RtcC2Et), (8 bytes).
    Removing lib.o(.text._ZN9EmbSysLib2Hw7Rtc_Mcu3setERKNS0_3Rtc10PropertiesE), (422 bytes).
    Removing lib.o(.ARM.exidx.text._ZN9EmbSysLib2Hw7Rtc_Mcu3setERKNS0_3Rtc10PropertiesE), (8 bytes).
    Removing lib.o(.text._ZN9EmbSysLib2Hw7Rtc_Mcu3getERNS0_3Rtc10PropertiesE), (184 bytes).
    Removing lib.o(.ARM.exidx.text._ZN9EmbSysLib2Hw7Rtc_Mcu3getERNS0_3Rtc10PropertiesE), (8 bytes).
    Removing lib.o(.ARM.exidx.text.SysTick_Handler), (8 bytes).
    Removing lib.o(.ARM.exidx.text.PendSV_Handler), (8 bytes).
    Removing lib.o(.ARM.exidx.text._ZN9EmbSysLib2Hw9Timer_McuC2ENS1_7TimerIdEj), (8 bytes).
    Removing lib.o(.text._ZN9EmbSysLib2Hw5TimerC2Et), (22 bytes).
    Removing lib.o(.ARM.exidx.text._ZN9EmbSysLib2Hw5TimerC2Et), (8 bytes).
    Removing lib.o(.ARM.exidx.text._ZN9EmbSysLib2Hw9Timer_Mcu9enablePWMEhNS0_5Timer4ModeE), (8 bytes).
    Removing lib.o(.ARM.exidx.text._ZN9EmbSysLib2Hw9Timer_Mcu6setPWMEht), (8 bytes).
    Removing lib.o(.text._ZN9EmbSysLib2Hw9Timer_Mcu3isrEv), (12 bytes).
    Removing lib.o(.ARM.exidx.text._ZN9EmbSysLib2Hw9Timer_Mcu3isrEv), (8 bytes).
    Removing lib.o(.ARM.exidx.text.TIM1_UP_TIM10_IRQHandler), (8 bytes).
    Removing lib.o(.ARM.exidx.text.TIM1_TRG_COM_TIM11_IRQHandler), (8 bytes).
    Removing lib.o(.ARM.exidx.text.TIM8_TRG_COM_TIM14_IRQHandler), (8 bytes).
    Removing lib.o(.ARM.exidx.text.TIM2_IRQHandler), (8 bytes).
    Removing lib.o(.ARM.exidx.text.TIM3_IRQHandler), (8 bytes).
    Removing lib.o(.ARM.exidx.text.TIM4_IRQHandler), (8 bytes).
    Removing lib.o(.ARM.exidx.text.TIM5_IRQHandler), (8 bytes).
    Removing lib.o(.ARM.exidx.text.TIM7_IRQHandler), (8 bytes).
    Removing lib.o(.ARM.exidx.text.TIM8_CC_IRQHandler), (8 bytes).
    Removing lib.o(.ARM.exidx.text._ZN9EmbSysLib2Hw8Uart_McuC2ENS1_8USART_IdEjhtt), (8 bytes).
    Removing lib.o(.text._ZN9EmbSysLib2Hw4UartC2Ettt), (82 bytes).
    Removing lib.o(.ARM.exidx.text._ZN9EmbSysLib2Hw4UartC2Ettt), (8 bytes).
    Removing lib.o(.ARM.exidx.text._ZN9EmbSysLib2Hw8Uart_Mcu11setBaudrateEj), (8 bytes).
    Removing lib.o(.text._ZN9EmbSysLib2Hw8Uart_Mcu3isrEv), (50 bytes).
    Removing lib.o(.ARM.exidx.text._ZN9EmbSysLib2Hw8Uart_Mcu3isrEv), (8 bytes).
    Removing lib.o(.ARM.exidx.text.USART1_IRQHandler), (8 bytes).
    Removing lib.o(.ARM.exidx.text.USART2_IRQHandler), (8 bytes).
    Removing lib.o(.ARM.exidx.text.USART3_IRQHandler), (8 bytes).
    Removing lib.o(.ARM.exidx.text.UART4_IRQHandler), (8 bytes).
    Removing lib.o(.ARM.exidx.text.UART5_IRQHandler), (8 bytes).
    Removing lib.o(.ARM.exidx.text.USART6_IRQHandler), (8 bytes).
    Removing lib.o(.text._ZN9EmbSysLib2Hw13USBdevice_Mcu10EndpointINC2Ev), (12 bytes).
    Removing lib.o(.ARM.exidx.text._ZN9EmbSysLib2Hw13USBdevice_Mcu10EndpointINC2Ev), (8 bytes).
    Removing lib.o(.text._ZN9EmbSysLib2Hw13USBdevice_Mcu10EndpointIN4initEh), (32 bytes).
    Removing lib.o(.ARM.exidx.text._ZN9EmbSysLib2Hw13USBdevice_Mcu10EndpointIN4initEh), (8 bytes).
    Removing lib.o(.text._ZN9EmbSysLib2Hw13USBdevice_Mcu10EndpointIN6configEth), (84 bytes).
    Removing lib.o(.ARM.exidx.text._ZN9EmbSysLib2Hw13USBdevice_Mcu10EndpointIN6configEth), (8 bytes).
    Removing lib.o(.text._ZN9EmbSysLib2Hw13USBdevice_Mcu10EndpointIN5flushEv), (56 bytes).
    Removing lib.o(.ARM.exidx.text._ZN9EmbSysLib2Hw13USBdevice_Mcu10EndpointIN5flushEv), (8 bytes).
    Removing lib.o(.text._ZN9EmbSysLib2Hw13USBdevice_Mcu10EndpointIN5resetEv), (10 bytes).
    Removing lib.o(.ARM.exidx.text._ZN9EmbSysLib2Hw13USBdevice_Mcu10EndpointIN5resetEv), (8 bytes).
    Removing lib.o(.text._ZN9EmbSysLib2Hw13USBdevice_Mcu10EndpointIN5startEv), (26 bytes).
    Removing lib.o(.ARM.exidx.text._ZN9EmbSysLib2Hw13USBdevice_Mcu10EndpointIN5startEv), (8 bytes).
    Removing lib.o(.text._ZN9EmbSysLib2Hw13USBdevice_Mcu10EndpointIN8setStallEv), (28 bytes).
    Removing lib.o(.ARM.exidx.text._ZN9EmbSysLib2Hw13USBdevice_Mcu10EndpointIN8setStallEv), (8 bytes).
    Removing lib.o(.text._ZN9EmbSysLib2Hw13USBdevice_Mcu10EndpointIN8clrStallEv), (22 bytes).
    Removing lib.o(.ARM.exidx.text._ZN9EmbSysLib2Hw13USBdevice_Mcu10EndpointIN8clrStallEv), (8 bytes).
    Removing lib.o(.text._ZN9EmbSysLib2Hw13USBdevice_Mcu10EndpointIN6setNAKEv), (14 bytes).
    Removing lib.o(.ARM.exidx.text._ZN9EmbSysLib2Hw13USBdevice_Mcu10EndpointIN6setNAKEv), (8 bytes).
    Removing lib.o(.text._ZN9EmbSysLib2Hw13USBdevice_Mcu10EndpointIN6clrNAKEv), (14 bytes).
    Removing lib.o(.ARM.exidx.text._ZN9EmbSysLib2Hw13USBdevice_Mcu10EndpointIN6clrNAKEv), (8 bytes).
    Removing lib.o(.text._ZN9EmbSysLib2Hw13USBdevice_Mcu10EndpointIN5writeEPht), (128 bytes).
    Removing lib.o(.ARM.exidx.text._ZN9EmbSysLib2Hw13USBdevice_Mcu10EndpointIN5writeEPht), (8 bytes).
    Removing lib.o(.text._ZN9EmbSysLib2Hw13USBdevice_Mcu10EndpointIN11writeToFifoEv), (168 bytes).
    Removing lib.o(.ARM.exidx.text._ZN9EmbSysLib2Hw13USBdevice_Mcu10EndpointIN11writeToFifoEv), (8 bytes).
    Removing lib.o(.text._ZN9EmbSysLib2Hw13USBdevice_Mcu10EndpointIN8transmitEb), (120 bytes).
    Removing lib.o(.ARM.exidx.text._ZN9EmbSysLib2Hw13USBdevice_Mcu10EndpointIN8transmitEb), (8 bytes).
    Removing lib.o(.text._ZN9EmbSysLib2Hw13USBdevice_Mcu10EndpointIN11transmitZLPEv), (26 bytes).
    Removing lib.o(.ARM.exidx.text._ZN9EmbSysLib2Hw13USBdevice_Mcu10EndpointIN11transmitZLPEv), (8 bytes).
    Removing lib.o(.text._ZN9EmbSysLib2Hw13USBdevice_Mcu10EndpointIN12getInterruptEv), (32 bytes).
    Removing lib.o(.ARM.exidx.text._ZN9EmbSysLib2Hw13USBdevice_Mcu10EndpointIN12getInterruptEv), (8 bytes).
    Removing lib.o(.text._ZN9EmbSysLib2Hw13USBdevice_Mcu10EndpointIN12clrInterruptEj), (12 bytes).
    Removing lib.o(.ARM.exidx.text._ZN9EmbSysLib2Hw13USBdevice_Mcu10EndpointIN12clrInterruptEj), (8 bytes).
    Removing lib.o(.text._ZN9EmbSysLib2Hw13USBdevice_Mcu11EndpointOUTC2Ev), (12 bytes).
    Removing lib.o(.ARM.exidx.text._ZN9EmbSysLib2Hw13USBdevice_Mcu11EndpointOUTC2Ev), (8 bytes).
    Removing lib.o(.text._ZN9EmbSysLib2Hw13USBdevice_Mcu11EndpointOUT4initEh), (28 bytes).
    Removing lib.o(.ARM.exidx.text._ZN9EmbSysLib2Hw13USBdevice_Mcu11EndpointOUT4initEh), (8 bytes).
    Removing lib.o(.text._ZN9EmbSysLib2Hw13USBdevice_Mcu11EndpointOUT6configEth), (162 bytes).
    Removing lib.o(.ARM.exidx.text._ZN9EmbSysLib2Hw13USBdevice_Mcu11EndpointOUT6configEth), (8 bytes).
    Removing lib.o(.text._ZN9EmbSysLib2Hw13USBdevice_Mcu11EndpointOUT7receiveEv), (86 bytes).
    Removing lib.o(.ARM.exidx.text._ZN9EmbSysLib2Hw13USBdevice_Mcu11EndpointOUT7receiveEv), (8 bytes).
    Removing lib.o(.text._ZN9EmbSysLib2Hw13USBdevice_Mcu11EndpointOUT5flushEv), (50 bytes).
    Removing lib.o(.ARM.exidx.text._ZN9EmbSysLib2Hw13USBdevice_Mcu11EndpointOUT5flushEv), (8 bytes).
    Removing lib.o(.text._ZN9EmbSysLib2Hw13USBdevice_Mcu11EndpointOUT5resetEv), (10 bytes).
    Removing lib.o(.ARM.exidx.text._ZN9EmbSysLib2Hw13USBdevice_Mcu11EndpointOUT5resetEv), (8 bytes).
    Removing lib.o(.text._ZN9EmbSysLib2Hw13USBdevice_Mcu11EndpointOUT5startEv), (40 bytes).
    Removing lib.o(.ARM.exidx.text._ZN9EmbSysLib2Hw13USBdevice_Mcu11EndpointOUT5startEv), (8 bytes).
    Removing lib.o(.text._ZN9EmbSysLib2Hw13USBdevice_Mcu11EndpointOUT8setStallEv), (44 bytes).
    Removing lib.o(.ARM.exidx.text._ZN9EmbSysLib2Hw13USBdevice_Mcu11EndpointOUT8setStallEv), (8 bytes).
    Removing lib.o(.text._ZN9EmbSysLib2Hw13USBdevice_Mcu11EndpointOUT8clrStallEv), (22 bytes).
    Removing lib.o(.ARM.exidx.text._ZN9EmbSysLib2Hw13USBdevice_Mcu11EndpointOUT8clrStallEv), (8 bytes).
    Removing lib.o(.text._ZN9EmbSysLib2Hw13USBdevice_Mcu11EndpointOUT6setNAKEv), (14 bytes).
    Removing lib.o(.ARM.exidx.text._ZN9EmbSysLib2Hw13USBdevice_Mcu11EndpointOUT6setNAKEv), (8 bytes).
    Removing lib.o(.text._ZN9EmbSysLib2Hw13USBdevice_Mcu11EndpointOUT6clrNAKEv), (14 bytes).
    Removing lib.o(.ARM.exidx.text._ZN9EmbSysLib2Hw13USBdevice_Mcu11EndpointOUT6clrNAKEv), (8 bytes).
    Removing lib.o(.text._ZN9EmbSysLib2Hw13USBdevice_Mcu11EndpointOUT4readEPht), (122 bytes).
    Removing lib.o(.ARM.exidx.text._ZN9EmbSysLib2Hw13USBdevice_Mcu11EndpointOUT4readEPht), (8 bytes).
    Removing lib.o(.text._ZN9EmbSysLib2Hw13USBdevice_Mcu11EndpointOUT12readFromFifoEt), (102 bytes).
    Removing lib.o(.ARM.exidx.text._ZN9EmbSysLib2Hw13USBdevice_Mcu11EndpointOUT12readFromFifoEt), (8 bytes).
    Removing lib.o(.text._ZN9EmbSysLib2Hw13USBdevice_Mcu11EndpointOUT10receiveZLPEv), (36 bytes).
    Removing lib.o(.ARM.exidx.text._ZN9EmbSysLib2Hw13USBdevice_Mcu11EndpointOUT10receiveZLPEv), (8 bytes).
    Removing lib.o(.text._ZN9EmbSysLib2Hw13USBdevice_Mcu11EndpointOUT12getInterruptEv), (20 bytes).
    Removing lib.o(.ARM.exidx.text._ZN9EmbSysLib2Hw13USBdevice_Mcu11EndpointOUT12getInterruptEv), (8 bytes).
    Removing lib.o(.text._ZN9EmbSysLib2Hw13USBdevice_Mcu11EndpointOUT12clrInterruptEj), (12 bytes).
    Removing lib.o(.ARM.exidx.text._ZN9EmbSysLib2Hw13USBdevice_Mcu11EndpointOUT12clrInterruptEj), (8 bytes).
    Removing lib.o(.text._ZN9EmbSysLib2Hw13USBdevice_McuC2ERNS0_19USBdeviceDescriptorE), (352 bytes).
    Removing lib.o(.ARM.exidx.text._ZN9EmbSysLib2Hw13USBdevice_McuC2ERNS0_19USBdeviceDescriptorE), (8 bytes).
    Removing lib.o(.text._ZN9EmbSysLib2Hw9USBdeviceC2EtRNS0_19USBdeviceDescriptorE), (128 bytes).
    Removing lib.o(.ARM.exidx.text._ZN9EmbSysLib2Hw9USBdeviceC2EtRNS0_19USBdeviceDescriptorE), (8 bytes).
    Removing lib.o(.text._ZN9EmbSysLib2Hw13USBdevice_Mcu5startEv), (742 bytes).
    Removing lib.o(.ARM.exidx.text._ZN9EmbSysLib2Hw13USBdevice_Mcu5startEv), (8 bytes).
    Removing lib.o(.text._ZN9EmbSysLib2Hw13USBdevice_Mcu9CoreResetEv), (82 bytes).
    Removing lib.o(.ARM.exidx.text._ZN9EmbSysLib2Hw13USBdevice_Mcu9CoreResetEv), (8 bytes).
    Removing lib.o(.text._ZN9EmbSysLib2Hw13USBdevice_Mcu5resetEv), (190 bytes).
    Removing lib.o(.ARM.exidx.text._ZN9EmbSysLib2Hw13USBdevice_Mcu5resetEv), (8 bytes).
    Removing lib.o(.text._ZN9EmbSysLib2Hw13USBdevice_Mcu9configureEh), (2 bytes).
    Removing lib.o(.ARM.exidx.text._ZN9EmbSysLib2Hw13USBdevice_Mcu9configureEh), (8 bytes).
    Removing lib.o(.text._ZN9EmbSysLib2Hw13USBdevice_Mcu10setAddressEh), (54 bytes).
    Removing lib.o(.ARM.exidx.text._ZN9EmbSysLib2Hw13USBdevice_Mcu10setAddressEh), (8 bytes).
    Removing lib.o(.text._ZN9EmbSysLib2Hw13USBdevice_Mcu8configEPEhth), (172 bytes).
    Removing lib.o(.ARM.exidx.text._ZN9EmbSysLib2Hw13USBdevice_Mcu8configEPEhth), (8 bytes).
    Removing lib.o(.text._ZN9EmbSysLib2Hw13USBdevice_Mcu10setStallEPEh), (104 bytes).
    Removing lib.o(.ARM.exidx.text._ZN9EmbSysLib2Hw13USBdevice_Mcu10setStallEPEh), (8 bytes).
    Removing lib.o(.text._ZN9EmbSysLib2Hw13USBdevice_Mcu10clrStallEPEh), (50 bytes).
    Removing lib.o(.ARM.exidx.text._ZN9EmbSysLib2Hw13USBdevice_Mcu10clrStallEPEh), (8 bytes).
    Removing lib.o(.text._ZN9EmbSysLib2Hw13USBdevice_Mcu9setNAK_EPEh), (36 bytes).
    Removing lib.o(.ARM.exidx.text._ZN9EmbSysLib2Hw13USBdevice_Mcu9setNAK_EPEh), (8 bytes).
    Removing lib.o(.text._ZN9EmbSysLib2Hw13USBdevice_Mcu9clrNAK_EPEh), (36 bytes).
    Removing lib.o(.ARM.exidx.text._ZN9EmbSysLib2Hw13USBdevice_Mcu9clrNAK_EPEh), (8 bytes).
    Removing lib.o(.text._ZN9EmbSysLib2Hw13USBdevice_Mcu6readEPEhPht), (172 bytes).
    Removing lib.o(.ARM.exidx.text._ZN9EmbSysLib2Hw13USBdevice_Mcu6readEPEhPht), (8 bytes).
    Removing lib.o(.text._ZN9EmbSysLib2Hw13USBdevice_Mcu7writeEPEhPht), (166 bytes).
    Removing lib.o(.ARM.exidx.text._ZN9EmbSysLib2Hw13USBdevice_Mcu7writeEPEhPht), (8 bytes).
    Removing lib.o(.text._ZN9EmbSysLib2Hw13USBdevice_Mcu14getInInterruptEv), (18 bytes).
    Removing lib.o(.ARM.exidx.text._ZN9EmbSysLib2Hw13USBdevice_Mcu14getInInterruptEv), (8 bytes).
    Removing lib.o(.text._ZN9EmbSysLib2Hw13USBdevice_Mcu15getOutInterruptEv), (18 bytes).
    Removing lib.o(.ARM.exidx.text._ZN9EmbSysLib2Hw13USBdevice_Mcu15getOutInterruptEv), (8 bytes).
    Removing lib.o(.text._ZN9EmbSysLib2Hw13USBdevice_Mcu18isInterruptPendingEj), (24 bytes).
    Removing lib.o(.ARM.exidx.text._ZN9EmbSysLib2Hw13USBdevice_Mcu18isInterruptPendingEj), (8 bytes).
    Removing lib.o(.text._ZN9EmbSysLib2Hw13USBdevice_Mcu12clrInterruptEj), (14 bytes).
    Removing lib.o(.ARM.exidx.text._ZN9EmbSysLib2Hw13USBdevice_Mcu12clrInterruptEj), (8 bytes).
    Removing lib.o(.ARM.exidx.text.OTG_FS_IRQHandler), (8 bytes).
    Removing lib.o(.text._ZN9EmbSysLib3Std5ClockC2Ev), (26 bytes).
    Removing lib.o(.ARM.exidx.text._ZN9EmbSysLib3Std5ClockC2Ev), (8 bytes).
    Removing lib.o(.text._ZN9EmbSysLib3Std5Clock5startEjt), (66 bytes).
    Removing lib.o(.ARM.exidx.text._ZN9EmbSysLib3Std5Clock5startEjt), (8 bytes).
    Removing lib.o(.text._ZN9EmbSysLib3Std5Clock6toTicsEjt), (34 bytes).
    Removing lib.o(.ARM.exidx.text._ZN9EmbSysLib3Std5Clock6toTicsEjt), (8 bytes).
    Removing lib.o(.text._ZN9EmbSysLib3Std5Clock5startEv), (30 bytes).
    Removing lib.o(.ARM.exidx.text._ZN9EmbSysLib3Std5Clock5startEv), (8 bytes).
    Removing lib.o(.text._ZN9EmbSysLib3Std5Clock7timeoutEv), (70 bytes).
    Removing lib.o(.ARM.exidx.text._ZN9EmbSysLib3Std5Clock7timeoutEv), (8 bytes).
    Removing lib.o(.text._ZN9EmbSysLib3Std5Clock4stopEv), (6 bytes).
    Removing lib.o(.ARM.exidx.text._ZN9EmbSysLib3Std5Clock4stopEv), (8 bytes).
    Removing lib.o(.text._ZN9EmbSysLib3Std5Clock3getEv), (46 bytes).
    Removing lib.o(.ARM.exidx.text._ZN9EmbSysLib3Std5Clock3getEv), (8 bytes).
    Removing lib.o(.text._ZN9EmbSysLib3Std3CrcC2ENS1_4MODEEtt), (202 bytes).
    Removing lib.o(.ARM.exidx.text._ZN9EmbSysLib3Std3CrcC2ENS1_4MODEEtt), (8 bytes).
    Removing lib.o(.text._ZN9EmbSysLib3Std3CrcD2Ev), (16 bytes).
    Removing lib.o(.ARM.exidx.text._ZN9EmbSysLib3Std3CrcD2Ev), (8 bytes).
    Removing lib.o(.text._ZN9EmbSysLib3Std3CrcclEPKhj), (554 bytes).
    Removing lib.o(.ARM.exidx.text._ZN9EmbSysLib3Std3CrcclEPKhj), (8 bytes).
    Removing lib.o(.text._ZN9EmbSysLib3Std3CrcclEh), (184 bytes).
    Removing lib.o(.ARM.exidx.text._ZN9EmbSysLib3Std3CrcclEh), (8 bytes).
    Removing lib.o(.text._ZN9EmbSysLib3Std6ReportC2Et), (8 bytes).
    Removing lib.o(.ARM.exidx.text._ZN9EmbSysLib3Std6ReportC2Et), (8 bytes).
    Removing lib.o(.text._ZN9EmbSysLib3Std6Report5storeEt), (40 bytes).
    Removing lib.o(.ARM.exidx.text._ZN9EmbSysLib3Std6Report5storeEt), (8 bytes).
    Removing lib.o(.text._ZN9EmbSysLib3Std6Report7getCodeEv), (4 bytes).
    Removing lib.o(.ARM.exidx.text._ZN9EmbSysLib3Std6Report7getCodeEv), (8 bytes).
    Removing lib.o(.text._ZN9EmbSysLib3Std6Report12getCodeEventEv), (58 bytes).
    Removing lib.o(.ARM.exidx.text._ZN9EmbSysLib3Std6Report12getCodeEventEv), (8 bytes).
    Removing lib.o(.text._ZN9EmbSysLib3Std6Report11getModuleIdEv), (4 bytes).
    Removing lib.o(.ARM.exidx.text._ZN9EmbSysLib3Std6Report11getModuleIdEv), (8 bytes).
    Removing lib.o(.ARM.exidx.text._ZN9EmbSysLib3Std6Report7HandlerC2Ev), (8 bytes).
    Removing lib.o(.ARM.exidx.text._ZN9EmbSysLib3Std6Report7HandlerD2Ev), (8 bytes).
    Removing lib.o(.text._ZN9EmbSysLib2Hw3Adc6enableEhh), (236 bytes).
    Removing lib.o(.ARM.exidx.text._ZN9EmbSysLib2Hw3Adc6enableEhh), (8 bytes).
    Removing lib.o(.text._ZN9EmbSysLib2Hw4FontC2EPKNS1_6HeaderEPKh), (8 bytes).
    Removing lib.o(.ARM.exidx.text._ZN9EmbSysLib2Hw4FontC2EPKNS1_6HeaderEPKh), (8 bytes).
    Removing lib.o(.ARM.exidx.text._ZN9EmbSysLib2Hw4FontC2EPKh), (8 bytes).
    Removing lib.o(.text._ZNK9EmbSysLib2Hw4Font12getCharWidthEv), (6 bytes).
    Removing lib.o(.ARM.exidx.text._ZNK9EmbSysLib2Hw4Font12getCharWidthEv), (8 bytes).
    Removing lib.o(.text._ZNK9EmbSysLib2Hw4Font13getCharHeightEv), (6 bytes).
    Removing lib.o(.ARM.exidx.text._ZNK9EmbSysLib2Hw4Font13getCharHeightEv), (8 bytes).
    Removing lib.o(.text._ZN9EmbSysLib2Hw4Font7setCharEh), (42 bytes).
    Removing lib.o(.ARM.exidx.text._ZN9EmbSysLib2Hw4Font7setCharEh), (8 bytes).
    Removing lib.o(.text._ZN9EmbSysLib2Hw4Font8getPixelEhh), (26 bytes).
    Removing lib.o(.ARM.exidx.text._ZN9EmbSysLib2Hw4Font8getPixelEhh), (8 bytes).
    Removing lib.o(.text._ZN9EmbSysLib2Hw6BitmapC2EPKNS1_6HeaderEPKt), (6 bytes).
    Removing lib.o(.ARM.exidx.text._ZN9EmbSysLib2Hw6BitmapC2EPKNS1_6HeaderEPKt), (8 bytes).
    Removing lib.o(.ARM.exidx.text._ZN9EmbSysLib2Hw6BitmapC2EPKh), (8 bytes).
    Removing lib.o(.ARM.exidx.text._ZNK9EmbSysLib2Hw6Bitmap8getWidthEv), (8 bytes).
    Removing lib.o(.text._ZNK9EmbSysLib2Hw6Bitmap9getHeightEv), (6 bytes).
    Removing lib.o(.ARM.exidx.text._ZNK9EmbSysLib2Hw6Bitmap9getHeightEv), (8 bytes).
    Removing lib.o(.text._ZN9EmbSysLib2Hw6Bitmap8getPixelEtt), (16 bytes).
    Removing lib.o(.ARM.exidx.text._ZN9EmbSysLib2Hw6Bitmap8getPixelEtt), (8 bytes).
    Removing lib.o(.text._ZN9EmbSysLib2Hw11DisplayCharC2Ethh), (28 bytes).
    Removing lib.o(.ARM.exidx.text._ZN9EmbSysLib2Hw11DisplayCharC2Ethh), (8 bytes).
    Removing lib.o(.ARM.exidx.text._ZN9EmbSysLib2Hw11DisplayChar9putStringEPKc), (8 bytes).
    Removing lib.o(.ARM.exidx.text._ZN9EmbSysLib2Hw14DisplayGraphicC2EtttNS0_4FontEh), (8 bytes).
    Removing lib.o(.ARM.exidx.text._ZN9EmbSysLib2Hw14DisplayGraphic7setFontENS0_4FontEh), (8 bytes).
    Removing lib.o(.ARM.exidx.text._ZN9EmbSysLib2Hw14DisplayGraphic7setZoomEh), (8 bytes).
    Removing lib.o(.ARM.exidx.text._ZN9EmbSysLib2Hw14DisplayGraphic12setBackColorEt), (8 bytes).
    Removing lib.o(.ARM.exidx.text._ZN9EmbSysLib2Hw14DisplayGraphic13setPaintColorEt), (8 bytes).
    Removing lib.o(.ARM.exidx.text._ZN9EmbSysLib2Hw14DisplayGraphic12setTextColorEt), (8 bytes).
    Removing lib.o(.ARM.exidx.text._ZN9EmbSysLib2Hw14DisplayGraphic12gotoPixelPosEtt), (8 bytes).
    Removing lib.o(.ARM.exidx.text._ZN9EmbSysLib2Hw14DisplayGraphic11gotoTextPosEhh), (8 bytes).
    Removing lib.o(.ARM.exidx.text._ZN9EmbSysLib2Hw14DisplayGraphic7putCharEc), (8 bytes).
    Removing lib.o(.ARM.exidx.text._ZN9EmbSysLib2Hw14DisplayGraphic8putPixelEtt), (8 bytes).
    Removing lib.o(.ARM.exidx.text._ZN9EmbSysLib2Hw14DisplayGraphic12putRectangleEtttt), (8 bytes).
    Removing lib.o(.ARM.exidx.text._ZN9EmbSysLib2Hw14DisplayGraphic9putBitmapEttNS0_6BitmapE), (8 bytes).
    Removing lib.o(.text._ZN9EmbSysLib2Hw8Ethernet7processEv), (72 bytes).
    Removing lib.o(.ARM.exidx.text._ZN9EmbSysLib2Hw8Ethernet7processEv), (8 bytes).
    Removing lib.o(.text._ZN9EmbSysLib2Hw9NetEthARP7processEv), (172 bytes).
    Removing lib.o(.ARM.exidx.text._ZN9EmbSysLib2Hw9NetEthARP7processEv), (8 bytes).
    Removing lib.o(.text._ZN9EmbSysLib2Hw8Ethernet6setARPEPNS0_9NetEthARPE), (6 bytes).
    Removing lib.o(.ARM.exidx.text._ZN9EmbSysLib2Hw8Ethernet6setARPEPNS0_9NetEthARPE), (8 bytes).
    Removing lib.o(.text._ZN9EmbSysLib2Hw8Ethernet5setIPEPNS0_8NetEthIPE), (6 bytes).
    Removing lib.o(.ARM.exidx.text._ZN9EmbSysLib2Hw8Ethernet5setIPEPNS0_8NetEthIPE), (8 bytes).
    Removing lib.o(.text._ZN9EmbSysLib2Hw8Ethernet5getIPEv), (28 bytes).
    Removing lib.o(.ARM.exidx.text._ZN9EmbSysLib2Hw8Ethernet5getIPEv), (8 bytes).
    Removing lib.o(.text._ZN9EmbSysLib2Hw8Ethernet10getAddrPhyEv), (6 bytes).
    Removing lib.o(.ARM.exidx.text._ZN9EmbSysLib2Hw8Ethernet10getAddrPhyEv), (8 bytes).
    Removing lib.o(.text._ZN9EmbSysLib2Hw8Ethernet7isNewIPEv), (28 bytes).
    Removing lib.o(.ARM.exidx.text._ZN9EmbSysLib2Hw8Ethernet7isNewIPEv), (8 bytes).
    Removing lib.o(.text._ZN9EmbSysLib2Hw8NetEthIP7isNewIPEv), (24 bytes).
    Removing lib.o(.ARM.exidx.text._ZN9EmbSysLib2Hw8NetEthIP7isNewIPEv), (8 bytes).
    Removing lib.o(.ARM.exidx.text._ZN9EmbSysLib2Hw9I2Cmaster5writeEhPhhS2_h), (8 bytes).
    Removing lib.o(.ARM.exidx.text._ZN9EmbSysLib2Hw9I2Cmaster4readEhPhhS2_h), (8 bytes).
    Removing lib.o(.text._ZN9EmbSysLib2Hw14I2Cmaster_EmulC2ERNS0_4Port3PinES4_t), (78 bytes).
    Removing lib.o(.ARM.exidx.text._ZN9EmbSysLib2Hw14I2Cmaster_EmulC2ERNS0_4Port3PinES4_t), (8 bytes).
    Removing lib.o(.text._ZN9EmbSysLib2Hw14I2Cmaster_Emul4waitEv), (48 bytes).
    Removing lib.o(.ARM.exidx.text._ZN9EmbSysLib2Hw14I2Cmaster_Emul4waitEv), (8 bytes).
    Removing lib.o(.text._ZN9EmbSysLib2Hw14I2Cmaster_Emul11waitForAcknEv), (48 bytes).
    Removing lib.o(.ARM.exidx.text._ZN9EmbSysLib2Hw14I2Cmaster_Emul11waitForAcknEv), (8 bytes).
    Removing lib.o(.text._ZN9EmbSysLib2Hw14I2Cmaster_Emul5startEh), (80 bytes).
    Removing lib.o(.ARM.exidx.text._ZN9EmbSysLib2Hw14I2Cmaster_Emul5startEh), (8 bytes).
    Removing lib.o(.text._ZN9EmbSysLib2Hw14I2Cmaster_Emul4stopEv), (88 bytes).
    Removing lib.o(.ARM.exidx.text._ZN9EmbSysLib2Hw14I2Cmaster_Emul4stopEv), (8 bytes).
    Removing lib.o(.text._ZN9EmbSysLib2Hw14I2Cmaster_Emul8sendAddrEh), (6 bytes).
    Removing lib.o(.ARM.exidx.text._ZN9EmbSysLib2Hw14I2Cmaster_Emul8sendAddrEh), (8 bytes).
    Removing lib.o(.text._ZN9EmbSysLib2Hw14I2Cmaster_Emul9writeByteEh), (144 bytes).
    Removing lib.o(.ARM.exidx.text._ZN9EmbSysLib2Hw14I2Cmaster_Emul9writeByteEh), (8 bytes).
    Removing lib.o(.text._ZN9EmbSysLib2Hw14I2Cmaster_Emul12readByteNackEv), (148 bytes).
    Removing lib.o(.ARM.exidx.text._ZN9EmbSysLib2Hw14I2Cmaster_Emul12readByteNackEv), (8 bytes).
    Removing lib.o(.text._ZN9EmbSysLib2Hw14I2Cmaster_Emul11readByteAckEv), (138 bytes).
    Removing lib.o(.ARM.exidx.text._ZN9EmbSysLib2Hw14I2Cmaster_Emul11readByteAckEv), (8 bytes).
    Removing lib.o(.text._ZN9EmbSysLib2Hw8I2CslaveC2ERNS1_11DataHandlerEh), (6 bytes).
    Removing lib.o(.ARM.exidx.text._ZN9EmbSysLib2Hw8I2CslaveC2ERNS1_11DataHandlerEh), (8 bytes).
    Removing lib.o(.text._ZN9EmbSysLib2Hw9NetEthARPC2ERNS0_8EthernetERNS0_7NetAddrILh4EEE), (22 bytes).
    Removing lib.o(.ARM.exidx.text._ZN9EmbSysLib2Hw9NetEthARPC2ERNS0_8EthernetERNS0_7NetAddrILh4EEE), (8 bytes).
    Removing lib.o(.text._ZN9EmbSysLib2Hw9NetEthARP7requestERNS0_7NetAddrILh4EEE), (114 bytes).
    Removing lib.o(.ARM.exidx.text._ZN9EmbSysLib2Hw9NetEthARP7requestERNS0_7NetAddrILh4EEE), (8 bytes).
    Removing lib.o(.text._ZN9EmbSysLib2Hw9NetEthARP6setTCPEPNS0_9NetEthTCPE), (4 bytes).
    Removing lib.o(.ARM.exidx.text._ZN9EmbSysLib2Hw9NetEthARP6setTCPEPNS0_9NetEthTCPE), (8 bytes).
    Removing lib.o(.text._ZN9EmbSysLib2Hw9NetEthARP6setUDPEPNS0_9NetEthUDPE), (4 bytes).
    Removing lib.o(.ARM.exidx.text._ZN9EmbSysLib2Hw9NetEthARP6setUDPEPNS0_9NetEthUDPE), (8 bytes).
    Removing lib.o(.text._ZN9EmbSysLib2Hw10NetEthDHCPC2ERNS0_9NetEthUDPEPKc), (168 bytes).
    Removing lib.o(.ARM.exidx.text._ZN9EmbSysLib2Hw10NetEthDHCPC2ERNS0_9NetEthUDPEPKc), (8 bytes).
    Removing lib.o(.text._ZN9EmbSysLib2Hw10NetEthDHCP9onReceiveERNS0_9NetSocketE), (168 bytes).
    Removing lib.o(.ARM.exidx.text._ZN9EmbSysLib2Hw10NetEthDHCP9onReceiveERNS0_9NetSocketE), (8 bytes).
    Removing lib.o(.text._ZN9EmbSysLib2Hw9NetEthUDP6Socket14getDataPointerEv), (18 bytes).
    Removing lib.o(.ARM.exidx.text._ZN9EmbSysLib2Hw9NetEthUDP6Socket14getDataPointerEv), (8 bytes).
    Removing lib.o(.text._ZN9EmbSysLib2Hw10NetEthDHCP13parse_optionsEPhi), (48 bytes).
    Removing lib.o(.ARM.exidx.text._ZN9EmbSysLib2Hw10NetEthDHCP13parse_optionsEPhi), (8 bytes).
    Removing lib.o(.text._ZN9EmbSysLib2Hw9NetEthUDP6Socket4openENS0_7NetAddrILh4EEEt), (456 bytes).
    Removing lib.o(.ARM.exidx.text._ZN9EmbSysLib2Hw9NetEthUDP6Socket4openENS0_7NetAddrILh4EEEt), (8 bytes).
    Removing lib.o(.text._ZN9EmbSysLib2Hw10NetEthDHCP4sendEh), (298 bytes).
    Removing lib.o(.ARM.exidx.text._ZN9EmbSysLib2Hw10NetEthDHCP4sendEh), (8 bytes).
    Removing lib.o(.text._ZN9EmbSysLib2Hw10NetEthDHCP9onTriggerEv), (66 bytes).
    Removing lib.o(.ARM.exidx.text._ZN9EmbSysLib2Hw10NetEthDHCP9onTriggerEv), (8 bytes).
    Removing lib.o(.text._ZThn4_N9EmbSysLib2Hw10NetEthDHCP9onTriggerEv), (68 bytes).
    Removing lib.o(.ARM.exidx.text._ZThn4_N9EmbSysLib2Hw10NetEthDHCP9onTriggerEv), (8 bytes).
    Removing lib.o(.text._ZN9EmbSysLib2Hw9NetEthUDP6Socket5clearEv), (28 bytes).
    Removing lib.o(.ARM.exidx.text._ZN9EmbSysLib2Hw9NetEthUDP6Socket5clearEv), (8 bytes).
    Removing lib.o(.text._ZN9EmbSysLib2Hw9NetEthUDP6Socket5flushEv), (48 bytes).
    Removing lib.o(.ARM.exidx.text._ZN9EmbSysLib2Hw9NetEthUDP6Socket5flushEv), (8 bytes).
    Removing lib.o(.text._ZN9EmbSysLib2Hw10NetEthICMPC2ERNS0_8NetEthIPE), (6 bytes).
    Removing lib.o(.ARM.exidx.text._ZN9EmbSysLib2Hw10NetEthICMPC2ERNS0_8NetEthIPE), (8 bytes).
    Removing lib.o(.text._ZN9EmbSysLib2Hw10NetEthICMP7processEv), (340 bytes).
    Removing lib.o(.ARM.exidx.text._ZN9EmbSysLib2Hw10NetEthICMP7processEv), (8 bytes).
    Removing lib.o(.text._ZN9EmbSysLib2Hw8NetEthIP6createENS0_7NetAddrILh6EEENS2_ILh4EEEtt), (196 bytes).
    Removing lib.o(.ARM.exidx.text._ZN9EmbSysLib2Hw8NetEthIP6createENS0_7NetAddrILh6EEENS2_ILh4EEEtt), (8 bytes).
    Removing lib.o(.text._ZN9EmbSysLib2Hw8NetEthIP8checksumEPhtj), (212 bytes).
    Removing lib.o(.ARM.exidx.text._ZN9EmbSysLib2Hw8NetEthIP8checksumEPhtj), (8 bytes).
    Removing lib.o(.text._ZN9EmbSysLib2Hw8NetEthIPC2ERNS0_8EthernetERKNS0_7NetAddrILh4EEE), (88 bytes).
    Removing lib.o(.ARM.exidx.text._ZN9EmbSysLib2Hw8NetEthIPC2ERNS0_8EthernetERKNS0_7NetAddrILh4EEE), (8 bytes).
    Removing lib.o(.text._ZN9EmbSysLib2Hw8NetEthIP9onProcessEv), (122 bytes).
    Removing lib.o(.ARM.exidx.text._ZN9EmbSysLib2Hw8NetEthIP9onProcessEv), (8 bytes).
    Removing lib.o(.text._ZN9EmbSysLib2Hw15NetEthTransport7processEv), (26 bytes).
    Removing lib.o(.ARM.exidx.text._ZN9EmbSysLib2Hw15NetEthTransport7processEv), (8 bytes).
    Removing lib.o(.text._ZN9EmbSysLib2Hw8NetEthIP9onTriggerEv), (56 bytes).
    Removing lib.o(.ARM.exidx.text._ZN9EmbSysLib2Hw8NetEthIP9onTriggerEv), (8 bytes).
    Removing lib.o(.text._ZN9EmbSysLib2Hw15NetEthTransport7triggerEv), (28 bytes).
    Removing lib.o(.ARM.exidx.text._ZN9EmbSysLib2Hw15NetEthTransport7triggerEv), (8 bytes).
    Removing lib.o(.text._ZN9EmbSysLib2Hw8NetEthIP16getAvailablePortEv), (110 bytes).
    Removing lib.o(.ARM.exidx.text._ZN9EmbSysLib2Hw8NetEthIP16getAvailablePortEv), (8 bytes).
    Removing lib.o(.text._ZN9EmbSysLib2Hw15NetEthTransport15isPortAvailableEt), (40 bytes).
    Removing lib.o(.ARM.exidx.text._ZN9EmbSysLib2Hw15NetEthTransport15isPortAvailableEt), (8 bytes).
    Removing lib.o(.text._ZN9EmbSysLib2Hw9NetEthTCPC2ERNS0_8EthernetERNS0_8NetEthIPE), (26 bytes).
    Removing lib.o(.ARM.exidx.text._ZN9EmbSysLib2Hw9NetEthTCPC2ERNS0_8EthernetERNS0_8NetEthIPE), (8 bytes).
    Removing lib.o(.text._ZN9EmbSysLib2Hw9NetEthTCP6createERNS1_6SocketEt), (412 bytes).
    Removing lib.o(.ARM.exidx.text._ZN9EmbSysLib2Hw9NetEthTCP6createERNS1_6SocketEt), (8 bytes).
    Removing lib.o(.text._ZN9EmbSysLib2Hw9NetEthTCP6SocketC2ERS1_PNS0_9NetSocket7HandlerE), (96 bytes).
    Removing lib.o(.ARM.exidx.text._ZN9EmbSysLib2Hw9NetEthTCP6SocketC2ERS1_PNS0_9NetSocket7HandlerE), (8 bytes).
    Removing lib.o(.text._ZN9EmbSysLib2Hw9NetEthTCP6Socket9nextStateEh), (108 bytes).
    Removing lib.o(.ARM.exidx.text._ZN9EmbSysLib2Hw9NetEthTCP6Socket9nextStateEh), (8 bytes).
    Removing lib.o(.text._ZN9EmbSysLib2Hw9NetEthTCP6Socket4openENS0_7NetAddrILh4EEEt), (228 bytes).
    Removing lib.o(.ARM.exidx.text._ZN9EmbSysLib2Hw9NetEthTCP6Socket4openENS0_7NetAddrILh4EEEt), (8 bytes).
    Removing lib.o(.text._ZN9EmbSysLib2Hw9NetEthTCP6Socket5closeEv), (12 bytes).
    Removing lib.o(.ARM.exidx.text._ZN9EmbSysLib2Hw9NetEthTCP6Socket5closeEv), (8 bytes).
    Removing lib.o(.text._ZN9EmbSysLib2Hw9NetEthTCP6Socket5clearEv), (14 bytes).
    Removing lib.o(.ARM.exidx.text._ZN9EmbSysLib2Hw9NetEthTCP6Socket5clearEv), (8 bytes).
    Removing lib.o(.text._ZN9EmbSysLib2Hw9NetEthTCP6Socket10fillBufferEc), (66 bytes).
    Removing lib.o(.ARM.exidx.text._ZN9EmbSysLib2Hw9NetEthTCP6Socket10fillBufferEc), (8 bytes).
    Removing lib.o(.text._ZN9EmbSysLib2Hw9NetEthTCP6Socket5flushEv), (76 bytes).
    Removing lib.o(.ARM.exidx.text._ZN9EmbSysLib2Hw9NetEthTCP6Socket5flushEv), (8 bytes).
    Removing lib.o(.text._ZN9EmbSysLib2Hw9NetEthTCP6Socket9sendFlagsEh), (46 bytes).
    Removing lib.o(.ARM.exidx.text._ZN9EmbSysLib2Hw9NetEthTCP6Socket9sendFlagsEh), (8 bytes).
    Removing lib.o(.text._ZN9EmbSysLib2Hw9NetEthTCP6Socket3getERh), (38 bytes).
    Removing lib.o(.ARM.exidx.text._ZN9EmbSysLib2Hw9NetEthTCP6Socket3getERh), (8 bytes).
    Removing lib.o(.text._ZN9EmbSysLib2Hw9NetEthTCP6Socket14getDataPointerEv), (18 bytes).
    Removing lib.o(.ARM.exidx.text._ZN9EmbSysLib2Hw9NetEthTCP6Socket14getDataPointerEv), (8 bytes).
    Removing lib.o(.text._ZN9EmbSysLib2Hw9NetEthTCP6Socket9onProcessEv), (156 bytes).
    Removing lib.o(.ARM.exidx.text._ZN9EmbSysLib2Hw9NetEthTCP6Socket9onProcessEv), (8 bytes).
    Removing lib.o(.text._ZN9EmbSysLib2Hw9NetEthTCP6Socket6updateEv), (2172 bytes).
    Removing lib.o(.ARM.exidx.text._ZN9EmbSysLib2Hw9NetEthTCP6Socket6updateEv), (8 bytes).
    Removing lib.o(.text._ZN9EmbSysLib2Hw9NetEthTCP6Socket9onTriggerEv), (22 bytes).
    Removing lib.o(.ARM.exidx.text._ZN9EmbSysLib2Hw9NetEthTCP6Socket9onTriggerEv), (8 bytes).
    Removing lib.o(.text._ZN9EmbSysLib2Hw9NetEthTCP9handleARPENS0_7NetAddrILh4EEENS2_ILh6EEE), (42 bytes).
    Removing lib.o(.ARM.exidx.text._ZN9EmbSysLib2Hw9NetEthTCP9handleARPENS0_7NetAddrILh4EEENS2_ILh6EEE), (8 bytes).
    Removing lib.o(.text._ZN9EmbSysLib2Hw9NetEthUDPC2ERNS0_8EthernetERNS0_8NetEthIPE), (26 bytes).
    Removing lib.o(.ARM.exidx.text._ZN9EmbSysLib2Hw9NetEthUDPC2ERNS0_8EthernetERNS0_8NetEthIPE), (8 bytes).
    Removing lib.o(.text._ZN9EmbSysLib2Hw9NetEthUDP6createERNS1_6SocketEt), (302 bytes).
    Removing lib.o(.ARM.exidx.text._ZN9EmbSysLib2Hw9NetEthUDP6createERNS1_6SocketEt), (8 bytes).
    Removing lib.o(.text._ZN9EmbSysLib2Hw9NetEthUDP6SocketC2ERS1_PNS0_9NetSocket7HandlerEt), (92 bytes).
    Removing lib.o(.ARM.exidx.text._ZN9EmbSysLib2Hw9NetEthUDP6SocketC2ERS1_PNS0_9NetSocket7HandlerEt), (8 bytes).
    Removing lib.o(.text._ZN9EmbSysLib2Hw9NetEthUDP6Socket5closeEv), (12 bytes).
    Removing lib.o(.ARM.exidx.text._ZN9EmbSysLib2Hw9NetEthUDP6Socket5closeEv), (8 bytes).
    Removing lib.o(.text._ZN9EmbSysLib2Hw9NetEthUDP6Socket10fillBufferEc), (80 bytes).
    Removing lib.o(.ARM.exidx.text._ZN9EmbSysLib2Hw9NetEthUDP6Socket10fillBufferEc), (8 bytes).
    Removing lib.o(.text._ZN9EmbSysLib2Hw9NetEthUDP6Socket3getERh), (44 bytes).
    Removing lib.o(.ARM.exidx.text._ZN9EmbSysLib2Hw9NetEthUDP6Socket3getERh), (8 bytes).
    Removing lib.o(.text._ZN9EmbSysLib2Hw9NetEthUDP6Socket9onProcessEv), (166 bytes).
    Removing lib.o(.ARM.exidx.text._ZN9EmbSysLib2Hw9NetEthUDP6Socket9onProcessEv), (8 bytes).
    Removing lib.o(.text._ZN9EmbSysLib2Hw9NetEthUDP6Socket9onTriggerEv), (76 bytes).
    Removing lib.o(.ARM.exidx.text._ZN9EmbSysLib2Hw9NetEthUDP6Socket9onTriggerEv), (8 bytes).
    Removing lib.o(.text._ZN9EmbSysLib2Hw9NetEthUDP9handleARPENS0_7NetAddrILh4EEENS2_ILh6EEE), (56 bytes).
    Removing lib.o(.ARM.exidx.text._ZN9EmbSysLib2Hw9NetEthUDP9handleARPENS0_7NetAddrILh4EEENS2_ILh6EEE), (8 bytes).
    Removing lib.o(.ARM.exidx.text._ZN9EmbSysLib2Hw4Port3PinC2ERS1_h), (8 bytes).
    Removing lib.o(.text._ZN9EmbSysLib2Hw4Port3PinC2ERS1_hNS1_4ModeE), (46 bytes).
    Removing lib.o(.ARM.exidx.text._ZN9EmbSysLib2Hw4Port3PinC2ERS1_hNS1_4ModeE), (8 bytes).
    Removing lib.o(.text._ZN9EmbSysLib2Hw6ExtInt3addEPNS1_4TaskE), (24 bytes).
    Removing lib.o(.ARM.exidx.text._ZN9EmbSysLib2Hw6ExtInt3addEPNS1_4TaskE), (8 bytes).
    Removing lib.o(.text._ZN9EmbSysLib2Hw9SPImasterC2Ev), (14 bytes).
    Removing lib.o(.ARM.exidx.text._ZN9EmbSysLib2Hw9SPImasterC2Ev), (8 bytes).
    Removing lib.o(.text._ZN9EmbSysLib2Hw9SPImaster6Device10transceiveEh), (44 bytes).
    Removing lib.o(.ARM.exidx.text._ZN9EmbSysLib2Hw9SPImaster6Device10transceiveEh), (8 bytes).
    Removing lib.o(.text._ZN9EmbSysLib2Hw9SPImaster6Device10transceiveEPht), (56 bytes).
    Removing lib.o(.ARM.exidx.text._ZN9EmbSysLib2Hw9SPImaster6Device10transceiveEPht), (8 bytes).
    Removing lib.o(.text._ZN9EmbSysLib2Hw8SPIslaveC2ERNS1_11DataHandlerE), (4 bytes).
    Removing lib.o(.ARM.exidx.text._ZN9EmbSysLib2Hw8SPIslaveC2ERNS1_11DataHandlerE), (8 bytes).
    Removing lib.o(.ARM.exidx.text._ZN9EmbSysLib2Hw5Timer12getCycleTimeEv), (8 bytes).
    Removing lib.o(.ARM.exidx.text._ZN9EmbSysLib2Hw5Timer3addEPNS1_4TaskE), (8 bytes).
    Removing lib.o(.ARM.exidx.text._ZN9EmbSysLib2Hw5TouchC2EtttNS1_11OrientationE), (8 bytes).
    Removing lib.o(.ARM.exidx.text._ZN9EmbSysLib2Hw4Uart5isrRxEv), (8 bytes).
    Removing lib.o(.ARM.exidx.text._ZN9EmbSysLib2Hw4Uart12transmitByteEh), (8 bytes).
    Removing lib.o(.ARM.exidx.text._ZN9EmbSysLib2Hw4Uart3setEh), (8 bytes).
    Removing lib.o(.ARM.exidx.text._ZN9EmbSysLib2Hw4Uart3setEPKht), (8 bytes).
    Removing lib.o(.ARM.exidx.text._ZN9EmbSysLib2Hw4Uart3setEPKc), (8 bytes).
    Removing lib.o(.ARM.exidx.text._ZN9EmbSysLib2Hw4Uart3getERh), (8 bytes).
    Removing lib.o(.ARM.exidx.text._ZN9EmbSysLib2Hw4Uart3getEv), (8 bytes).
    Removing lib.o(.text._ZN9EmbSysLib2Hw9USBdevice12eventHandlerEhh), (342 bytes).
    Removing lib.o(.ARM.exidx.text._ZN9EmbSysLib2Hw9USBdevice12eventHandlerEhh), (8 bytes).
    Removing lib.o(.text._ZN9EmbSysLib2Hw16USBdeviceControl5setupEv), (86 bytes).
    Removing lib.o(.ARM.exidx.text._ZN9EmbSysLib2Hw16USBdeviceControl5setupEv), (8 bytes).
    Removing lib.o(.text._ZN9EmbSysLib2Hw16USBdeviceControl3outEv), (110 bytes).
    Removing lib.o(.ARM.exidx.text._ZN9EmbSysLib2Hw16USBdeviceControl3outEv), (8 bytes).
    Removing lib.o(.text._ZN9EmbSysLib2Hw16USBdeviceControl2inEv), (132 bytes).
    Removing lib.o(.ARM.exidx.text._ZN9EmbSysLib2Hw16USBdeviceControl2inEv), (8 bytes).
    Removing lib.o(.text._ZN9EmbSysLib2Hw17USBdeviceEndpoint2inEv), (232 bytes).
    Removing lib.o(.ARM.exidx.text._ZN9EmbSysLib2Hw17USBdeviceEndpoint2inEv), (8 bytes).
    Removing lib.o(.text._ZN9EmbSysLib2Hw17USBdeviceEndpoint3outEv), (98 bytes).
    Removing lib.o(.ARM.exidx.text._ZN9EmbSysLib2Hw17USBdeviceEndpoint3outEv), (8 bytes).
    Removing lib.o(.text._ZN9EmbSysLib2Hw9USBdevice7suspendEv), (170 bytes).
    Removing lib.o(.ARM.exidx.text._ZN9EmbSysLib2Hw9USBdevice7suspendEv), (8 bytes).
    Removing lib.o(.text._ZN9EmbSysLib2Hw16USBdeviceControlC2ERNS0_9USBdeviceE), (98 bytes).
    Removing lib.o(.ARM.exidx.text._ZN9EmbSysLib2Hw16USBdeviceControlC2ERNS0_9USBdeviceE), (8 bytes).
    Removing lib.o(.text._ZN9EmbSysLib2Hw16USBdeviceControl9ReqDeviceEv), (296 bytes).
    Removing lib.o(.ARM.exidx.text._ZN9EmbSysLib2Hw16USBdeviceControl9ReqDeviceEv), (8 bytes).
    Removing lib.o(.text._ZN9EmbSysLib2Hw16USBdeviceControl12ReqInterfaceEv), (52 bytes).
    Removing lib.o(.ARM.exidx.text._ZN9EmbSysLib2Hw16USBdeviceControl12ReqInterfaceEv), (8 bytes).
    Removing lib.o(.text._ZN9EmbSysLib2Hw16USBdeviceControl11ReqEndpointEv), (158 bytes).
    Removing lib.o(.ARM.exidx.text._ZN9EmbSysLib2Hw16USBdeviceControl11ReqEndpointEv), (8 bytes).
    Removing lib.o(.text._ZN9EmbSysLib2Hw17USBdeviceEndpoint9writeDataEv), (56 bytes).
    Removing lib.o(.ARM.exidx.text._ZN9EmbSysLib2Hw17USBdeviceEndpoint9writeDataEv), (8 bytes).
    Removing lib.o(.text._ZN9EmbSysLib2Hw17USBdeviceEndpoint6inCtrlEv), (76 bytes).
    Removing lib.o(.ARM.exidx.text._ZN9EmbSysLib2Hw17USBdeviceEndpoint6inCtrlEv), (8 bytes).
    Removing lib.o(.text._ZN9EmbSysLib2Hw17USBdeviceEndpoint7outCtrlEv), (94 bytes).
    Removing lib.o(.ARM.exidx.text._ZN9EmbSysLib2Hw17USBdeviceEndpoint7outCtrlEv), (8 bytes).
    Removing lib.o(.text._ZN9EmbSysLib2Hw16USBdeviceControl22ReqDeviceStd_GetStatusEv), (74 bytes).
    Removing lib.o(.ARM.exidx.text._ZN9EmbSysLib2Hw16USBdeviceControl22ReqDeviceStd_GetStatusEv), (8 bytes).
    Removing lib.o(.text._ZN9EmbSysLib2Hw16USBdeviceControl23ReqDeviceStd_SetAddressEv), (14 bytes).
    Removing lib.o(.ARM.exidx.text._ZN9EmbSysLib2Hw16USBdeviceControl23ReqDeviceStd_SetAddressEv), (8 bytes).
    Removing lib.o(.text._ZN9EmbSysLib2Hw16USBdeviceControl26ReqDeviceStd_GetDescriptorEv), (250 bytes).
    Removing lib.o(.ARM.exidx.text._ZN9EmbSysLib2Hw16USBdeviceControl26ReqDeviceStd_GetDescriptorEv), (8 bytes).
    Removing lib.o(.text._ZN9EmbSysLib2Hw16USBdeviceControl29ReqDeviceStd_GetConfigurationEv), (74 bytes).
    Removing lib.o(.ARM.exidx.text._ZN9EmbSysLib2Hw16USBdeviceControl29ReqDeviceStd_GetConfigurationEv), (8 bytes).
    Removing lib.o(.text._ZN9EmbSysLib2Hw16USBdeviceControl29ReqDeviceStd_SetConfigurationEv), (342 bytes).
    Removing lib.o(.ARM.exidx.text._ZN9EmbSysLib2Hw16USBdeviceControl29ReqDeviceStd_SetConfigurationEv), (8 bytes).
    Removing lib.o(.text._ZN9EmbSysLib2Hw16USBdeviceControl15ReqDeviceVendorEv), (114 bytes).
    Removing lib.o(.ARM.exidx.text._ZN9EmbSysLib2Hw16USBdeviceControl15ReqDeviceVendorEv), (8 bytes).
    Removing lib.o(.text._ZN9EmbSysLib2Hw16USBdeviceControl25ReqInterfaceStd_GetStatusEv), (6 bytes).
    Removing lib.o(.ARM.exidx.text._ZN9EmbSysLib2Hw16USBdeviceControl25ReqInterfaceStd_GetStatusEv), (8 bytes).
    Removing lib.o(.text._ZN9EmbSysLib2Hw16USBdeviceControl29ReqInterfaceStd_GetDescriptorEv), (144 bytes).
    Removing lib.o(.ARM.exidx.text._ZN9EmbSysLib2Hw16USBdeviceControl29ReqInterfaceStd_GetDescriptorEv), (8 bytes).
    Removing lib.o(.text._ZN9EmbSysLib2Hw16USBdeviceControl28ReqInterfaceStd_GetInterfaceEv), (6 bytes).
    Removing lib.o(.ARM.exidx.text._ZN9EmbSysLib2Hw16USBdeviceControl28ReqInterfaceStd_GetInterfaceEv), (8 bytes).
    Removing lib.o(.text._ZN9EmbSysLib2Hw16USBdeviceControl28ReqInterfaceStd_SetInterfaceEv), (6 bytes).
    Removing lib.o(.ARM.exidx.text._ZN9EmbSysLib2Hw16USBdeviceControl28ReqInterfaceStd_SetInterfaceEv), (8 bytes).
    Removing lib.o(.text._ZN9EmbSysLib2Hw16USBdeviceControl17ReqInterfaceClassEv), (248 bytes).
    Removing lib.o(.ARM.exidx.text._ZN9EmbSysLib2Hw16USBdeviceControl17ReqInterfaceClassEv), (8 bytes).
    Removing lib.o(.text._ZN9EmbSysLib2Hw16USBdeviceControl25ReqEndpointStd_ClrFeatureEv), (80 bytes).
    Removing lib.o(.ARM.exidx.text._ZN9EmbSysLib2Hw16USBdeviceControl25ReqEndpointStd_ClrFeatureEv), (8 bytes).
    Removing lib.o(.text._ZN9EmbSysLib2Hw16USBdeviceControl25ReqEndpointStd_SetFeatureEv), (84 bytes).
    Removing lib.o(.ARM.exidx.text._ZN9EmbSysLib2Hw16USBdeviceControl25ReqEndpointStd_SetFeatureEv), (8 bytes).
    Removing lib.o(.text._ZN9EmbSysLib2Hw17USBdeviceEndpoint9writeDataERKNS_3Std11DataPointerE), (82 bytes).
    Removing lib.o(.ARM.exidx.text._ZN9EmbSysLib2Hw17USBdeviceEndpoint9writeDataERKNS_3Std11DataPointerE), (8 bytes).
    Removing lib.o(.text._ZN9EmbSysLib2Hw17USBdeviceEndpoint12writeDataLenERKNS_3Std11DataPointerEt), (82 bytes).
    Removing lib.o(.ARM.exidx.text._ZN9EmbSysLib2Hw17USBdeviceEndpoint12writeDataLenERKNS_3Std11DataPointerEt), (8 bytes).
    Removing lib.o(.text._ZN9EmbSysLib2Hw17USBdeviceEndpoint16setConfigurationEv), (90 bytes).
    Removing lib.o(.ARM.exidx.text._ZN9EmbSysLib2Hw17USBdeviceEndpoint16setConfigurationEv), (8 bytes).
    Removing lib.o(.text._ZN9EmbSysLib2Hw17USBdeviceEndpoint16writeAcknowledgeEv), (30 bytes).
    Removing lib.o(.ARM.exidx.text._ZN9EmbSysLib2Hw17USBdeviceEndpoint16writeAcknowledgeEv), (8 bytes).
    Removing lib.o(.text._ZN9EmbSysLib2Hw17USBdeviceEndpoint8clrStallEv), (12 bytes).
    Removing lib.o(.ARM.exidx.text._ZN9EmbSysLib2Hw17USBdeviceEndpoint8clrStallEv), (8 bytes).
    Removing lib.o(.text._ZN9EmbSysLib2Hw17USBdeviceEndpoint5stallEv), (12 bytes).
    Removing lib.o(.ARM.exidx.text._ZN9EmbSysLib2Hw17USBdeviceEndpoint5stallEv), (8 bytes).
    Removing lib.o(.text._ZN9EmbSysLib2Hw16USBdeviceControl5stallEv), (12 bytes).
    Removing lib.o(.ARM.exidx.text._ZN9EmbSysLib2Hw16USBdeviceControl5stallEv), (8 bytes).
    Removing lib.o(.text._ZN9EmbSysLib2Hw19USBdeviceDescriptor19getDescriptorDeviceEv), (32 bytes).
    Removing lib.o(.ARM.exidx.text._ZN9EmbSysLib2Hw19USBdeviceDescriptor19getDescriptorDeviceEv), (8 bytes).
    Removing lib.o(.text._ZN9EmbSysLib2Hw19USBdeviceDescriptor19getDescriptorConfigEh), (28 bytes).
    Removing lib.o(.ARM.exidx.text._ZN9EmbSysLib2Hw19USBdeviceDescriptor19getDescriptorConfigEh), (8 bytes).
    Removing lib.o(.text._ZN9EmbSysLib2Hw19USBdeviceDescriptor22getDescriptorInterfaceEhh), (30 bytes).
    Removing lib.o(.ARM.exidx.text._ZN9EmbSysLib2Hw19USBdeviceDescriptor22getDescriptorInterfaceEhh), (8 bytes).
    Removing lib.o(.text._ZN9EmbSysLib2Hw19USBdeviceDescriptor21getDescriptorEndpointEhhh), (30 bytes).
    Removing lib.o(.ARM.exidx.text._ZN9EmbSysLib2Hw19USBdeviceDescriptor21getDescriptorEndpointEhhh), (8 bytes).
    Removing lib.o(.text._ZN9EmbSysLib2Hw19USBdeviceDescriptor16getDescriptorHIDEhhh), (30 bytes).
    Removing lib.o(.ARM.exidx.text._ZN9EmbSysLib2Hw19USBdeviceDescriptor16getDescriptorHIDEhhh), (8 bytes).
    Removing lib.o(.text._ZN9EmbSysLib2Hw19USBdeviceDescriptor22getDescriptorHIDreportEhhh), (30 bytes).
    Removing lib.o(.ARM.exidx.text._ZN9EmbSysLib2Hw19USBdeviceDescriptor22getDescriptorHIDreportEhhh), (8 bytes).
    Removing lib.o(.text._ZN9EmbSysLib2Hw19USBdeviceDescriptor19getDescriptorStringEh), (30 bytes).
    Removing lib.o(.ARM.exidx.text._ZN9EmbSysLib2Hw19USBdeviceDescriptor19getDescriptorStringEh), (8 bytes).
    Removing lib.o(.text._ZN9EmbSysLib2Hw19USBdeviceDescriptor25getDescriptorDeviceVendorEv), (32 bytes).
    Removing lib.o(.ARM.exidx.text._ZN9EmbSysLib2Hw19USBdeviceDescriptor25getDescriptorDeviceVendorEv), (8 bytes).
    Removing lib.o(.text._ZN9EmbSysLib2Hw19USBdeviceDescriptor17getMaxPacketSize0Ev), (40 bytes).
    Removing lib.o(.ARM.exidx.text._ZN9EmbSysLib2Hw19USBdeviceDescriptor17getMaxPacketSize0Ev), (8 bytes).
    Removing lib.o(.text._ZN9EmbSysLib2Hw19USBdeviceDescriptor21getConfigDeviceStatusEh), (56 bytes).
    Removing lib.o(.ARM.exidx.text._ZN9EmbSysLib2Hw19USBdeviceDescriptor21getConfigDeviceStatusEh), (8 bytes).
    Removing lib.o(.text._ZN9EmbSysLib2Hw17USBdeviceEndpointC2ERNS0_9USBdeviceEPNS0_18USBdeviceInterfaceEhth), (32 bytes).
    Removing lib.o(.ARM.exidx.text._ZN9EmbSysLib2Hw17USBdeviceEndpointC2ERNS0_9USBdeviceEPNS0_18USBdeviceInterfaceEhth), (8 bytes).
    Removing lib.o(.text._ZN9EmbSysLib2Hw17USBdeviceEndpointC2ERNS0_9USBdeviceEht), (26 bytes).
    Removing lib.o(.ARM.exidx.text._ZN9EmbSysLib2Hw17USBdeviceEndpointC2ERNS0_9USBdeviceEht), (8 bytes).
    Removing lib.o(.text._ZN9EmbSysLib2Hw17USBdeviceEndpoint6setNAKEv), (12 bytes).
    Removing lib.o(.ARM.exidx.text._ZN9EmbSysLib2Hw17USBdeviceEndpoint6setNAKEv), (8 bytes).
    Removing lib.o(.text._ZN9EmbSysLib2Hw17USBdeviceEndpoint8readDataEv), (48 bytes).
    Removing lib.o(.ARM.exidx.text._ZN9EmbSysLib2Hw17USBdeviceEndpoint8readDataEv), (8 bytes).
    Removing lib.o(.text._ZN9EmbSysLib2Hw17USBdeviceEndpoint15readAcknowledgeEv), (32 bytes).
    Removing lib.o(.ARM.exidx.text._ZN9EmbSysLib2Hw17USBdeviceEndpoint15readAcknowledgeEv), (8 bytes).
    Removing lib.o(.text._ZN9EmbSysLib2Hw17USBdeviceEndpoint6clrNAKEv), (12 bytes).
    Removing lib.o(.ARM.exidx.text._ZN9EmbSysLib2Hw17USBdeviceEndpoint6clrNAKEv), (8 bytes).
    Removing lib.o(.text._ZN9EmbSysLib2Hw18USBdeviceInterfaceC2ERNS0_9USBdeviceEhh), (154 bytes).
    Removing lib.o(.ARM.exidx.text._ZN9EmbSysLib2Hw18USBdeviceInterfaceC2ERNS0_9USBdeviceEhh), (8 bytes).
    Removing lib.o(.text._ZN9EmbSysLib2Hw18USBdeviceInterface17startTransmissionEh), (50 bytes).
    Removing lib.o(.ARM.exidx.text._ZN9EmbSysLib2Hw18USBdeviceInterface17startTransmissionEh), (8 bytes).
    Removing lib.o(.text._ZN9EmbSysLib3Dev6AnalogC2Ehff), (12 bytes).
    Removing lib.o(.ARM.exidx.text._ZN9EmbSysLib3Dev6AnalogC2Ehff), (8 bytes).
    Removing lib.o(.text._ZN9EmbSysLib3Dev8AnalogInC2Ehff), (40 bytes).
    Removing lib.o(.ARM.exidx.text._ZN9EmbSysLib3Dev8AnalogInC2Ehff), (8 bytes).
    Removing lib.o(.text._ZN9EmbSysLib3Dev8AnalogIn9calibrateEffff), (38 bytes).
    Removing lib.o(.ARM.exidx.text._ZN9EmbSysLib3Dev8AnalogIn9calibrateEffff), (8 bytes).
    Removing lib.o(.text._ZN9EmbSysLib3Dev11AnalogInAdcC2ERNS_2Hw3AdcEhffh), (64 bytes).
    Removing lib.o(.ARM.exidx.text._ZN9EmbSysLib3Dev11AnalogInAdcC2ERNS_2Hw3AdcEhffh), (8 bytes).
    Removing lib.o(.text._ZN9EmbSysLib3Dev11AnalogInAdc6getRawEv), (12 bytes).
    Removing lib.o(.ARM.exidx.text._ZN9EmbSysLib3Dev11AnalogInAdc6getRawEv), (8 bytes).
    Removing lib.o(.text._ZN9EmbSysLib3Dev11AnalogInAdc6enableEv), (18 bytes).
    Removing lib.o(.ARM.exidx.text._ZN9EmbSysLib3Dev11AnalogInAdc6enableEv), (8 bytes).
    Removing lib.o(.text._ZN9EmbSysLib3Dev9AnalogOutC2Ehff), (64 bytes).
    Removing lib.o(.ARM.exidx.text._ZN9EmbSysLib3Dev9AnalogOutC2Ehff), (8 bytes).
    Removing lib.o(.text._ZN9EmbSysLib3Dev9AnalogOut3setEf), (56 bytes).
    Removing lib.o(.ARM.exidx.text._ZN9EmbSysLib3Dev9AnalogOut3setEf), (8 bytes).
    Removing lib.o(.text._ZN9EmbSysLib3Dev12AnalogOutDacC2ERNS_2Hw3DacEhff), (80 bytes).
    Removing lib.o(.ARM.exidx.text._ZN9EmbSysLib3Dev12AnalogOutDacC2ERNS_2Hw3DacEhff), (8 bytes).
    Removing lib.o(.text._ZN9EmbSysLib3Dev12AnalogOutDac6setRawEt), (26 bytes).
    Removing lib.o(.ARM.exidx.text._ZN9EmbSysLib3Dev12AnalogOutDac6setRawEt), (8 bytes).
    Removing lib.o(.text._ZN9EmbSysLib3Dev12AnalogOutPWMC2ERNS_2Hw5TimerENS3_4ModeEhff), (80 bytes).
    Removing lib.o(.ARM.exidx.text._ZN9EmbSysLib3Dev12AnalogOutPWMC2ERNS_2Hw5TimerENS3_4ModeEhff), (8 bytes).
    Removing lib.o(.text._ZN9EmbSysLib3Dev12AnalogOutPWM6setRawEt), (18 bytes).
    Removing lib.o(.ARM.exidx.text._ZN9EmbSysLib3Dev12AnalogOutPWM6setRawEt), (8 bytes).
    Removing lib.o(.ARM.exidx.text._ZN9EmbSysLib3Dev7DigitalC2ERNS_2Hw4PortEhNS1_4ModeEb), (8 bytes).
    Removing lib.o(.ARM.exidx.text._ZN9EmbSysLib3Dev7Digital7setModeENS1_4ModeE), (8 bytes).
    Removing lib.o(.ARM.exidx.text._ZN9EmbSysLib3Dev7Digital3setEb), (8 bytes).
    Removing lib.o(.ARM.exidx.text._ZN9EmbSysLib3Dev7Digital3getEv), (8 bytes).
    Removing lib.o(.ARM.exidx.text._ZN9EmbSysLib3Dev10ScreenCharC2ERNS_2Hw11DisplayCharE), (8 bytes).
    Removing lib.o(.ARM.exidx.text._ZN9EmbSysLib3Dev10ScreenChar5clearEv), (8 bytes).
    Removing lib.o(.ARM.exidx.text._ZN9EmbSysLib3Dev10ScreenChar7refreshEv), (8 bytes).
    Removing lib.o(.ARM.exidx.text._ZN9EmbSysLib3Dev10ScreenChar6printfEhhPKcz), (8 bytes).
    Removing lib.o(.ARM.exidx.text._ZN9EmbSysLib3Dev13ScreenGraphicC2ERNS_2Hw14DisplayGraphicE), (8 bytes).
    Removing lib.o(.ARM.exidx.text._ZN9EmbSysLib3Dev13ScreenGraphic5clearEv), (8 bytes).
    Removing lib.o(.ARM.exidx.text._ZN9EmbSysLib3Dev13ScreenGraphic7refreshEv), (8 bytes).
    Removing lib.o(.ARM.exidx.text._ZN9EmbSysLib3Dev13ScreenGraphic6printfEhhPKcz), (8 bytes).
    Removing lib.o(.ARM.exidx.text._ZN9EmbSysLib3Dev13ScreenGraphic7setFontENS_2Hw4FontEh), (8 bytes).
    Removing lib.o(.ARM.exidx.text._ZN9EmbSysLib3Dev13ScreenGraphic7setZoomEh), (8 bytes).
    Removing lib.o(.ARM.exidx.text._ZN9EmbSysLib3Dev13ScreenGraphic12setBackColorEt), (8 bytes).
    Removing lib.o(.ARM.exidx.text._ZN9EmbSysLib3Dev13ScreenGraphic12setTextColorEt), (8 bytes).
    Removing lib.o(.ARM.exidx.text._ZN9EmbSysLib3Dev13ScreenGraphic8drawTextEttPKcz), (8 bytes).
    Removing lib.o(.ARM.exidx.text._ZN9EmbSysLib3Dev13ScreenGraphic9drawPixelEttt), (8 bytes).
    Removing lib.o(.ARM.exidx.text._ZN9EmbSysLib3Dev13ScreenGraphic13drawRectangleEttttt), (8 bytes).
    Removing lib.o(.ARM.exidx.text._ZN9EmbSysLib3Dev13ScreenGraphic13drawRectangleEtttttt), (8 bytes).
    Removing lib.o(.ARM.exidx.text._ZN9EmbSysLib3Dev13ScreenGraphic10drawCircleEttttt), (8 bytes).
    Removing lib.o(.ARM.exidx.text._ZN9EmbSysLib3Dev13ScreenGraphic10drawCircleEtttt), (8 bytes).
    Removing lib.o(.ARM.exidx.text._ZN9EmbSysLib3Dev13ScreenGraphic8drawLineEtttttt), (8 bytes).
    Removing lib.o(.ARM.exidx.text._ZN9EmbSysLib3Dev13ScreenGraphic10drawBitmapEttRNS_2Hw6BitmapE), (8 bytes).
    Removing lib.o(.ARM.exidx.text._ZN9EmbSysLib3Dev7PointerC2ERNS_2Hw5TouchE), (8 bytes).
    Removing lib.o(.ARM.exidx.text._ZN9EmbSysLib3Dev7Pointer3getEv), (8 bytes).
    Removing lib.o(.text._ZN9EmbSysLib3Dev11TaskManager5ClockC2ERS1_jt), (92 bytes).
    Removing lib.o(.ARM.exidx.text._ZN9EmbSysLib3Dev11TaskManager5ClockC2ERS1_jt), (8 bytes).
    Removing lib.o(.text._ZN9EmbSysLib3Dev11TaskManager5Clock7getTicsEv), (8 bytes).
    Removing lib.o(.ARM.exidx.text._ZN9EmbSysLib3Dev11TaskManager5Clock7getTicsEv), (8 bytes).
    Removing lib.o(.text._ZN9EmbSysLib3Dev11TaskManager5Clock12getTimeOfTicEv), (8 bytes).
    Removing lib.o(.ARM.exidx.text._ZN9EmbSysLib3Dev11TaskManager5Clock12getTimeOfTicEv), (8 bytes).
    Removing lib.o(.ARM.exidx.text._ZN9EmbSysLib3Dev8TerminalC2ERNS_2Hw4UartEttPKcS6_), (8 bytes).
    Removing lib.o(.text._ZN9EmbSysLib3Dev8Terminal9getStringEv), (144 bytes).
    Removing lib.o(.ARM.exidx.text._ZN9EmbSysLib3Dev8Terminal9getStringEv), (8 bytes).
    Removing lib.o(.text._ZN9EmbSysLib3Dev8Terminal3getEv), (386 bytes).
    Removing lib.o(.ARM.exidx.text._ZN9EmbSysLib3Dev8Terminal3getEv), (8 bytes).
    Removing lib.o(.ARM.exidx.text._ZN9EmbSysLib3Dev8Terminal6printfEPKcz), (8 bytes).
    Removing lib.o(.ARM.exidx.text._ZN9EmbSysLib4Ctrl13DigitalButtonC2ERNS_3Dev7DigitalERNS2_11TaskManagerEtt), (8 bytes).
    Removing lib.o(.ARM.exidx.text._ZN9EmbSysLib4Ctrl13DigitalButton6updateEv), (8 bytes).
    Removing lib.o(.text._ZN9EmbSysLib4Ctrl13DigitalButton9getActionEv), (18 bytes).
    Removing lib.o(.ARM.exidx.text._ZN9EmbSysLib4Ctrl13DigitalButton9getActionEv), (8 bytes).
    Removing lib.o(.text._ZN9EmbSysLib4Ctrl14DigitalEncoderC2EPNS_3Dev7DigitalERNS2_11TaskManagerE), (54 bytes).
    Removing lib.o(.ARM.exidx.text._ZN9EmbSysLib4Ctrl14DigitalEncoderC2EPNS_3Dev7DigitalERNS2_11TaskManagerE), (8 bytes).
    Removing lib.o(.text._ZN9EmbSysLib4Ctrl14DigitalEncoder8getEventEv), (134 bytes).
    Removing lib.o(.ARM.exidx.text._ZN9EmbSysLib4Ctrl14DigitalEncoder8getEventEv), (8 bytes).
    Removing lib.o(.ARM.exidx.text._ZN9EmbSysLib4Ctrl14DigitalEncoder6updateEv), (8 bytes).
    Removing lib.o(.ARM.exidx.text._ZN9EmbSysLib4Ctrl14DigitalEncoder7getCtrlEv), (8 bytes).
    Removing lib.o(.ARM.exidx.text._ZN9EmbSysLib4Ctrl22DigitalEncoderJoystickC2EPNS_3Dev7DigitalES4_S4_RNS2_11TaskManagerEt), (8 bytes).
    Removing lib.o(.ARM.exidx.text._ZN9EmbSysLib4Ctrl22DigitalEncoderJoystick12getIncrementEv), (8 bytes).
    Removing lib.o(.text._ZN9EmbSysLib4Ctrl24DigitalEncoderRotaryknobC2EPNS_3Dev7DigitalES4_S4_RNS2_11TaskManagerE), (78 bytes).
    Removing lib.o(.ARM.exidx.text._ZN9EmbSysLib4Ctrl24DigitalEncoderRotaryknobC2EPNS_3Dev7DigitalES4_S4_RNS2_11TaskManagerE), (8 bytes).
    Removing lib.o(.text._ZN9EmbSysLib4Ctrl24DigitalEncoderRotaryknob12getIncrementEv), (106 bytes).
    Removing lib.o(.ARM.exidx.text._ZN9EmbSysLib4Ctrl24DigitalEncoderRotaryknob12getIncrementEv), (8 bytes).
    Removing lib.o(.ARM.exidx.text._ZN9EmbSysLib4Ctrl16DigitalIndicatorC2ERNS_3Dev7DigitalERNS2_11TaskManagerE), (8 bytes).
    Removing lib.o(.ARM.exidx.text._ZN9EmbSysLib4Ctrl16DigitalIndicator6updateEv), (8 bytes).
    Removing lib.o(.ARM.exidx.text._ZN9EmbSysLib4Ctrl16DigitalIndicator3clrEv), (8 bytes).
    Removing lib.o(.ARM.exidx.text._ZN9EmbSysLib4Ctrl16DigitalIndicator7triggerEt), (8 bytes).
    Removing lib.o(.text._ZN9EmbSysLib4Ctrl16DigitalIndicator5blinkEtt), (50 bytes).
    Removing lib.o(.ARM.exidx.text._ZN9EmbSysLib4Ctrl16DigitalIndicator5blinkEtt), (8 bytes).
    Removing lib.o(.text._ZN9EmbSysLib3Mod8USB_Uart13CtrlInterfaceC2ERNS_2Hw9USBdeviceEhRNS_3Std4FlagINS1_20connectionState_enumEEE), (28 bytes).
    Removing lib.o(.ARM.exidx.text._ZN9EmbSysLib3Mod8USB_Uart13CtrlInterfaceC2ERNS_2Hw9USBdeviceEhRNS_3Std4FlagINS1_20connectionState_enumEEE), (8 bytes).
    Removing lib.o(.text._ZN9EmbSysLib3Mod8USB_Uart13CtrlInterface7onStartEv), (8 bytes).
    Removing lib.o(.ARM.exidx.text._ZN9EmbSysLib3Mod8USB_Uart13CtrlInterface7onStartEv), (8 bytes).
    Removing lib.o(.text._ZN9EmbSysLib3Mod8USB_Uart13CtrlInterface6onStopEv), (8 bytes).
    Removing lib.o(.ARM.exidx.text._ZN9EmbSysLib3Mod8USB_Uart13CtrlInterface6onStopEv), (8 bytes).
    Removing lib.o(.text._ZN9EmbSysLib3Mod8USB_Uart13CtrlInterface16onRequestCtrl_INERNS_3Std11DataPointerEhtt), (10 bytes).
    Removing lib.o(.ARM.exidx.text._ZN9EmbSysLib3Mod8USB_Uart13CtrlInterface16onRequestCtrl_INERNS_3Std11DataPointerEhtt), (8 bytes).
    Removing lib.o(.text._ZN9EmbSysLib3Mod8USB_Uart13CtrlInterface10onTransmitEhRNS_3Std11DataPointerE), (16 bytes).
    Removing lib.o(.ARM.exidx.text._ZN9EmbSysLib3Mod8USB_Uart13CtrlInterface10onTransmitEhRNS_3Std11DataPointerE), (8 bytes).
    Removing lib.o(.text._ZN9EmbSysLib3Mod8USB_Uart13CtrlInterface17onRequestCtrl_OUTERNS_3Std11DataPointerEhtt), (28 bytes).
    Removing lib.o(.ARM.exidx.text._ZN9EmbSysLib3Mod8USB_Uart13CtrlInterface17onRequestCtrl_OUTERNS_3Std11DataPointerEhtt), (8 bytes).
    Removing lib.o(.text._ZN9EmbSysLib3Mod8USB_UartC2ERNS_2Hw9USBdeviceEhhh), (140 bytes).
    Removing lib.o(.ARM.exidx.text._ZN9EmbSysLib3Mod8USB_UartC2ERNS_2Hw9USBdeviceEhhh), (8 bytes).
    Removing lib.o(.text._ZN9EmbSysLib3Mod8USB_Uart16onConfigEndpointEhRNS_3Std11DataPointerEt), (28 bytes).
    Removing lib.o(.ARM.exidx.text._ZN9EmbSysLib3Mod8USB_Uart16onConfigEndpointEhRNS_3Std11DataPointerEt), (8 bytes).
    Removing lib.o(.text._ZN9EmbSysLib3Mod8USB_Uart10onTransmitEhRNS_3Std11DataPointerE), (154 bytes).
    Removing lib.o(.ARM.exidx.text._ZN9EmbSysLib3Mod8USB_Uart10onTransmitEhRNS_3Std11DataPointerE), (8 bytes).
    Removing lib.o(.text._ZN9EmbSysLib3Mod8USB_Uart9onReceiveEhtRNS_3Std11DataPointerE), (130 bytes).
    Removing lib.o(.ARM.exidx.text._ZN9EmbSysLib3Mod8USB_Uart9onReceiveEhtRNS_3Std11DataPointerE), (8 bytes).
    Removing lib.o(.text._ZN9EmbSysLib3Mod17USBinterfClassHIDC2ERNS_2Hw9USBdeviceEhhNS_3Std11DataPointerES6_), (46 bytes).
    Removing lib.o(.ARM.exidx.text._ZN9EmbSysLib3Mod17USBinterfClassHIDC2ERNS_2Hw9USBdeviceEhhNS_3Std11DataPointerES6_), (8 bytes).
    Removing lib.o(.text._ZN9EmbSysLib3Mod17USBinterfClassHID15onGetDescriptorEt), (74 bytes).
    Removing lib.o(.ARM.exidx.text._ZN9EmbSysLib3Mod17USBinterfClassHID15onGetDescriptorEt), (8 bytes).
    Removing lib.o(.text._ZN9EmbSysLib3Mod17USBinterfClassHID16onConfigEndpointEhRNS_3Std11DataPointerEt), (8 bytes).
    Removing lib.o(.ARM.exidx.text._ZN9EmbSysLib3Mod17USBinterfClassHID16onConfigEndpointEhRNS_3Std11DataPointerEt), (8 bytes).
    Removing lib.o(.text._ZN9EmbSysLib3Mod17USBinterfClassHID10onTransmitEhRNS_3Std11DataPointerE), (54 bytes).
    Removing lib.o(.ARM.exidx.text._ZN9EmbSysLib3Mod17USBinterfClassHID10onTransmitEhRNS_3Std11DataPointerE), (8 bytes).
    Removing lib.o(.text._ZN9EmbSysLib3Mod17USBinterfClassHID13onReceiveCtrlEt), (6 bytes).
    Removing lib.o(.ARM.exidx.text._ZN9EmbSysLib3Mod17USBinterfClassHID13onReceiveCtrlEt), (8 bytes).
    Removing lib.o(.text._ZN9EmbSysLib3Mod17USBinterfClassHID16onRequestCtrl_INERNS_3Std11DataPointerEhtt), (10 bytes).
    Removing lib.o(.ARM.exidx.text._ZN9EmbSysLib3Mod17USBinterfClassHID16onRequestCtrl_INERNS_3Std11DataPointerEhtt), (8 bytes).
    Removing lib.o(.text._ZN9EmbSysLib3Mod17USBinterfClassHID17onRequestCtrl_OUTERNS_3Std11DataPointerEhtt), (46 bytes).
    Removing lib.o(.ARM.exidx.text._ZN9EmbSysLib3Mod17USBinterfClassHID17onRequestCtrl_OUTERNS_3Std11DataPointerEhtt), (8 bytes).
    Removing lib.o(.rodata._ZTVN9EmbSysLib2Hw7Adc_McuE), (36 bytes).
    Removing lib.o(.bss._ZN9EmbSysLib2Hw12Ethernet_Mcu9dmaBufferE), (15400 bytes).
    Removing lib.o(.rodata._ZTVN9EmbSysLib2Hw12Ethernet_McuE), (40 bytes).
    Removing lib.o(.rodata._ZTVN9EmbSysLib2Hw12Memory_BKRAME), (48 bytes).
    Removing lib.o(.rodata._ZTVN9EmbSysLib2Hw7Rtc_McuE), (16 bytes).
    Removing lib.o(.bss._ZN9EmbSysLib2Hw8Rtos_Mcu10sysTicTimeE), (4 bytes).
    Removing lib.o(.rodata._ZTVN9EmbSysLib2Hw13USBdevice_McuE), (60 bytes).
    Removing lib.o(.rodata._ZTVN9EmbSysLib2Hw3AdcE), (36 bytes).
    Removing lib.o(.rodata._ZTVN9EmbSysLib2Hw11DisplayCharE), (36 bytes).
    Removing lib.o(.rodata._ZTVN9EmbSysLib2Hw8EthernetE), (40 bytes).
    Removing lib.o(.bss._ZZN9EmbSysLib2Hw8Ethernet5getIPEvE3ret), (4 bytes).
    Removing lib.o(.rodata._ZTVN9EmbSysLib2Hw9I2CmasterE), (40 bytes).
    Removing lib.o(.rodata._ZTVN9EmbSysLib2Hw14I2Cmaster_EmulE), (48 bytes).
    Removing lib.o(.rodata._ZTVN9EmbSysLib2Hw10NetEthDHCPE), (36 bytes).
    Removing lib.o(.rodata._ZN9EmbSysLib2HwL8zeroAddrE), (4 bytes).
    Removing lib.o(.rodata._ZTVN9EmbSysLib2Hw8NetEthIPE), (16 bytes).
    Removing lib.o(.rodata._ZTVN9EmbSysLib2Hw9NetEthTCPE), (20 bytes).
    Removing lib.o(.rodata._ZTVN9EmbSysLib2Hw9NetEthTCP6SocketE), (72 bytes).
    Removing lib.o(.rodata._ZN9EmbSysLib2HwL11zeroAddrPhyE), (6 bytes).
    Removing lib.o(.rodata._ZTVN9EmbSysLib2Hw9NetEthUDPE), (20 bytes).
    Removing lib.o(.rodata._ZTVN9EmbSysLib2Hw9NetEthUDP6SocketE), (68 bytes).
    Removing lib.o(.rodata._ZTVN9EmbSysLib2Hw5TimerE), (28 bytes).
    Removing lib.o(.rodata._ZTVN9EmbSysLib2Hw9USBdeviceE), (60 bytes).
    Removing lib.o(.rodata._ZTVN9EmbSysLib2Hw16USBdeviceControlE), (24 bytes).
    Removing lib.o(.rodata._ZTVN9EmbSysLib2Hw18USBdeviceInterfaceE), (52 bytes).
    Removing lib.o(.rodata._ZTVN9EmbSysLib3Dev11AnalogInAdcE), (24 bytes).
    Removing lib.o(.rodata._ZTVN9EmbSysLib3Dev9AnalogOutE), (20 bytes).
    Removing lib.o(.rodata._ZTVN9EmbSysLib3Dev12AnalogOutDacE), (20 bytes).
    Removing lib.o(.rodata._ZTVN9EmbSysLib3Dev12AnalogOutPWME), (20 bytes).
    Removing lib.o(.rodata._ZTVN9EmbSysLib3Dev11TaskManager5ClockE), (16 bytes).
    Removing lib.o(.rodata._ZTVN9EmbSysLib4Ctrl24DigitalEncoderRotaryknobE), (20 bytes).
    Removing lib.o(.bss._ZN9EmbSysLib3Mod4Rtos3ptrE), (4 bytes).
    Removing lib.o(.rodata._ZTVN9EmbSysLib3Mod8USB_Uart13CtrlInterfaceE), (52 bytes).
    Removing lib.o(.rodata._ZTVN9EmbSysLib3Mod8USB_UartE), (120 bytes).
    Removing lib.o(.rodata._ZTVN9EmbSysLib3Mod17USBinterfClassHIDE), (60 bytes).
    Removing lib.o(.rodata._ZTVN9EmbSysLib2Hw6ExtIntE), (28 bytes).
    Removing lib.o(.rodata._ZTVN9EmbSysLib2Hw19USBdeviceDescriptorE), (68 bytes).
    Removing new.cpp.o(.text), (0 bytes).
    Removing new.cpp.o(.text._ZSt17__throw_bad_allocv), (4 bytes).
    Removing new.cpp.o(.ARM.exidx.text._ZSt17__throw_bad_allocv), (8 bytes).
    Removing new.cpp.o(.ARM.exidx.text._Znwj), (8 bytes).
    Removing new.cpp.o(.text._ZnwjRKSt9nothrow_t), (4 bytes).
    Removing new.cpp.o(.ARM.exidx.text._ZnwjRKSt9nothrow_t), (8 bytes).
    Removing new.cpp.o(.ARM.exidx.text._Znaj), (8 bytes).
    Removing new.cpp.o(.text._ZnajRKSt9nothrow_t), (4 bytes).
    Removing new.cpp.o(.ARM.exidx.text._ZnajRKSt9nothrow_t), (8 bytes).
    Removing new.cpp.o(.text._ZdlPv), (4 bytes).
    Removing new.cpp.o(.ARM.exidx.text._ZdlPv), (8 bytes).
    Removing new.cpp.o(.text._ZdlPvRKSt9nothrow_t), (4 bytes).
    Removing new.cpp.o(.ARM.exidx.text._ZdlPvRKSt9nothrow_t), (8 bytes).
    Removing new.cpp.o(.text._ZdlPvj), (4 bytes).
    Removing new.cpp.o(.ARM.exidx.text._ZdlPvj), (8 bytes).
    Removing new.cpp.o(.text._ZdaPv), (4 bytes).
    Removing new.cpp.o(.ARM.exidx.text._ZdaPv), (8 bytes).
    Removing new.cpp.o(.text._ZdaPvRKSt9nothrow_t), (4 bytes).
    Removing new.cpp.o(.ARM.exidx.text._ZdaPvRKSt9nothrow_t), (8 bytes).
    Removing new.cpp.o(.text._ZdaPvj), (4 bytes).
    Removing new.cpp.o(.ARM.exidx.text._ZdaPvj), (8 bytes).
    Removing new.cpp.o(.text._ZnwjSt11align_val_t), (74 bytes).
    Removing new.cpp.o(.ARM.exidx.text._ZnwjSt11align_val_t), (8 bytes).
    Removing new.cpp.o(.text._ZnwjSt11align_val_tRKSt9nothrow_t), (4 bytes).
    Removing new.cpp.o(.ARM.exidx.text._ZnwjSt11align_val_tRKSt9nothrow_t), (8 bytes).
    Removing new.cpp.o(.text._ZnajSt11align_val_t), (4 bytes).
    Removing new.cpp.o(.ARM.exidx.text._ZnajSt11align_val_t), (8 bytes).
    Removing new.cpp.o(.text._ZnajSt11align_val_tRKSt9nothrow_t), (4 bytes).
    Removing new.cpp.o(.ARM.exidx.text._ZnajSt11align_val_tRKSt9nothrow_t), (8 bytes).
    Removing new.cpp.o(.text._ZdlPvSt11align_val_t), (4 bytes).
    Removing new.cpp.o(.ARM.exidx.text._ZdlPvSt11align_val_t), (8 bytes).
    Removing new.cpp.o(.text._ZdlPvSt11align_val_tRKSt9nothrow_t), (4 bytes).
    Removing new.cpp.o(.ARM.exidx.text._ZdlPvSt11align_val_tRKSt9nothrow_t), (8 bytes).
    Removing new.cpp.o(.text._ZdlPvjSt11align_val_t), (6 bytes).
    Removing new.cpp.o(.ARM.exidx.text._ZdlPvjSt11align_val_t), (8 bytes).
    Removing new.cpp.o(.text._ZdaPvSt11align_val_t), (4 bytes).
    Removing new.cpp.o(.ARM.exidx.text._ZdaPvSt11align_val_t), (8 bytes).
    Removing new.cpp.o(.text._ZdaPvSt11align_val_tRKSt9nothrow_t), (4 bytes).
    Removing new.cpp.o(.ARM.exidx.text._ZdaPvSt11align_val_tRKSt9nothrow_t), (8 bytes).
    Removing new.cpp.o(.text._ZdaPvjSt11align_val_t), (6 bytes).
    Removing new.cpp.o(.ARM.exidx.text._ZdaPvjSt11align_val_t), (8 bytes).
    Removing new.cpp.o(.rodata._ZSt7nothrow), (1 bytes).
    Removing cxa_virtual.cpp.o(.text), (0 bytes).
    Removing cxa_virtual.cpp.o(.ARM.exidx.text.__cxa_pure_virtual), (8 bytes).
    Removing cxa_virtual.cpp.o(.text.__cxa_deleted_virtual), (44 bytes).
    Removing cxa_virtual.cpp.o(.ARM.exidx.text.__cxa_deleted_virtual), (8 bytes).
    Removing abort_message.cpp.o(.text), (0 bytes).
    Removing abort_message.cpp.o(.ARM.exidx.text.abort_message), (8 bytes).
    Removing cxa_handlers.cpp.o(.text), (0 bytes).
    Removing cxa_handlers.cpp.o(.text._ZSt14get_unexpectedv), (12 bytes).
    Removing cxa_handlers.cpp.o(.ARM.exidx.text._ZSt14get_unexpectedv), (8 bytes).
    Removing cxa_handlers.cpp.o(.text._ZSt12__unexpectedPFvvE), (52 bytes).
    Removing cxa_handlers.cpp.o(.ARM.exidx.text._ZSt12__unexpectedPFvvE), (8 bytes).
    Removing cxa_handlers.cpp.o(.text._ZSt10unexpectedv), (14 bytes).
    Removing cxa_handlers.cpp.o(.ARM.exidx.text._ZSt10unexpectedv), (8 bytes).
    Removing cxa_handlers.cpp.o(.text._ZSt13get_terminatev), (12 bytes).
    Removing cxa_handlers.cpp.o(.ARM.exidx.text._ZSt13get_terminatev), (8 bytes).
    Removing cxa_handlers.cpp.o(.text._ZSt11__terminatePFvvE), (48 bytes).
    Removing cxa_handlers.cpp.o(.ARM.exidx.text._ZSt11__terminatePFvvE), (8 bytes).
    Removing cxa_handlers.cpp.o(.text._ZSt9terminatev), (14 bytes).
    Removing cxa_handlers.cpp.o(.ARM.exidx.text._ZSt9terminatev), (8 bytes).
    Removing cxa_handlers.cpp.o(.ARM.exidx.text._ZSt15get_new_handlerv), (8 bytes).
    Removing cxa_default_handlers.cpp.o(.text), (0 bytes).
    Removing cxa_default_handlers.cpp.o(.text._ZSt14set_unexpectedPFvvE), (30 bytes).
    Removing cxa_default_handlers.cpp.o(.ARM.exidx.text._ZSt14set_unexpectedPFvvE), (8 bytes).
    Removing cxa_default_handlers.cpp.o(.text._ZSt13set_terminatePFvvE), (30 bytes).
    Removing cxa_default_handlers.cpp.o(.ARM.exidx.text._ZSt13set_terminatePFvvE), (8 bytes).
    Removing cxa_default_handlers.cpp.o(.text._ZSt15set_new_handlerPFvvE), (18 bytes).
    Removing cxa_default_handlers.cpp.o(.ARM.exidx.text._ZSt15set_new_handlerPFvvE), (8 bytes).
    Removing cxa_default_handlers.cpp.o(.data.__cxa_terminate_handler), (4 bytes).
    Removing cxa_default_handlers.cpp.o(.data.__cxa_unexpected_handler), (4 bytes).
    Removing main.o(.ARM.exidx.text._ZN9EmbSysLib2Hw7Dsi_Mcu4InitEttb), (8 bytes).
    Removing main.o(.ARM.exidx.text._ZN9EmbSysLib2Hw9I2Cmaster6Device7isErrorEv), (8 bytes).
    Removing main.o(.ARM.exidx.text._ZN9EmbSysLib2Hw11MemoryImageC2ERNS0_6MemoryEPKc), (8 bytes).
    Removing main.o(.ARM.exidx.text._ZN9EmbSysLib2Hw11MemoryImage6getPtrEv), (8 bytes).
    Removing main.o(.ARM.exidx.text._ZN9EmbSysLib2Hw7Fmc_McuC2ENS1_7FMCtypeEb), (8 bytes).
    Removing main.o(.ARM.exidx.text._ZN9EmbSysLib2Hw14DisplayGraphic8getWidthEv), (8 bytes).
    Removing main.o(.ARM.exidx.text._ZN9EmbSysLib2Hw14DisplayGraphic9getHeightEv), (8 bytes).
    Removing main.o(.ARM.exidx.text._ZN15myReportHandler8onReportEttb), (8 bytes).
    Removing main.o(.ARM.exidx.text._ZN9EmbSysLib2Hw14DisplayGraphic7refreshEv), (8 bytes).
    Removing main.o(.ARM.exidx.text._ZN9EmbSysLib3Dev11TaskManager6updateEv), (8 bytes).
    Removing main.o(.ARM.exidx.text._ZN9EmbSysLib3Dev11TaskManager3addEPNS1_4TaskE), (8 bytes).
    Removing main.o(.ARM.exidx.text._ZN9EmbSysLib3Dev11TaskManager12getCycleTimeEv), (8 bytes).
    Removing main.o(.ARM.exidx.text._ZN9EmbSysLib3Dev11TaskManager7getTicsEv), (8 bytes).
    Removing main.o(.ARM.exidx.text._ZN9EmbSysLib2Hw11MemoryImage6unlockEv), (8 bytes).
    Removing main.o(.ARM.exidx.text._ZN9EmbSysLib2Hw11MemoryImage4lockEv), (8 bytes).
    Removing main.o(.ARM.exidx.text._ZN9EmbSysLib2Hw11MemoryImage9writeByteEjh), (8 bytes).
    Removing main.o(.ARM.exidx.text._ZN9EmbSysLib2Hw11MemoryImage8readByteEj), (8 bytes).
    Removing main.o(.ARM.exidx.text._ZN9EmbSysLib2Hw7Fmc_Mcu10SDRAM_InitEv), (8 bytes).
    Removing main.o(.ARM.exidx.text._ZN9EmbSysLib2Hw7Dsi_Mcu10writeShortEhh), (8 bytes).
    Removing main.o(.ARM.exidx.text._ZN9EmbSysLib2Hw7Dsi_Mcu9writeLongEPhj), (8 bytes).
    Removing lib.o(.ARM.exidx.text._ZN9EmbSysLib2Hw13USBdevice_Mcu3isrEv), (8 bytes).
    Removing lib.o(.text._ZN9EmbSysLib2Hw9NetSocket5writeEPKct), (34 bytes).
    Removing lib.o(.ARM.exidx.text._ZN9EmbSysLib2Hw9NetSocket5writeEPKct), (8 bytes).
    Removing lib.o(.text._ZN9EmbSysLib2Hw9NetSocket5writeEc), (6 bytes).
    Removing lib.o(.ARM.exidx.text._ZN9EmbSysLib2Hw9NetSocket5writeEc), (8 bytes).
    Removing lib.o(.ARM.exidx.text._ZN9EmbSysLib2Hw4Port3Pin3setEb), (8 bytes).
    Removing lib.o(.ARM.exidx.text._ZN9EmbSysLib2Hw4Port3Pin7setModeENS1_4ModeE), (8 bytes).
    Removing lib.o(.ARM.exidx.text._ZN9EmbSysLib2Hw4Port3Pin3getEv), (8 bytes).
    Removing lib.o(.text._ZN9EmbSysLib2Hw3Adc6updateEv), (34 bytes).
    Removing lib.o(.ARM.exidx.text._ZN9EmbSysLib2Hw3Adc6updateEv), (8 bytes).
    Removing lib.o(.text._ZN9EmbSysLib2Hw3Adc3getEh), (8 bytes).
    Removing lib.o(.ARM.exidx.text._ZN9EmbSysLib2Hw3Adc3getEh), (8 bytes).
    Removing lib.o(.text._ZN9EmbSysLib2Hw3Adc3isrEv), (70 bytes).
    Removing lib.o(.ARM.exidx.text._ZN9EmbSysLib2Hw3Adc3isrEv), (8 bytes).
    Removing lib.o(.text._ZN9EmbSysLib2Hw7Adc_Mcu9getResultEv), (8 bytes).
    Removing lib.o(.ARM.exidx.text._ZN9EmbSysLib2Hw7Adc_Mcu9getResultEv), (8 bytes).
    Removing lib.o(.text._ZN9EmbSysLib2Hw7Adc_Mcu7startChEh), (18 bytes).
    Removing lib.o(.ARM.exidx.text._ZN9EmbSysLib2Hw7Adc_Mcu7startChEh), (8 bytes).
    Removing lib.o(.text._ZN9EmbSysLib2Hw3Net6updateEv), (44 bytes).
    Removing lib.o(.ARM.exidx.text._ZN9EmbSysLib2Hw3Net6updateEv), (8 bytes).
    Removing lib.o(.text._ZN9EmbSysLib2Hw3Net7addTaskERNS1_4TaskE), (24 bytes).
    Removing lib.o(.ARM.exidx.text._ZN9EmbSysLib2Hw3Net7addTaskERNS1_4TaskE), (8 bytes).
    Removing lib.o(.text._ZN9EmbSysLib2Hw12Memory_BKRAM6getPtrEv), (4 bytes).
    Removing lib.o(.ARM.exidx.text._ZN9EmbSysLib2Hw12Memory_BKRAM6getPtrEv), (8 bytes).
    Removing lib.o(.ARM.exidx.text._ZN9EmbSysLib2Hw6Memory5writeEjh), (8 bytes).
    Removing lib.o(.ARM.exidx.text._ZN9EmbSysLib2Hw6Memory4readEj), (8 bytes).
    Removing lib.o(.ARM.exidx.text._ZN9EmbSysLib2Hw6Memory5eraseEv), (8 bytes).
    Removing lib.o(.ARM.exidx.text._ZNK9EmbSysLib2Hw6Memory7getSizeEv), (8 bytes).
    Removing lib.o(.ARM.exidx.text._ZNK9EmbSysLib2Hw6Memory7isFlashEv), (8 bytes).
    Removing lib.o(.text._ZN9EmbSysLib2Hw12Memory_BKRAM9writeByteEjh), (42 bytes).
    Removing lib.o(.ARM.exidx.text._ZN9EmbSysLib2Hw12Memory_BKRAM9writeByteEjh), (8 bytes).
    Removing lib.o(.text._ZN9EmbSysLib2Hw12Memory_BKRAM8readByteEj), (20 bytes).
    Removing lib.o(.ARM.exidx.text._ZN9EmbSysLib2Hw12Memory_BKRAM8readByteEj), (8 bytes).
    Removing lib.o(.ARM.exidx.text._ZN9EmbSysLib2Hw12Memory_Flash6getPtrEv), (8 bytes).
    Removing lib.o(.ARM.exidx.text._ZN9EmbSysLib2Hw8Port_Mcu3setEj), (8 bytes).
    Removing lib.o(.ARM.exidx.text._ZN9EmbSysLib2Hw8Port_Mcu3setEjj), (8 bytes).
    Removing lib.o(.ARM.exidx.text._ZN9EmbSysLib2Hw8Port_Mcu3clrEj), (8 bytes).
    Removing lib.o(.ARM.exidx.text._ZN9EmbSysLib2Hw8Port_Mcu3getEv), (8 bytes).
    Removing lib.o(.ARM.exidx.text._ZN9EmbSysLib2Hw5Timer10isrHandlerEv), (8 bytes).
    Removing lib.o(.ARM.exidx.text._ZN9EmbSysLib2Hw4Uart14isTxBufferFullEv), (8 bytes).
    Removing lib.o(.ARM.exidx.text._ZN9EmbSysLib2Hw4Uart20getFifoRemainingSizeEv), (8 bytes).
    Removing lib.o(.ARM.exidx.text._ZN9EmbSysLib2Hw4Uart5isrTxEv), (8 bytes).
    Removing lib.o(.ARM.exidx.text._ZN9EmbSysLib2Hw8Uart_Mcu7setByteEh), (8 bytes).
    Removing lib.o(.ARM.exidx.text._ZN9EmbSysLib2Hw8Uart_Mcu7getByteEv), (8 bytes).
    Removing lib.o(.ARM.exidx.text._ZN9EmbSysLib2Hw11DisplayChar16getNumberOfLinesEv), (8 bytes).
    Removing lib.o(.ARM.exidx.text._ZN9EmbSysLib2Hw11DisplayChar18getNumberOfColumnsEv), (8 bytes).
    Removing lib.o(.text._ZN9EmbSysLib2Hw10NetEthDHCP9onProcessEv), (4 bytes).
    Removing lib.o(.ARM.exidx.text._ZN9EmbSysLib2Hw10NetEthDHCP9onProcessEv), (8 bytes).
    Removing lib.o(.text._ZThn4_N9EmbSysLib2Hw10NetEthDHCP9onProcessEv), (4 bytes).
    Removing lib.o(.ARM.exidx.text._ZThn4_N9EmbSysLib2Hw10NetEthDHCP9onProcessEv), (8 bytes).
    Removing lib.o(.text._ZN9EmbSysLib2Hw15NetEthTransport7getAddrEv), (6 bytes).
    Removing lib.o(.ARM.exidx.text._ZN9EmbSysLib2Hw15NetEthTransport7getAddrEv), (8 bytes).
    Removing lib.o(.text._ZN9EmbSysLib2Hw15NetEthTransport10getAddrPhyEv), (18 bytes).
    Removing lib.o(.ARM.exidx.text._ZN9EmbSysLib2Hw15NetEthTransport10getAddrPhyEv), (8 bytes).
    Removing lib.o(.text._ZN9EmbSysLib2Hw9NetSocket13getRemoteAddrEv), (4 bytes).
    Removing lib.o(.ARM.exidx.text._ZN9EmbSysLib2Hw9NetSocket13getRemoteAddrEv), (8 bytes).
    Removing lib.o(.text._ZN9EmbSysLib2Hw9NetSocket13getRemotePortEv), (4 bytes).
    Removing lib.o(.ARM.exidx.text._ZN9EmbSysLib2Hw9NetSocket13getRemotePortEv), (8 bytes).
    Removing lib.o(.text._ZN9EmbSysLib2Hw9NetSocket5writeEPKc), (28 bytes).
    Removing lib.o(.ARM.exidx.text._ZN9EmbSysLib2Hw9NetSocket5writeEPKc), (8 bytes).
    Removing lib.o(.text._ZN9EmbSysLib2Hw15NetEthTransport6Socket10setTimeoutEtt), (30 bytes).
    Removing lib.o(.ARM.exidx.text._ZN9EmbSysLib2Hw15NetEthTransport6Socket10setTimeoutEtt), (8 bytes).
    Removing lib.o(.text._ZN9EmbSysLib2Hw6ExtInt10isrHandlerEv), (28 bytes).
    Removing lib.o(.ARM.exidx.text._ZN9EmbSysLib2Hw6ExtInt10isrHandlerEv), (8 bytes).
    Removing lib.o(.text._ZN9EmbSysLib2Hw18USBdeviceInterface7onStartEv), (2 bytes).
    Removing lib.o(.ARM.exidx.text._ZN9EmbSysLib2Hw18USBdeviceInterface7onStartEv), (8 bytes).
    Removing lib.o(.text._ZN9EmbSysLib2Hw18USBdeviceInterface6onStopEv), (2 bytes).
    Removing lib.o(.ARM.exidx.text._ZN9EmbSysLib2Hw18USBdeviceInterface6onStopEv), (8 bytes).
    Removing lib.o(.text._ZN9EmbSysLib2Hw18USBdeviceInterface16onConfigEndpointEhRNS_3Std11DataPointerEt), (8 bytes).
    Removing lib.o(.ARM.exidx.text._ZN9EmbSysLib2Hw18USBdeviceInterface16onConfigEndpointEhRNS_3Std11DataPointerEt), (8 bytes).
    Removing lib.o(.text._ZN9EmbSysLib2Hw18USBdeviceInterface10onTransmitEhRNS_3Std11DataPointerE), (4 bytes).
    Removing lib.o(.ARM.exidx.text._ZN9EmbSysLib2Hw18USBdeviceInterface10onTransmitEhRNS_3Std11DataPointerE), (8 bytes).
    Removing lib.o(.text._ZN9EmbSysLib2Hw18USBdeviceInterface9onReceiveEhtRNS_3Std11DataPointerE), (4 bytes).
    Removing lib.o(.ARM.exidx.text._ZN9EmbSysLib2Hw18USBdeviceInterface9onReceiveEhtRNS_3Std11DataPointerE), (8 bytes).
    Removing lib.o(.text._ZN9EmbSysLib2Hw18USBdeviceInterface16onRequestCtrl_INERNS_3Std11DataPointerEhtt), (4 bytes).
    Removing lib.o(.ARM.exidx.text._ZN9EmbSysLib2Hw18USBdeviceInterface16onRequestCtrl_INERNS_3Std11DataPointerEhtt), (8 bytes).
    Removing lib.o(.text._ZN9EmbSysLib2Hw18USBdeviceInterface17onRequestCtrl_OUTERNS_3Std11DataPointerEhtt), (4 bytes).
    Removing lib.o(.ARM.exidx.text._ZN9EmbSysLib2Hw18USBdeviceInterface17onRequestCtrl_OUTERNS_3Std11DataPointerEhtt), (8 bytes).
    Removing lib.o(.text._ZN9EmbSysLib2Hw18USBdeviceInterface14onTransmitCtrlEv), (2 bytes).
    Removing lib.o(.ARM.exidx.text._ZN9EmbSysLib2Hw18USBdeviceInterface14onTransmitCtrlEv), (8 bytes).
    Removing lib.o(.text._ZN9EmbSysLib2Hw18USBdeviceInterface13onReceiveCtrlEt), (4 bytes).
    Removing lib.o(.ARM.exidx.text._ZN9EmbSysLib2Hw18USBdeviceInterface13onReceiveCtrlEt), (8 bytes).
    Removing lib.o(.text._ZN9EmbSysLib2Hw18USBdeviceInterface15onGetDescriptorEt), (8 bytes).
    Removing lib.o(.ARM.exidx.text._ZN9EmbSysLib2Hw18USBdeviceInterface15onGetDescriptorEt), (8 bytes).
    Removing lib.o(.text._ZN9EmbSysLib3Dev8AnalogIn3getEv), (42 bytes).
    Removing lib.o(.ARM.exidx.text._ZN9EmbSysLib3Dev8AnalogIn3getEv), (8 bytes).
    Removing lib.o(.text._ZN9EmbSysLib3Dev8AnalogIncvfEv), (6 bytes).
    Removing lib.o(.ARM.exidx.text._ZN9EmbSysLib3Dev8AnalogIncvfEv), (8 bytes).
    Removing lib.o(.text._ZN9EmbSysLib3Dev9AnalogOutaSEf), (26 bytes).
    Removing lib.o(.ARM.exidx.text._ZN9EmbSysLib3Dev9AnalogOutaSEf), (8 bytes).
    Removing lib.o(.ARM.exidx.text._ZN9EmbSysLib3Dev7Digital3setEv), (8 bytes).
    Removing lib.o(.ARM.exidx.text._ZN9EmbSysLib3Dev7Digital3clrEv), (8 bytes).
    Removing lib.o(.ARM.exidx.text._ZN9EmbSysLib3Dev7Digital6toggleEv), (8 bytes).
    Removing lib.o(.ARM.exidx.text._ZN9EmbSysLib3Dev7Digital8getEventEv), (8 bytes).
    Removing lib.o(.ARM.exidx.text._ZN9EmbSysLib3Dev7DigitalaSEb), (8 bytes).
    Removing lib.o(.ARM.exidx.text._ZN9EmbSysLib3Dev7DigitalaSERS1_), (8 bytes).
    Removing lib.o(.ARM.exidx.text._ZN9EmbSysLib3Dev7DigitalcvbEv), (8 bytes).
    Removing lib.o(.text._ZN9EmbSysLib3Mod8USB_Uart7getByteEv), (4 bytes).
    Removing lib.o(.ARM.exidx.text._ZN9EmbSysLib3Mod8USB_Uart7getByteEv), (8 bytes).
    Removing lib.o(.text._ZN9EmbSysLib3Mod8USB_Uart7setByteEh), (2 bytes).
    Removing lib.o(.ARM.exidx.text._ZN9EmbSysLib3Mod8USB_Uart7setByteEh), (8 bytes).
    Removing lib.o(.text._ZN9EmbSysLib3Mod8USB_Uart12transmitByteEh), (100 bytes).
    Removing lib.o(.ARM.exidx.text._ZN9EmbSysLib3Mod8USB_Uart12transmitByteEh), (8 bytes).
    Removing lib.o(.text._ZThn12_N9EmbSysLib3Mod8USB_Uart12transmitByteEh), (102 bytes).
    Removing lib.o(.ARM.exidx.text._ZThn12_N9EmbSysLib3Mod8USB_Uart12transmitByteEh), (8 bytes).
    Removing lib.o(.text._ZThn12_N9EmbSysLib3Mod8USB_Uart7setByteEh), (2 bytes).
    Removing lib.o(.ARM.exidx.text._ZThn12_N9EmbSysLib3Mod8USB_Uart7setByteEh), (8 bytes).
    Removing lib.o(.text._ZThn12_N9EmbSysLib3Mod8USB_Uart7getByteEv), (4 bytes).
    Removing lib.o(.ARM.exidx.text._ZThn12_N9EmbSysLib3Mod8USB_Uart7getByteEv), (8 bytes).
    Removing lib.o(.text._ZN9EmbSysLib2Hw7Dac_Mcu3setEht), (146 bytes).
    Removing lib.o(.ARM.exidx.text._ZN9EmbSysLib2Hw7Dac_Mcu3setEht), (8 bytes).
    Removing lib.o(.text._ZN9EmbSysLib2Hw7Dac_Mcu6enableEh), (166 bytes).
    Removing lib.o(.ARM.exidx.text._ZN9EmbSysLib2Hw7Dac_Mcu6enableEh), (8 bytes).
    Removing lib.o(.ARM.exidx.text._ZN9EmbSysLib2Hw13I2Cmaster_Mcu5startEh), (8 bytes).
    Removing lib.o(.ARM.exidx.text._ZN9EmbSysLib2Hw13I2Cmaster_Mcu4stopEv), (8 bytes).
    Removing lib.o(.ARM.exidx.text._ZN9EmbSysLib2Hw13I2Cmaster_Mcu8sendAddrEh), (8 bytes).
    Removing lib.o(.ARM.exidx.text._ZN9EmbSysLib2Hw13I2Cmaster_Mcu9writeByteEh), (8 bytes).
    Removing lib.o(.ARM.exidx.text._ZN9EmbSysLib2Hw13I2Cmaster_Mcu11readByteAckEv), (8 bytes).
    Removing lib.o(.ARM.exidx.text._ZN9EmbSysLib2Hw13I2Cmaster_Mcu12readByteNackEv), (8 bytes).
    Removing lib.o(.ARM.exidx.text._ZN9EmbSysLib2Hw13I2Cmaster_Mcu11waitForAcknEj), (8 bytes).
    Removing lib.o(.ARM.exidx.text._ZN9EmbSysLib2Hw4Port3Pin3setEv), (8 bytes).
    Removing lib.o(.ARM.exidx.text._ZN9EmbSysLib2Hw4Port3Pin3clrEv), (8 bytes).
    Removing lib.o(.ARM.exidx.text._ZN9EmbSysLib2Hw5Touch7getPosXEv), (8 bytes).
    Removing lib.o(.ARM.exidx.text._ZN9EmbSysLib2Hw5Touch7getPosYEv), (8 bytes).
    Removing lib.o(.ARM.exidx.text._ZN9EmbSysLib2Hw5Touch9isTouchedEv), (8 bytes).
    Removing lib.o(.text._ZN9EmbSysLib2Hw3Net7Handler6updateEv), (12 bytes).
    Removing lib.o(.ARM.exidx.text._ZN9EmbSysLib2Hw3Net7Handler6updateEv), (8 bytes).
    Removing lib.o(.rodata._ZTVN9EmbSysLib2Hw7Dac_McuE), (16 bytes).
    Removing lib.o(.rodata._ZTVN9EmbSysLib3Std5ClockE), (16 bytes).
    Removing lib.o(.rodata._ZTVN9EmbSysLib2Hw3DacE), (16 bytes).
    Removing lib.o(.rodata._ZTVN9EmbSysLib2Hw4PortE), (32 bytes).
    Removing lib.o(.rodata._ZTVN9EmbSysLib2Hw3RtcE), (16 bytes).
    Removing lib.o(.rodata._ZTVN9EmbSysLib2Hw9SPImasterE), (12 bytes).
    Removing lib.o(.rodata._ZTVN9EmbSysLib3Dev8AnalogInE), (24 bytes).
    Removing lib.o(.rodata._ZTVN9EmbSysLib2Hw3NetE), (24 bytes).
    Removing lib.o(.rodata._ZTVN9EmbSysLib2Hw3Net7HandlerE), (12 bytes).

992 unused section(s) (total 52006 bytes) removed from the image.

==============================================================================

Image Symbol Table

    Local Symbols

    Symbol Name                              Value     Ov Type        Size  Object(Section)

    ../clib/angel/boardlib.s                 0x00000000   Number         0  boardinit1.o ABSOLUTE
    ../clib/angel/boardlib.s                 0x00000000   Number         0  boardinit2.o ABSOLUTE
    ../clib/angel/boardlib.s                 0x00000000   Number         0  boardinit3.o ABSOLUTE
    ../clib/angel/boardlib.s                 0x00000000   Number         0  boardshut.o ABSOLUTE
    ../clib/angel/handlers.s                 0x00000000   Number         0  __scatter_copy.o ABSOLUTE
    ../clib/angel/handlers.s                 0x00000000   Number         0  __scatter_zi.o ABSOLUTE
    ../clib/angel/kernel.s                   0x00000000   Number         0  __rtentry.o ABSOLUTE
    ../clib/angel/kernel.s                   0x00000000   Number         0  __rtentry2.o ABSOLUTE
    ../clib/angel/kernel.s                   0x00000000   Number         0  __rtentry4.o ABSOLUTE
    ../clib/angel/kernel.s                   0x00000000   Number         0  rtexit.o ABSOLUTE
    ../clib/angel/kernel.s                   0x00000000   Number         0  rtexit2.o ABSOLUTE
    ../clib/angel/rt.s                       0x00000000   Number         0  aeabi_ldiv0.o ABSOLUTE
    ../clib/angel/rt.s                       0x00000000   Number         0  aeabi_ldiv0_sigfpe.o ABSOLUTE
    ../clib/angel/rt.s                       0x00000000   Number         0  rt_div0.o ABSOLUTE
    ../clib/angel/rt.s                       0x00000000   Number         0  rt_heap_descriptor.o ABSOLUTE
    ../clib/angel/rt.s                       0x00000000   Number         0  rt_heap_descriptor_intlibspace.o ABSOLUTE
    ../clib/angel/rt.s                       0x00000000   Number         0  rt_ddtor_pointer_addr.o ABSOLUTE
    ../clib/angel/rt.s                       0x00000000   Number         0  rt_ddtor_pointer_addr_intlibspace.o ABSOLUTE
    ../clib/angel/rt.s                       0x00000000   Number         0  rt_ctype_table.o ABSOLUTE
    ../clib/angel/rt.s                       0x00000000   Number         0  rt_raise.o ABSOLUTE
    ../clib/angel/rt.s                       0x00000000   Number         0  rt_locale.o ABSOLUTE
    ../clib/angel/rt.s                       0x00000000   Number         0  rt_locale_intlibspace.o ABSOLUTE
    ../clib/angel/scatter.s                  0x00000000   Number         0  __scatter.o ABSOLUTE
    ../clib/angel/startup.s                  0x00000000   Number         0  __main.o ABSOLUTE
    ../clib/angel/sys.s                      0x00000000   Number         0  mutex_dummy.o ABSOLUTE
    ../clib/angel/sys.s                      0x00000000   Number         0  libspace.o ABSOLUTE
    ../clib/angel/sys.s                      0x00000000   Number         0  use_no_semi.o ABSOLUTE
    ../clib/angel/sys.s                      0x00000000   Number         0  indicate_semi.o ABSOLUTE
    ../clib/angel/sys.s                      0x00000000   Number         0  sys_stackheap_outer.o ABSOLUTE
    ../clib/angel/sysapp.c                   0x00000000   Number         0  sys_exit.o ABSOLUTE
    ../clib/angel/sysapp.c                   0x00000000   Number         0  sys_exit_hlt.o ABSOLUTE
    ../clib/angel/sysapp.c                   0x00000000   Number         0  sys_command.o ABSOLUTE
    ../clib/angel/sysapp.c                   0x00000000   Number         0  sys_command_hlt.o ABSOLUTE
    ../clib/angel/sysapp.c                   0x00000000   Number         0  sys_wrch.o ABSOLUTE
    ../clib/angel/sysapp.c                   0x00000000   Number         0  sys_wrch_hlt.o ABSOLUTE
    ../clib/arm_runtime.c                    0x00000000   Number         0  init_aeabi.o ABSOLUTE
    ../clib/arm_runtime.c                    0x00000000   Number         0  init_aeabi.o ABSOLUTE
    ../clib/armsys.c                         0x00000000   Number         0  _get_argv.o ABSOLUTE
    ../clib/armsys.c                         0x00000000   Number         0  argv_veneer.o ABSOLUTE
    ../clib/armsys.c                         0x00000000   Number         0  argv_veneer.o ABSOLUTE
    ../clib/armsys.c                         0x00000000   Number         0  _get_argv_nomalloc.o ABSOLUTE
    ../clib/armsys.c                         0x00000000   Number         0  no_argv.o ABSOLUTE
    ../clib/bigflt.c                         0x00000000   Number         0  bigflt0.o ABSOLUTE
    ../clib/btod.s                           0x00000000   Number         0  btod.o ABSOLUTE
    ../clib/btod_accurate.c                  0x00000000   Number         0  btod_accurate.o ABSOLUTE
    ../clib/btod_accurate.c                  0x00000000   Number         0  btod_accurate_common.o ABSOLUTE
    ../clib/heap1.c                          0x00000000   Number         0  h1_alloc.o ABSOLUTE
    ../clib/heap1.c                          0x00000000   Number         0  h1_free.o ABSOLUTE
    ../clib/heap1.c                          0x00000000   Number         0  h1_memalign.o ABSOLUTE
    ../clib/heap1.c                          0x00000000   Number         0  h1_alloc_threads.o ABSOLUTE
    ../clib/heap1.c                          0x00000000   Number         0  h1_free_threads.o ABSOLUTE
    ../clib/heap1.c                          0x00000000   Number         0  h1_memalign_threads.o ABSOLUTE
    ../clib/heap1.c                          0x00000000   Number         0  h1_init.o ABSOLUTE
    ../clib/heap1.c                          0x00000000   Number         0  h1_init_threads.o ABSOLUTE
    ../clib/heap1.c                          0x00000000   Number         0  h1_extend.o ABSOLUTE
    ../clib/heap1.c                          0x00000000   Number         0  h1_extend_threads.o ABSOLUTE
    ../clib/heap1.c                          0x00000000   Number         0  h1_final.o ABSOLUTE
    ../clib/heap1.c                          0x00000000   Number         0  h1_final_threads.o ABSOLUTE
    ../clib/heap2.c                          0x00000000   Number         0  heap2.o ABSOLUTE
    ../clib/heap2.c                          0x00000000   Number         0  heap2_threads.o ABSOLUTE
    ../clib/heap2.c                          0x00000000   Number         0  fdtree.o ABSOLUTE
    ../clib/heapalloc.c                      0x00000000   Number         0  malloc.o ABSOLUTE
    ../clib/heapalloc.c                      0x00000000   Number         0  free.o ABSOLUTE
    ../clib/heapalloc.c                      0x00000000   Number         0  hguard.o ABSOLUTE
    ../clib/heapalloc.c                      0x00000000   Number         0  init_alloc.o ABSOLUTE
    ../clib/heapalloc.c                      0x00000000   Number         0  heapstubs.o ABSOLUTE
    ../clib/heapalloc.c                      0x00000000   Number         0  hrguard.o ABSOLUTE
    ../clib/heapalloc.c                      0x00000000   Number         0  term_alloc.o ABSOLUTE
    ../clib/heapaux.c                        0x00000000   Number         0  heapauxi.o ABSOLUTE
    ../clib/heapaux.c                        0x00000000   Number         0  heapauxa.o ABSOLUTE
    ../clib/libinit.s                        0x00000000   Number         0  libinit2.o ABSOLUTE
    ../clib/libinit.s                        0x00000000   Number         0  libinit.o ABSOLUTE
    ../clib/libinit.s                        0x00000000   Number         0  libshutdown2.o ABSOLUTE
    ../clib/libinit.s                        0x00000000   Number         0  libshutdown.o ABSOLUTE
    ../clib/locale.c                         0x00000000   Number         0  _c32rtomb.o ABSOLUTE
    ../clib/locale.s                         0x00000000   Number         0  lc_numeric_c.o ABSOLUTE
    ../clib/locale.s                         0x00000000   Number         0  lc_ctype_c.o ABSOLUTE
    ../clib/longlong.s                       0x00000000   Number         0  lludivv7m.o ABSOLUTE
    ../clib/longlong.s                       0x00000000   Number         0  lludiv10.o ABSOLUTE
    ../clib/longlong.s                       0x00000000   Number         0  llushr.o ABSOLUTE
    ../clib/maybe.s                          0x00000000   Number         0  maybetermalloc1.o ABSOLUTE
    ../clib/maybe.s                          0x00000000   Number         0  maybetermalloc2.o ABSOLUTE
    ../clib/memcpset.s                       0x00000000   Number         0  rt_memcpy_v6.o ABSOLUTE
    ../clib/memcpset.s                       0x00000000   Number         0  rt_memclr.o ABSOLUTE
    ../clib/memcpset.s                       0x00000000   Number         0  strcmpv7m_pel.o ABSOLUTE
    ../clib/memcpset.s                       0x00000000   Number         0  rt_memcpy_w.o ABSOLUTE
    ../clib/memcpset.s                       0x00000000   Number         0  rt_memclr_w.o ABSOLUTE
    ../clib/misc.s                           0x00000000   Number         0  printf_stubs.o ABSOLUTE
    ../clib/printf.c                         0x00000000   Number         0  vsnprintf.o ABSOLUTE
    ../clib/printf.c                         0x00000000   Number         0  __printf.o ABSOLUTE
    ../clib/printf.c                         0x00000000   Number         0  _printf_pad.o ABSOLUTE
    ../clib/printf.c                         0x00000000   Number         0  _printf_truncate.o ABSOLUTE
    ../clib/printf.c                         0x00000000   Number         0  _printf_str.o ABSOLUTE
    ../clib/printf.c                         0x00000000   Number         0  _printf_dec.o ABSOLUTE
    ../clib/printf.c                         0x00000000   Number         0  _printf_charcount.o ABSOLUTE
    ../clib/printf.c                         0x00000000   Number         0  _printf_char_common.o ABSOLUTE
    ../clib/printf.c                         0x00000000   Number         0  _snputc.o ABSOLUTE
    ../clib/printf.c                         0x00000000   Number         0  _printf_wctomb.o ABSOLUTE
    ../clib/printf.c                         0x00000000   Number         0  _printf_longlong_dec.o ABSOLUTE
    ../clib/printf.c                         0x00000000   Number         0  _printf_oct_ll.o ABSOLUTE
    ../clib/printf.c                         0x00000000   Number         0  _printf_oct_int.o ABSOLUTE
    ../clib/printf.c                         0x00000000   Number         0  _printf_oct_int_ll.o ABSOLUTE
    ../clib/printf.c                         0x00000000   Number         0  _printf_hex_ll.o ABSOLUTE
    ../clib/printf.c                         0x00000000   Number         0  _printf_hex_int.o ABSOLUTE
    ../clib/printf.c                         0x00000000   Number         0  _printf_hex_int_ll.o ABSOLUTE
    ../clib/printf.c                         0x00000000   Number         0  _printf_hex_ptr.o ABSOLUTE
    ../clib/printf.c                         0x00000000   Number         0  _printf_hex_int_ptr.o ABSOLUTE
    ../clib/printf.c                         0x00000000   Number         0  _printf_hex_ll_ptr.o ABSOLUTE
    ../clib/printf.c                         0x00000000   Number         0  _printf_hex_int_ll_ptr.o ABSOLUTE
    ../clib/printf.c                         0x00000000   Number         0  __printf_flags.o ABSOLUTE
    ../clib/printf.c                         0x00000000   Number         0  __printf_ss.o ABSOLUTE
    ../clib/printf.c                         0x00000000   Number         0  __printf_flags_ss.o ABSOLUTE
    ../clib/printf.c                         0x00000000   Number         0  __printf_wp.o ABSOLUTE
    ../clib/printf.c                         0x00000000   Number         0  __printf_flags_wp.o ABSOLUTE
    ../clib/printf.c                         0x00000000   Number         0  __printf_ss_wp.o ABSOLUTE
    ../clib/printf.c                         0x00000000   Number         0  __printf_flags_ss_wp.o ABSOLUTE
    ../clib/printf.c                         0x00000000   Number         0  _printf_intcommon.o ABSOLUTE
    ../clib/printf.c                         0x00000000   Number         0  _printf_fp_dec.o ABSOLUTE
    ../clib/printf.c                         0x00000000   Number         0  _printf_fp_dec_accurate.o ABSOLUTE
    ../clib/printf.c                         0x00000000   Number         0  _printf_fp_hex.o ABSOLUTE
    ../clib/printf.c                         0x00000000   Number         0  __printf_nopercent.o ABSOLUTE
    ../clib/printf.c                         0x00000000   Number         0  _printf_char.o ABSOLUTE
    ../clib/printf.c                         0x00000000   Number         0  _printf_wchar.o ABSOLUTE
    ../clib/printf.c                         0x00000000   Number         0  _printf_fp_infnan.o ABSOLUTE
    ../clib/printf_percent.s                 0x00000000   Number         0  _printf_c.o ABSOLUTE
    ../clib/printf_percent.s                 0x00000000   Number         0  _printf_s.o ABSOLUTE
    ../clib/printf_percent.s                 0x00000000   Number         0  _printf_n.o ABSOLUTE
    ../clib/printf_percent.s                 0x00000000   Number         0  _printf_x.o ABSOLUTE
    ../clib/printf_percent.s                 0x00000000   Number         0  _printf_p.o ABSOLUTE
    ../clib/printf_percent.s                 0x00000000   Number         0  _printf_o.o ABSOLUTE
    ../clib/printf_percent.s                 0x00000000   Number         0  _printf_i.o ABSOLUTE
    ../clib/printf_percent.s                 0x00000000   Number         0  _printf_d.o ABSOLUTE
    ../clib/printf_percent.s                 0x00000000   Number         0  _printf_u.o ABSOLUTE
    ../clib/printf_percent.s                 0x00000000   Number         0  _printf_f.o ABSOLUTE
    ../clib/printf_percent.s                 0x00000000   Number         0  _printf_e.o ABSOLUTE
    ../clib/printf_percent.s                 0x00000000   Number         0  _printf_g.o ABSOLUTE
    ../clib/printf_percent.s                 0x00000000   Number         0  _printf_a.o ABSOLUTE
    ../clib/printf_percent.s                 0x00000000   Number         0  _printf_percent.o ABSOLUTE
    ../clib/printf_percent.s                 0x00000000   Number         0  _printf_lli.o ABSOLUTE
    ../clib/printf_percent.s                 0x00000000   Number         0  _printf_lld.o ABSOLUTE
    ../clib/printf_percent.s                 0x00000000   Number         0  _printf_llu.o ABSOLUTE
    ../clib/printf_percent.s                 0x00000000   Number         0  _printf_ll.o ABSOLUTE
    ../clib/printf_percent.s                 0x00000000   Number         0  _printf_l.o ABSOLUTE
    ../clib/printf_percent.s                 0x00000000   Number         0  _printf_lc.o ABSOLUTE
    ../clib/printf_percent.s                 0x00000000   Number         0  _printf_ls.o ABSOLUTE
    ../clib/printf_percent.s                 0x00000000   Number         0  _printf_llo.o ABSOLUTE
    ../clib/printf_percent.s                 0x00000000   Number         0  _printf_llx.o ABSOLUTE
    ../clib/printf_percent.s                 0x00000000   Number         0  _printf_percent_end.o ABSOLUTE
    ../clib/r_arm_target.c                   0x00000000   Number         0  __ARM_resolve_target1.o ABSOLUTE
    ../clib/r_arm_target.c                   0x00000000   Number         0  __ARM_resolve_target1_abs32.o ABSOLUTE
    ../clib/signal.c                         0x00000000   Number         0  defsig_abrt_outer.o ABSOLUTE
    ../clib/signal.c                         0x00000000   Number         0  defsig_abrt_formal.o ABSOLUTE
    ../clib/signal.c                         0x00000000   Number         0  defsig_exit.o ABSOLUTE
    ../clib/signal.c                         0x00000000   Number         0  defsig_abrt_inner.o ABSOLUTE
    ../clib/signal.c                         0x00000000   Number         0  defsig_fpe_outer.o ABSOLUTE
    ../clib/signal.c                         0x00000000   Number         0  defsig_fpe_formal.o ABSOLUTE
    ../clib/signal.c                         0x00000000   Number         0  defsig_rtmem_outer.o ABSOLUTE
    ../clib/signal.c                         0x00000000   Number         0  defsig_rtmem_formal.o ABSOLUTE
    ../clib/signal.c                         0x00000000   Number         0  __raise.o ABSOLUTE
    ../clib/signal.c                         0x00000000   Number         0  defsig_general.o ABSOLUTE
    ../clib/signal.c                         0x00000000   Number         0  defsig_fpe_inner.o ABSOLUTE
    ../clib/signal.c                         0x00000000   Number         0  defsig_rtmem_inner.o ABSOLUTE
    ../clib/signal.c                         0x00000000   Number         0  defsig_rtred_inner.o ABSOLUTE
    ../clib/signal.c                         0x00000000   Number         0  defsig_stak_inner.o ABSOLUTE
    ../clib/signal.c                         0x00000000   Number         0  defsig_pvfn_inner.o ABSOLUTE
    ../clib/signal.c                         0x00000000   Number         0  defsig_cppl_inner.o ABSOLUTE
    ../clib/signal.c                         0x00000000   Number         0  defsig_segv_inner.o ABSOLUTE
    ../clib/signal.c                         0x00000000   Number         0  defsig_other.o ABSOLUTE
    ../clib/signal.s                         0x00000000   Number         0  defsig.o ABSOLUTE
    ../clib/stdlib.c                         0x00000000   Number         0  atexit_cxa.o ABSOLUTE
    ../clib/stdlib.c                         0x00000000   Number         0  cxa_atexit.o ABSOLUTE
    ../clib/stdlib.c                         0x00000000   Number         0  abort.o ABSOLUTE
    ../clib/stdlib.c                         0x00000000   Number         0  atexit_aeabi.o ABSOLUTE
    ../clib/stdlib.c                         0x00000000   Number         0  aeabi_atexit.o ABSOLUTE
    ../clib/stdlib.c                         0x00000000   Number         0  cxa_finalize.o ABSOLUTE
    ../clib/stdlib.c                         0x00000000   Number         0  exit.o ABSOLUTE
    ../clib/string.c                         0x00000000   Number         0  strchr.o ABSOLUTE
    ../clib/string.c                         0x00000000   Number         0  memcmp.o ABSOLUTE
    ../clib/string.c                         0x00000000   Number         0  strlen.o ABSOLUTE
    ../fplib/d2f.s                           0x00000000   Number         0  d2f.o ABSOLUTE
    ../fplib/ddiv.s                          0x00000000   Number         0  ddiv.o ABSOLUTE
    ../fplib/dfix.s                          0x00000000   Number         0  dfix.o ABSOLUTE
    ../fplib/dfixu.s                         0x00000000   Number         0  dfixu.o ABSOLUTE
    ../fplib/dflt.s                          0x00000000   Number         0  dflt_clz.o ABSOLUTE
    ../fplib/dmul.s                          0x00000000   Number         0  dmul.o ABSOLUTE
    ../fplib/dnaninf.s                       0x00000000   Number         0  dnaninf.o ABSOLUTE
    ../fplib/dretinf.s                       0x00000000   Number         0  dretinf.o ABSOLUTE
    ../fplib/fpinit.s                        0x00000000   Number         0  fpinit.o ABSOLUTE
    ../fplib/fretinf.s                       0x00000000   Number         0  fretinf.o ABSOLUTE
    ../fplib/istatus.s                       0x00000000   Number         0  istatus.o ABSOLUTE
    ../fplib/printf1.s                       0x00000000   Number         0  printf1.o ABSOLUTE
    ../fplib/printf2.s                       0x00000000   Number         0  printf2.o ABSOLUTE
    ../fplib/printf2a.s                      0x00000000   Number         0  printf2a.o ABSOLUTE
    ../fplib/printf2b.s                      0x00000000   Number         0  printf2b.o ABSOLUTE
    ../fplib/usenofp.s                       0x00000000   Number         0  usenofp.o ABSOLUTE
    ../mathlib/fpclassify.c                  0x00000000   Number         0  fpclassify.o ABSOLUTE
    abort_message.cpp                        0x00000000   Number         0  abort_message.cpp.o ABSOLUTE
    cxa_default_handlers.cpp                 0x00000000   Number         0  cxa_default_handlers.cpp.o ABSOLUTE
    cxa_handlers.cpp                         0x00000000   Number         0  cxa_handlers.cpp.o ABSOLUTE
    cxa_virtual.cpp                          0x00000000   Number         0  cxa_virtual.cpp.o ABSOLUTE
    dc.s                                     0x00000000   Number         0  dc.o ABSOLUTE
    lib.cpp                                  0x00000000   Number         0  lib.o ABSOLUTE
    main.cpp                                 0x00000000   Number         0  main.o ABSOLUTE
    new.cpp                                  0x00000000   Number         0  new.cpp.o ABSOLUTE
    startup.S                                0x00000000   Number         0  startup.o ABSOLUTE
    RESET                                    0x08000000   Section      504  startup.o(RESET)
    !!!main                                  0x080001f8   Section        8  __main.o(!!!main)
    !!!scatter                               0x08000200   Section       52  __scatter.o(!!!scatter)
    !!handler_copy                           0x08000234   Section       26  __scatter_copy.o(!!handler_copy)
    !!handler_zi                             0x08000250   Section       28  __scatter_zi.o(!!handler_zi)
    .ARM.Collect$$_printf_percent$$00000000  0x0800026c   Section        0  _printf_percent.o(.ARM.Collect$$_printf_percent$$00000000)
    .ARM.Collect$$_printf_percent$$00000001  0x0800026c   Section        6  _printf_n.o(.ARM.Collect$$_printf_percent$$00000001)
    .ARM.Collect$$_printf_percent$$00000002  0x08000272   Section        6  _printf_p.o(.ARM.Collect$$_printf_percent$$00000002)
    .ARM.Collect$$_printf_percent$$00000003  0x08000278   Section        6  _printf_f.o(.ARM.Collect$$_printf_percent$$00000003)
    .ARM.Collect$$_printf_percent$$00000004  0x0800027e   Section        6  _printf_e.o(.ARM.Collect$$_printf_percent$$00000004)
    .ARM.Collect$$_printf_percent$$00000005  0x08000284   Section        6  _printf_g.o(.ARM.Collect$$_printf_percent$$00000005)
    .ARM.Collect$$_printf_percent$$00000006  0x0800028a   Section        6  _printf_a.o(.ARM.Collect$$_printf_percent$$00000006)
    .ARM.Collect$$_printf_percent$$00000007  0x08000290   Section       10  _printf_ll.o(.ARM.Collect$$_printf_percent$$00000007)
    .ARM.Collect$$_printf_percent$$00000008  0x0800029a   Section        6  _printf_i.o(.ARM.Collect$$_printf_percent$$00000008)
    .ARM.Collect$$_printf_percent$$00000009  0x080002a0   Section        6  _printf_d.o(.ARM.Collect$$_printf_percent$$00000009)
    .ARM.Collect$$_printf_percent$$0000000A  0x080002a6   Section        6  _printf_u.o(.ARM.Collect$$_printf_percent$$0000000A)
    .ARM.Collect$$_printf_percent$$0000000B  0x080002ac   Section        6  _printf_o.o(.ARM.Collect$$_printf_percent$$0000000B)
    .ARM.Collect$$_printf_percent$$0000000C  0x080002b2   Section        6  _printf_x.o(.ARM.Collect$$_printf_percent$$0000000C)
    .ARM.Collect$$_printf_percent$$0000000D  0x080002b8   Section        6  _printf_lli.o(.ARM.Collect$$_printf_percent$$0000000D)
    .ARM.Collect$$_printf_percent$$0000000E  0x080002be   Section        6  _printf_lld.o(.ARM.Collect$$_printf_percent$$0000000E)
    .ARM.Collect$$_printf_percent$$0000000F  0x080002c4   Section        6  _printf_llu.o(.ARM.Collect$$_printf_percent$$0000000F)
    .ARM.Collect$$_printf_percent$$00000010  0x080002ca   Section        6  _printf_llo.o(.ARM.Collect$$_printf_percent$$00000010)
    .ARM.Collect$$_printf_percent$$00000011  0x080002d0   Section        6  _printf_llx.o(.ARM.Collect$$_printf_percent$$00000011)
    .ARM.Collect$$_printf_percent$$00000012  0x080002d6   Section       10  _printf_l.o(.ARM.Collect$$_printf_percent$$00000012)
    .ARM.Collect$$_printf_percent$$00000013  0x080002e0   Section        6  _printf_c.o(.ARM.Collect$$_printf_percent$$00000013)
    .ARM.Collect$$_printf_percent$$00000014  0x080002e6   Section        6  _printf_s.o(.ARM.Collect$$_printf_percent$$00000014)
    .ARM.Collect$$_printf_percent$$00000015  0x080002ec   Section        6  _printf_lc.o(.ARM.Collect$$_printf_percent$$00000015)
    .ARM.Collect$$_printf_percent$$00000016  0x080002f2   Section        6  _printf_ls.o(.ARM.Collect$$_printf_percent$$00000016)
    .ARM.Collect$$_printf_percent$$00000017  0x080002f8   Section        4  _printf_percent_end.o(.ARM.Collect$$_printf_percent$$00000017)
    .ARM.Collect$$libinit$$00000000          0x080002fc   Section        2  libinit.o(.ARM.Collect$$libinit$$00000000)
    .ARM.Collect$$libinit$$00000001          0x080002fe   Section        4  libinit2.o(.ARM.Collect$$libinit$$00000001)
    .ARM.Collect$$libinit$$00000004          0x08000302   Section        0  libinit2.o(.ARM.Collect$$libinit$$00000004)
    .ARM.Collect$$libinit$$00000006          0x08000302   Section        0  libinit2.o(.ARM.Collect$$libinit$$00000006)
    .ARM.Collect$$libinit$$00000007          0x08000302   Section        8  libinit2.o(.ARM.Collect$$libinit$$00000007)
    .ARM.Collect$$libinit$$0000000C          0x0800030a   Section        0  libinit2.o(.ARM.Collect$$libinit$$0000000C)
    .ARM.Collect$$libinit$$0000000E          0x0800030a   Section        0  libinit2.o(.ARM.Collect$$libinit$$0000000E)
    .ARM.Collect$$libinit$$00000010          0x0800030a   Section        0  libinit2.o(.ARM.Collect$$libinit$$00000010)
    .ARM.Collect$$libinit$$00000011          0x0800030a   Section        6  libinit2.o(.ARM.Collect$$libinit$$00000011)
    .ARM.Collect$$libinit$$00000013          0x08000310   Section        0  libinit2.o(.ARM.Collect$$libinit$$00000013)
    .ARM.Collect$$libinit$$00000014          0x08000310   Section       12  libinit2.o(.ARM.Collect$$libinit$$00000014)
    .ARM.Collect$$libinit$$00000015          0x0800031c   Section        0  libinit2.o(.ARM.Collect$$libinit$$00000015)
    .ARM.Collect$$libinit$$00000017          0x0800031c   Section        0  libinit2.o(.ARM.Collect$$libinit$$00000017)
    .ARM.Collect$$libinit$$00000018          0x0800031c   Section       10  libinit2.o(.ARM.Collect$$libinit$$00000018)
    .ARM.Collect$$libinit$$00000019          0x08000326   Section        0  libinit2.o(.ARM.Collect$$libinit$$00000019)
    .ARM.Collect$$libinit$$0000001B          0x08000326   Section        0  libinit2.o(.ARM.Collect$$libinit$$0000001B)
    .ARM.Collect$$libinit$$0000001D          0x08000326   Section        0  libinit2.o(.ARM.Collect$$libinit$$0000001D)
    .ARM.Collect$$libinit$$0000001F          0x08000326   Section        0  libinit2.o(.ARM.Collect$$libinit$$0000001F)
    .ARM.Collect$$libinit$$00000021          0x08000326   Section        0  libinit2.o(.ARM.Collect$$libinit$$00000021)
    .ARM.Collect$$libinit$$00000023          0x08000326   Section        0  libinit2.o(.ARM.Collect$$libinit$$00000023)
    .ARM.Collect$$libinit$$00000025          0x08000326   Section        0  libinit2.o(.ARM.Collect$$libinit$$00000025)
    .ARM.Collect$$libinit$$00000027          0x08000326   Section        0  libinit2.o(.ARM.Collect$$libinit$$00000027)
    .ARM.Collect$$libinit$$0000002E          0x08000326   Section        0  libinit2.o(.ARM.Collect$$libinit$$0000002E)
    .ARM.Collect$$libinit$$00000030          0x08000326   Section        0  libinit2.o(.ARM.Collect$$libinit$$00000030)
    .ARM.Collect$$libinit$$00000032          0x08000326   Section        0  libinit2.o(.ARM.Collect$$libinit$$00000032)
    .ARM.Collect$$libinit$$00000033          0x08000326   Section        4  libinit2.o(.ARM.Collect$$libinit$$00000033)
    .ARM.Collect$$libinit$$00000034          0x0800032a   Section        0  libinit2.o(.ARM.Collect$$libinit$$00000034)
    .ARM.Collect$$libinit$$00000035          0x0800032a   Section        2  libinit2.o(.ARM.Collect$$libinit$$00000035)
    .ARM.Collect$$libshutdown$$00000000      0x0800032c   Section        2  libshutdown.o(.ARM.Collect$$libshutdown$$00000000)
    .ARM.Collect$$libshutdown$$00000001      0x0800032e   Section        6  libshutdown2.o(.ARM.Collect$$libshutdown$$00000001)
    .ARM.Collect$$libshutdown$$00000002      0x08000334   Section        0  libshutdown2.o(.ARM.Collect$$libshutdown$$00000002)
    .ARM.Collect$$libshutdown$$00000004      0x08000334   Section        0  libshutdown2.o(.ARM.Collect$$libshutdown$$00000004)
    .ARM.Collect$$libshutdown$$00000007      0x08000334   Section        0  libshutdown2.o(.ARM.Collect$$libshutdown$$00000007)
    .ARM.Collect$$libshutdown$$0000000A      0x08000334   Section        0  libshutdown2.o(.ARM.Collect$$libshutdown$$0000000A)
    .ARM.Collect$$libshutdown$$0000000C      0x08000334   Section        0  libshutdown2.o(.ARM.Collect$$libshutdown$$0000000C)
    .ARM.Collect$$libshutdown$$0000000F      0x08000334   Section        0  libshutdown2.o(.ARM.Collect$$libshutdown$$0000000F)
    .ARM.Collect$$libshutdown$$00000010      0x08000334   Section        2  libshutdown2.o(.ARM.Collect$$libshutdown$$00000010)
    .ARM.Collect$$rtentry$$00000000          0x08000336   Section        0  __rtentry.o(.ARM.Collect$$rtentry$$00000000)
    .ARM.Collect$$rtentry$$00000002          0x08000336   Section        0  __rtentry2.o(.ARM.Collect$$rtentry$$00000002)
    .ARM.Collect$$rtentry$$00000004          0x08000336   Section        6  __rtentry4.o(.ARM.Collect$$rtentry$$00000004)
    .ARM.Collect$$rtentry$$00000009          0x0800033c   Section        0  __rtentry2.o(.ARM.Collect$$rtentry$$00000009)
    .ARM.Collect$$rtentry$$0000000A          0x0800033c   Section        4  __rtentry2.o(.ARM.Collect$$rtentry$$0000000A)
    .ARM.Collect$$rtentry$$0000000C          0x08000340   Section        0  __rtentry2.o(.ARM.Collect$$rtentry$$0000000C)
    .ARM.Collect$$rtentry$$0000000D          0x08000340   Section        8  __rtentry2.o(.ARM.Collect$$rtentry$$0000000D)
    .ARM.Collect$$rtexit$$00000000           0x08000348   Section        2  rtexit.o(.ARM.Collect$$rtexit$$00000000)
    .ARM.Collect$$rtexit$$00000002           0x0800034a   Section        0  rtexit2.o(.ARM.Collect$$rtexit$$00000002)
    .ARM.Collect$$rtexit$$00000003           0x0800034a   Section        4  rtexit2.o(.ARM.Collect$$rtexit$$00000003)
    .ARM.Collect$$rtexit$$00000004           0x0800034e   Section        6  rtexit2.o(.ARM.Collect$$rtexit$$00000004)
    $v0                                      0x08000354   Number         0  startup.o(.text)
    .text                                    0x08000354   Section      108  startup.o(.text)
    .text                                    0x080003c0   Section        0  vsnprintf.o(.text)
    .text                                    0x080003fc   Section        0  cxa_atexit.o(.text)
    .text                                    0x08000406   Section        0  strlen.o(.text)
    .text                                    0x08000448   Section      124  strcmpv7m_pel.o(.text)
    .text                                    0x080004c4   Section        0  heapauxi.o(.text)
    .text                                    0x080004cc   Section        0  init_aeabi.o(.text)
    .text                                    0x080004f0   Section        0  h1_alloc.o(.text)
    .text                                    0x0800054e   Section        0  h1_free.o(.text)
    .text                                    0x0800059c   Section        0  _printf_pad.o(.text)
    .text                                    0x080005ea   Section        0  _printf_truncate.o(.text)
    .text                                    0x0800060e   Section        0  _printf_str.o(.text)
    .text                                    0x08000660   Section        0  _printf_dec.o(.text)
    .text                                    0x080006d8   Section        0  _printf_charcount.o(.text)
    _printf_input_char                       0x08000701   Thumb Code    10  _printf_char_common.o(.text)
    .text                                    0x08000700   Section        0  _printf_char_common.o(.text)
    .text                                    0x08000730   Section        0  _snputc.o(.text)
    .text                                    0x08000740   Section        0  _printf_wctomb.o(.text)
    .text                                    0x080007fc   Section        0  _printf_longlong_dec.o(.text)
    _printf_longlong_oct_internal            0x08000879   Thumb Code     0  _printf_oct_int_ll.o(.text)
    .text                                    0x08000878   Section        0  _printf_oct_int_ll.o(.text)
    _printf_hex_common                       0x080008e9   Thumb Code     0  _printf_hex_int_ll_ptr.o(.text)
    .text                                    0x080008e8   Section        0  _printf_hex_int_ll_ptr.o(.text)
    .text                                    0x0800097c   Section        0  __printf_flags_ss_wp.o(.text)
    .text                                    0x08000b04   Section        0  abort.o(.text)
    .text                                    0x08000b1a   Section        0  aeabi_atexit.o(.text)
    .text                                    0x08000b48   Section        0  sys_exit.o(.text)
    .text                                    0x08000b54   Section        8  rt_heap_descriptor_intlibspace.o(.text)
    .text                                    0x08000b5c   Section        8  rt_ddtor_pointer_addr_intlibspace.o(.text)
    .text                                    0x08000b64   Section        0  hguard.o(.text)
    .text                                    0x08000b68   Section        0  init_alloc.o(.text)
    .text                                    0x08000bf2   Section        0  h1_init.o(.text)
    .text                                    0x08000c00   Section      138  lludiv10.o(.text)
    .text                                    0x08000c8a   Section        0  _printf_intcommon.o(.text)
    _fp_digits                               0x08000d3d   Thumb Code   432  _printf_fp_dec.o(.text)
    .text                                    0x08000d3c   Section        0  _printf_fp_dec.o(.text)
    .text                                    0x08001158   Section        0  _printf_fp_hex.o(.text)
    .text                                    0x08001454   Section        0  _printf_char.o(.text)
    .text                                    0x08001480   Section        0  _printf_wchar.o(.text)
    .text                                    0x080014ac   Section        0  _c32rtomb.o(.text)
    .text                                    0x080014f4   Section        0  cxa_finalize.o(.text)
    .text                                    0x08001536   Section        0  defsig_abrt_outer.o(.text)
    .text                                    0x08001544   Section        8  libspace.o(.text)
    .text                                    0x0800154c   Section        2  use_no_semi.o(.text)
    .text                                    0x0800154e   Section        0  indicate_semi.o(.text)
    .text                                    0x0800154e   Section       74  sys_stackheap_outer.o(.text)
    .text                                    0x08001598   Section       16  rt_ctype_table.o(.text)
    .text                                    0x080015a8   Section        8  rt_locale_intlibspace.o(.text)
    .text                                    0x080015b0   Section        0  maybetermalloc1.o(.text)
    .text                                    0x080015b0   Section        0  h1_extend.o(.text)
    .text                                    0x080015e4   Section        0  _printf_fp_infnan.o(.text)
    .text                                    0x08001664   Section        0  bigflt0.o(.text)
    .text                                    0x08001748   Section        0  exit.o(.text)
    .text                                    0x0800175a   Section        0  defsig_exit.o(.text)
    .text                                    0x08001764   Section        0  defsig_abrt_inner.o(.text)
    .text                                    0x08001794   Section        0  defsig_rtmem_outer.o(.text)
    .text                                    0x080017a2   Section        0  defsig_general.o(.text)
    .text                                    0x080017d4   Section        0  defsig_rtmem_inner.o(.text)
    .text                                    0x08001824   Section        0  sys_wrch.o(.text)
    [Anonymous Symbol]                       0x08001838   Section        0  lib.o(.text.ADC_IRQHandler)
    [Anonymous Symbol]                       0x080018b0   Section        0  lib.o(.text.OTG_FS_IRQHandler)
    [Anonymous Symbol]                       0x080018c0   Section        0  lib.o(.text.PendSV_Handler)
    [Anonymous Symbol]                       0x080018f0   Section        0  lib.o(.text.SysTick_Handler)
    [Anonymous Symbol]                       0x08001930   Section        0  lib.o(.text.SystemInit)
    [Anonymous Symbol]                       0x08001c18   Section        0  lib.o(.text.TIM1_TRG_COM_TIM11_IRQHandler)
    [Anonymous Symbol]                       0x08001c40   Section        0  lib.o(.text.TIM1_UP_TIM10_IRQHandler)
    [Anonymous Symbol]                       0x08001cb8   Section        0  lib.o(.text.TIM2_IRQHandler)
    [Anonymous Symbol]                       0x08001cd0   Section        0  lib.o(.text.TIM3_IRQHandler)
    [Anonymous Symbol]                       0x08001ce8   Section        0  lib.o(.text.TIM4_IRQHandler)
    [Anonymous Symbol]                       0x08001d00   Section        0  lib.o(.text.TIM5_IRQHandler)
    [Anonymous Symbol]                       0x08001d18   Section        0  lib.o(.text.TIM7_IRQHandler)
    [Anonymous Symbol]                       0x08001d30   Section        0  lib.o(.text.TIM8_CC_IRQHandler)
    [Anonymous Symbol]                       0x08001d48   Section        0  lib.o(.text.TIM8_TRG_COM_TIM14_IRQHandler)
    [Anonymous Symbol]                       0x08001d70   Section        0  lib.o(.text.UART4_IRQHandler)
    [Anonymous Symbol]                       0x08001db0   Section        0  lib.o(.text.UART5_IRQHandler)
    [Anonymous Symbol]                       0x08001df0   Section        0  lib.o(.text.USART1_IRQHandler)
    [Anonymous Symbol]                       0x08001e30   Section        0  lib.o(.text.USART2_IRQHandler)
    [Anonymous Symbol]                       0x08001e70   Section        0  lib.o(.text.USART3_IRQHandler)
    [Anonymous Symbol]                       0x08001eb0   Section        0  lib.o(.text.USART6_IRQHandler)
    _GLOBAL__sub_I_main.cpp                  0x08001ef1   Thumb Code   892  main.o(.text._GLOBAL__sub_I_main.cpp)
    [Anonymous Symbol]                       0x08001ef0   Section        0  main.o(.text._GLOBAL__sub_I_main.cpp)
    [Anonymous Symbol]                       0x080022c8   Section        0  lib.o(.text._Z18System_GetDSIclockv)
    __NVIC_SystemReset()                     0x080022d1   Thumb Code    42  lib.o(.text._ZL18__NVIC_SystemResetv)
    [Anonymous Symbol]                       0x080022d0   Section        0  lib.o(.text._ZL18__NVIC_SystemResetv)
    [Anonymous Symbol]                       0x08002300   Section        0  main.o(.text._ZN15myReportHandler8onReportEttb)
    [Anonymous Symbol]                       0x08002308   Section        0  lib.o(.text._ZN9EmbSysLib2Hw11DisplayChar16getNumberOfLinesEv)
    [Anonymous Symbol]                       0x08002310   Section        0  lib.o(.text._ZN9EmbSysLib2Hw11DisplayChar18getNumberOfColumnsEv)
    [Anonymous Symbol]                       0x08002318   Section        0  lib.o(.text._ZN9EmbSysLib2Hw11DisplayChar9putStringEPKc)
    [Anonymous Symbol]                       0x08002340   Section        0  main.o(.text._ZN9EmbSysLib2Hw11MemoryImage4lockEv)
    [Anonymous Symbol]                       0x08002348   Section        0  main.o(.text._ZN9EmbSysLib2Hw11MemoryImage6getPtrEv)
    [Anonymous Symbol]                       0x08002350   Section        0  main.o(.text._ZN9EmbSysLib2Hw11MemoryImage6unlockEv)
    [Anonymous Symbol]                       0x08002358   Section        0  main.o(.text._ZN9EmbSysLib2Hw11MemoryImage8readByteEj)
    [Anonymous Symbol]                       0x08002360   Section        0  main.o(.text._ZN9EmbSysLib2Hw11MemoryImage9writeByteEjh)
    [Anonymous Symbol]                       0x08002368   Section        0  main.o(.text._ZN9EmbSysLib2Hw11MemoryImageC2ERNS0_6MemoryEPKc)
    [Anonymous Symbol]                       0x08002468   Section        0  lib.o(.text._ZN9EmbSysLib2Hw12Memory_Flash4lockEv)
    [Anonymous Symbol]                       0x08002498   Section        0  lib.o(.text._ZN9EmbSysLib2Hw12Memory_Flash5eraseEv)
    [Anonymous Symbol]                       0x08002520   Section        0  lib.o(.text._ZN9EmbSysLib2Hw12Memory_Flash6getPtrEv)
    [Anonymous Symbol]                       0x08002528   Section        0  lib.o(.text._ZN9EmbSysLib2Hw12Memory_Flash6unlockEv)
    [Anonymous Symbol]                       0x08002580   Section        0  lib.o(.text._ZN9EmbSysLib2Hw12Memory_Flash8readByteEj)
    [Anonymous Symbol]                       0x08002588   Section        0  lib.o(.text._ZN9EmbSysLib2Hw12Memory_Flash9writeByteEjh)
    [Anonymous Symbol]                       0x08002688   Section        0  lib.o(.text._ZN9EmbSysLib2Hw12Memory_FlashC2Ehh)
    [Anonymous Symbol]                       0x08002898   Section        0  main.o(.text._ZN9EmbSysLib2Hw12Touch_FT62066updateEv)
    [Anonymous Symbol]                       0x08002910   Section        0  lib.o(.text._ZN9EmbSysLib2Hw13I2Cmaster_Mcu11readByteAckEv)
    [Anonymous Symbol]                       0x08002930   Section        0  lib.o(.text._ZN9EmbSysLib2Hw13I2Cmaster_Mcu11waitForAcknEj)
    [Anonymous Symbol]                       0x080029c0   Section        0  lib.o(.text._ZN9EmbSysLib2Hw13I2Cmaster_Mcu12readByteNackEv)
    [Anonymous Symbol]                       0x080029e0   Section        0  lib.o(.text._ZN9EmbSysLib2Hw13I2Cmaster_Mcu4stopEv)
    [Anonymous Symbol]                       0x080029f0   Section        0  lib.o(.text._ZN9EmbSysLib2Hw13I2Cmaster_Mcu5startEh)
    [Anonymous Symbol]                       0x08002a08   Section        0  lib.o(.text._ZN9EmbSysLib2Hw13I2Cmaster_Mcu8sendAddrEh)
    [Anonymous Symbol]                       0x08002a38   Section        0  lib.o(.text._ZN9EmbSysLib2Hw13I2Cmaster_Mcu9writeByteEh)
    [Anonymous Symbol]                       0x08002a50   Section        0  lib.o(.text._ZN9EmbSysLib2Hw13I2Cmaster_McuC2ENS1_6I2C_IDEt)
    [Anonymous Symbol]                       0x08002c00   Section        0  lib.o(.text._ZN9EmbSysLib2Hw13USBdevice_Mcu3isrEv)
    [Anonymous Symbol]                       0x08003330   Section        0  lib.o(.text._ZN9EmbSysLib2Hw14DisplayGraphic11gotoTextPosEhh)
    [Anonymous Symbol]                       0x08003350   Section        0  lib.o(.text._ZN9EmbSysLib2Hw14DisplayGraphic12gotoPixelPosEtt)
    [Anonymous Symbol]                       0x08003358   Section        0  lib.o(.text._ZN9EmbSysLib2Hw14DisplayGraphic12putRectangleEtttt)
    [Anonymous Symbol]                       0x08003398   Section        0  lib.o(.text._ZN9EmbSysLib2Hw14DisplayGraphic12setBackColorEt)
    [Anonymous Symbol]                       0x080033a0   Section        0  lib.o(.text._ZN9EmbSysLib2Hw14DisplayGraphic12setTextColorEt)
    [Anonymous Symbol]                       0x080033a8   Section        0  lib.o(.text._ZN9EmbSysLib2Hw14DisplayGraphic13setPaintColorEt)
    [Anonymous Symbol]                       0x080033b0   Section        0  lib.o(.text._ZN9EmbSysLib2Hw14DisplayGraphic7putCharEc)
    [Anonymous Symbol]                       0x080034a8   Section        0  main.o(.text._ZN9EmbSysLib2Hw14DisplayGraphic7refreshEv)
    [Anonymous Symbol]                       0x080034b0   Section        0  lib.o(.text._ZN9EmbSysLib2Hw14DisplayGraphic7setFontENS0_4FontEh)
    [Anonymous Symbol]                       0x080034c0   Section        0  lib.o(.text._ZN9EmbSysLib2Hw14DisplayGraphic7setZoomEh)
    [Anonymous Symbol]                       0x080034c8   Section        0  main.o(.text._ZN9EmbSysLib2Hw14DisplayGraphic8getWidthEv)
    [Anonymous Symbol]                       0x080034d0   Section        0  lib.o(.text._ZN9EmbSysLib2Hw14DisplayGraphic8putPixelEtt)
    [Anonymous Symbol]                       0x080034f0   Section        0  main.o(.text._ZN9EmbSysLib2Hw14DisplayGraphic9getHeightEv)
    [Anonymous Symbol]                       0x080034f8   Section        0  lib.o(.text._ZN9EmbSysLib2Hw14DisplayGraphic9putBitmapEttNS0_6BitmapE)
    [Anonymous Symbol]                       0x08003558   Section        0  lib.o(.text._ZN9EmbSysLib2Hw14DisplayGraphicC2EtttNS0_4FontEh)
    [Anonymous Symbol]                       0x080035c0   Section        0  main.o(.text._ZN9EmbSysLib2Hw23DisplayGraphic_OTM8009A4initEv)
    [Anonymous Symbol]                       0x08003d38   Section        0  main.o(.text._ZN9EmbSysLib2Hw26DisplayGraphic_OTM8009Aram5clearEv)
    [Anonymous Symbol]                       0x08003d90   Section        0  main.o(.text._ZN9EmbSysLib2Hw26DisplayGraphic_OTM8009Aram7refreshEv)
    [Anonymous Symbol]                       0x08003da8   Section        0  main.o(.text._ZN9EmbSysLib2Hw26DisplayGraphic_OTM8009Aram7setAreaEtttt)
    [Anonymous Symbol]                       0x08003dd8   Section        0  main.o(.text._ZN9EmbSysLib2Hw26DisplayGraphic_OTM8009Aram8setPixelEt)
    [Anonymous Symbol]                       0x08003e20   Section        0  main.o(.text._ZN9EmbSysLib2Hw26DisplayGraphic_OTM8009Aram8setPixelEttt)
    [Anonymous Symbol]                       0x08003e40   Section        0  main.o(.text._ZN9EmbSysLib2Hw26DisplayGraphic_OTM8009AramC2ERNS0_7Dsi_McuERNS0_4Port3PinENS0_23DisplayGraphic_OTM8009A11OrientationENS0_4FontEh)
    [Anonymous Symbol]                       0x08003fa0   Section        0  lib.o(.text._ZN9EmbSysLib2Hw4FontC2EPKh)
    [Anonymous Symbol]                       0x08003fa8   Section        0  lib.o(.text._ZN9EmbSysLib2Hw4Port3Pin3clrEv)
    [Anonymous Symbol]                       0x08003fb8   Section        0  lib.o(.text._ZN9EmbSysLib2Hw4Port3Pin3getEv)
    [Anonymous Symbol]                       0x08003fd0   Section        0  lib.o(.text._ZN9EmbSysLib2Hw4Port3Pin3setEb)
    [Anonymous Symbol]                       0x08003fe8   Section        0  lib.o(.text._ZN9EmbSysLib2Hw4Port3Pin3setEv)
    [Anonymous Symbol]                       0x08003ff8   Section        0  lib.o(.text._ZN9EmbSysLib2Hw4Port3Pin7setModeENS1_4ModeE)
    [Anonymous Symbol]                       0x08004018   Section        0  lib.o(.text._ZN9EmbSysLib2Hw4Port3PinC2ERS1_h)
    [Anonymous Symbol]                       0x08004038   Section        0  lib.o(.text._ZN9EmbSysLib2Hw4Uart12transmitByteEh)
    [Anonymous Symbol]                       0x080040d0   Section        0  lib.o(.text._ZN9EmbSysLib2Hw4Uart14isTxBufferFullEv)
    [Anonymous Symbol]                       0x08004108   Section        0  lib.o(.text._ZN9EmbSysLib2Hw4Uart20getFifoRemainingSizeEv)
    [Anonymous Symbol]                       0x08004140   Section        0  lib.o(.text._ZN9EmbSysLib2Hw4Uart3getERh)
    [Anonymous Symbol]                       0x080041a0   Section        0  lib.o(.text._ZN9EmbSysLib2Hw4Uart3getEv)
    [Anonymous Symbol]                       0x080041c8   Section        0  lib.o(.text._ZN9EmbSysLib2Hw4Uart3setEPKc)
    [Anonymous Symbol]                       0x080041f0   Section        0  lib.o(.text._ZN9EmbSysLib2Hw4Uart3setEPKht)
    [Anonymous Symbol]                       0x08004218   Section        0  lib.o(.text._ZN9EmbSysLib2Hw4Uart3setEh)
    [Anonymous Symbol]                       0x08004220   Section        0  lib.o(.text._ZN9EmbSysLib2Hw4Uart5isrRxEv)
    [Anonymous Symbol]                       0x08004288   Section        0  lib.o(.text._ZN9EmbSysLib2Hw4Uart5isrTxEv)
    [Anonymous Symbol]                       0x08004318   Section        0  lib.o(.text._ZN9EmbSysLib2Hw5Timer10isrHandlerEv)
    [Anonymous Symbol]                       0x08004338   Section        0  lib.o(.text._ZN9EmbSysLib2Hw5Timer12getCycleTimeEv)
    [Anonymous Symbol]                       0x08004340   Section        0  lib.o(.text._ZN9EmbSysLib2Hw5Timer3addEPNS1_4TaskE)
    [Anonymous Symbol]                       0x08004358   Section        0  lib.o(.text._ZN9EmbSysLib2Hw5Touch7getPosXEv)
    [Anonymous Symbol]                       0x08004388   Section        0  lib.o(.text._ZN9EmbSysLib2Hw5Touch7getPosYEv)
    [Anonymous Symbol]                       0x080043b8   Section        0  lib.o(.text._ZN9EmbSysLib2Hw5Touch9isTouchedEv)
    [Anonymous Symbol]                       0x080043c0   Section        0  lib.o(.text._ZN9EmbSysLib2Hw5TouchC2EtttNS1_11OrientationE)
    [Anonymous Symbol]                       0x080043e8   Section        0  lib.o(.text._ZN9EmbSysLib2Hw6BitmapC2EPKh)
    [Anonymous Symbol]                       0x080043f0   Section        0  lib.o(.text._ZN9EmbSysLib2Hw6Memory4readEj)
    [Anonymous Symbol]                       0x08004468   Section        0  lib.o(.text._ZN9EmbSysLib2Hw6Memory5eraseEv)
    [Anonymous Symbol]                       0x080044a0   Section        0  lib.o(.text._ZN9EmbSysLib2Hw6Memory5writeEjh)
    [Anonymous Symbol]                       0x08004520   Section        0  lib.o(.text._ZN9EmbSysLib2Hw6MemoryC2Etjhb)
    [Anonymous Symbol]                       0x08004540   Section        0  lib.o(.text._ZN9EmbSysLib2Hw6System13delayMilliSecEt)
    [Anonymous Symbol]                       0x08004568   Section        0  main.o(.text._ZN9EmbSysLib2Hw7Dsi_Mcu10writeShortEhh)
    [Anonymous Symbol]                       0x08004598   Section        0  main.o(.text._ZN9EmbSysLib2Hw7Dsi_Mcu4InitEttb)
    [Anonymous Symbol]                       0x08004798   Section        0  main.o(.text._ZN9EmbSysLib2Hw7Dsi_Mcu9writeLongEPhj)
    [Anonymous Symbol]                       0x08004818   Section        0  main.o(.text._ZN9EmbSysLib2Hw7Fmc_Mcu10SDRAM_InitEv)
    [Anonymous Symbol]                       0x08004940   Section        0  main.o(.text._ZN9EmbSysLib2Hw7Fmc_McuC2ENS1_7FMCtypeEb)
    [Anonymous Symbol]                       0x08004bb8   Section        0  lib.o(.text._ZN9EmbSysLib2Hw8Port_Mcu10setPinModeEhNS0_4Port4ModeE)
    [Anonymous Symbol]                       0x08004c60   Section        0  lib.o(.text._ZN9EmbSysLib2Hw8Port_Mcu3clrEj)
    [Anonymous Symbol]                       0x08004c68   Section        0  lib.o(.text._ZN9EmbSysLib2Hw8Port_Mcu3getEv)
    [Anonymous Symbol]                       0x08004c70   Section        0  lib.o(.text._ZN9EmbSysLib2Hw8Port_Mcu3setEj)
    [Anonymous Symbol]                       0x08004c78   Section        0  lib.o(.text._ZN9EmbSysLib2Hw8Port_Mcu3setEjj)
    [Anonymous Symbol]                       0x08004c88   Section        0  lib.o(.text._ZN9EmbSysLib2Hw8Port_Mcu7setModeEjNS0_4Port4ModeE)
    [Anonymous Symbol]                       0x08004cc0   Section        0  lib.o(.text._ZN9EmbSysLib2Hw8Port_McuC2ENS1_6PortIdE)
    [Anonymous Symbol]                       0x08004e60   Section        0  lib.o(.text._ZN9EmbSysLib2Hw8Uart_Mcu11setBaudrateEj)
    [Anonymous Symbol]                       0x08004ec8   Section        0  lib.o(.text._ZN9EmbSysLib2Hw8Uart_Mcu7getByteEv)
    [Anonymous Symbol]                       0x08004ed0   Section        0  lib.o(.text._ZN9EmbSysLib2Hw8Uart_Mcu7setByteEh)
    [Anonymous Symbol]                       0x08004ed8   Section        0  lib.o(.text._ZN9EmbSysLib2Hw8Uart_McuC2ENS1_8USART_IdEjhtt)
    [Anonymous Symbol]                       0x08005220   Section        0  lib.o(.text._ZN9EmbSysLib2Hw9I2Cmaster4readEhPhhS2_h)
    [Anonymous Symbol]                       0x080052d0   Section        0  lib.o(.text._ZN9EmbSysLib2Hw9I2Cmaster5writeEhPhhS2_h)
    [Anonymous Symbol]                       0x08005348   Section        0  main.o(.text._ZN9EmbSysLib2Hw9I2Cmaster6Device7isErrorEv)
    [Anonymous Symbol]                       0x08005358   Section        0  lib.o(.text._ZN9EmbSysLib2Hw9PinConfig3setENS1_8FunctionEj)
    [Anonymous Symbol]                       0x080054d8   Section        0  lib.o(.text._ZN9EmbSysLib2Hw9PinConfig3setEP12GPIO_TypeDefhjh)
    [Anonymous Symbol]                       0x08005598   Section        0  lib.o(.text._ZN9EmbSysLib2Hw9Timer_Mcu6setPWMEht)
    [Anonymous Symbol]                       0x08005630   Section        0  lib.o(.text._ZN9EmbSysLib2Hw9Timer_Mcu9enablePWMEhNS0_5Timer4ModeE)
    [Anonymous Symbol]                       0x080059c0   Section        0  lib.o(.text._ZN9EmbSysLib2Hw9Timer_McuC2ENS1_7TimerIdEj)
    [Anonymous Symbol]                       0x08005e10   Section        0  lib.o(.text._ZN9EmbSysLib3Dev10ScreenChar5clearEv)
    [Anonymous Symbol]                       0x08005e18   Section        0  lib.o(.text._ZN9EmbSysLib3Dev10ScreenChar6printfEhhPKcz)
    [Anonymous Symbol]                       0x08005e50   Section        0  lib.o(.text._ZN9EmbSysLib3Dev10ScreenChar7refreshEv)
    [Anonymous Symbol]                       0x08005e58   Section        0  lib.o(.text._ZN9EmbSysLib3Dev10ScreenCharC2ERNS_2Hw11DisplayCharE)
    [Anonymous Symbol]                       0x08005e90   Section        0  main.o(.text._ZN9EmbSysLib3Dev11TaskManager12getCycleTimeEv)
    [Anonymous Symbol]                       0x08005e98   Section        0  main.o(.text._ZN9EmbSysLib3Dev11TaskManager3addEPNS1_4TaskE)
    [Anonymous Symbol]                       0x08005ea0   Section        0  main.o(.text._ZN9EmbSysLib3Dev11TaskManager6updateEv)
    [Anonymous Symbol]                       0x08005eb0   Section        0  main.o(.text._ZN9EmbSysLib3Dev11TaskManager7getTicsEv)
    [Anonymous Symbol]                       0x08005eb8   Section        0  lib.o(.text._ZN9EmbSysLib3Dev13ScreenGraphic10drawBitmapEttRNS_2Hw6BitmapE)
    [Anonymous Symbol]                       0x08005ed8   Section        0  lib.o(.text._ZN9EmbSysLib3Dev13ScreenGraphic10drawCircleEtttt)
    [Anonymous Symbol]                       0x08005fc8   Section        0  lib.o(.text._ZN9EmbSysLib3Dev13ScreenGraphic10drawCircleEttttt)
    [Anonymous Symbol]                       0x080061a8   Section        0  lib.o(.text._ZN9EmbSysLib3Dev13ScreenGraphic12setBackColorEt)
    [Anonymous Symbol]                       0x080061b0   Section        0  lib.o(.text._ZN9EmbSysLib3Dev13ScreenGraphic12setTextColorEt)
    [Anonymous Symbol]                       0x080061b8   Section        0  lib.o(.text._ZN9EmbSysLib3Dev13ScreenGraphic13drawRectangleEttttt)
    [Anonymous Symbol]                       0x080061f0   Section        0  lib.o(.text._ZN9EmbSysLib3Dev13ScreenGraphic13drawRectangleEtttttt)
    [Anonymous Symbol]                       0x08006278   Section        0  lib.o(.text._ZN9EmbSysLib3Dev13ScreenGraphic5clearEv)
    [Anonymous Symbol]                       0x08006280   Section        0  lib.o(.text._ZN9EmbSysLib3Dev13ScreenGraphic6printfEhhPKcz)
    [Anonymous Symbol]                       0x080062b8   Section        0  lib.o(.text._ZN9EmbSysLib3Dev13ScreenGraphic7refreshEv)
    [Anonymous Symbol]                       0x080062c0   Section        0  lib.o(.text._ZN9EmbSysLib3Dev13ScreenGraphic7setFontENS_2Hw4FontEh)
    [Anonymous Symbol]                       0x080062e0   Section        0  lib.o(.text._ZN9EmbSysLib3Dev13ScreenGraphic7setZoomEh)
    [Anonymous Symbol]                       0x080062e8   Section        0  lib.o(.text._ZN9EmbSysLib3Dev13ScreenGraphic8drawLineEtttttt)
    [Anonymous Symbol]                       0x08006448   Section        0  lib.o(.text._ZN9EmbSysLib3Dev13ScreenGraphic8drawTextEttPKcz)
    [Anonymous Symbol]                       0x08006480   Section        0  lib.o(.text._ZN9EmbSysLib3Dev13ScreenGraphic9drawPixelEttt)
    [Anonymous Symbol]                       0x080064a8   Section        0  lib.o(.text._ZN9EmbSysLib3Dev13ScreenGraphicC2ERNS_2Hw14DisplayGraphicE)
    [Anonymous Symbol]                       0x080064d8   Section        0  lib.o(.text._ZN9EmbSysLib3Dev7Digital3clrEv)
    [Anonymous Symbol]                       0x080064e0   Section        0  lib.o(.text._ZN9EmbSysLib3Dev7Digital3getEv)
    [Anonymous Symbol]                       0x08006500   Section        0  lib.o(.text._ZN9EmbSysLib3Dev7Digital3setEb)
    [Anonymous Symbol]                       0x08006520   Section        0  lib.o(.text._ZN9EmbSysLib3Dev7Digital3setEv)
    [Anonymous Symbol]                       0x08006528   Section        0  lib.o(.text._ZN9EmbSysLib3Dev7Digital6toggleEv)
    [Anonymous Symbol]                       0x08006538   Section        0  lib.o(.text._ZN9EmbSysLib3Dev7Digital7setModeENS1_4ModeE)
    [Anonymous Symbol]                       0x08006558   Section        0  lib.o(.text._ZN9EmbSysLib3Dev7Digital8getEventEv)
    [Anonymous Symbol]                       0x08006580   Section        0  lib.o(.text._ZN9EmbSysLib3Dev7DigitalC2ERNS_2Hw4PortEhNS1_4ModeEb)
    [Anonymous Symbol]                       0x080065e0   Section        0  lib.o(.text._ZN9EmbSysLib3Dev7DigitalaSERS1_)
    [Anonymous Symbol]                       0x08006600   Section        0  lib.o(.text._ZN9EmbSysLib3Dev7DigitalaSEb)
    [Anonymous Symbol]                       0x08006610   Section        0  lib.o(.text._ZN9EmbSysLib3Dev7DigitalcvbEv)
    [Anonymous Symbol]                       0x08006618   Section        0  lib.o(.text._ZN9EmbSysLib3Dev7Pointer3getEv)
    [Anonymous Symbol]                       0x08006708   Section        0  lib.o(.text._ZN9EmbSysLib3Dev7PointerC2ERNS_2Hw5TouchE)
    [Anonymous Symbol]                       0x08006720   Section        0  lib.o(.text._ZN9EmbSysLib3Dev8Terminal6printfEPKcz)
    [Anonymous Symbol]                       0x08006760   Section        0  lib.o(.text._ZN9EmbSysLib3Dev8TerminalC2ERNS_2Hw4UartEttPKcS6_)
    [Anonymous Symbol]                       0x080067a8   Section        0  lib.o(.text._ZN9EmbSysLib3Std6Report5errorEt)
    [Anonymous Symbol]                       0x08006810   Section        0  lib.o(.text._ZN9EmbSysLib3Std6Report7HandlerC2Ev)
    [Anonymous Symbol]                       0x08006828   Section        0  lib.o(.text._ZN9EmbSysLib3Std6Report7HandlerD2Ev)
    [Anonymous Symbol]                       0x08006850   Section        0  lib.o(.text._ZN9EmbSysLib4Ctrl13DigitalButton6updateEv)
    [Anonymous Symbol]                       0x080068b0   Section        0  lib.o(.text._ZN9EmbSysLib4Ctrl13DigitalButtonC2ERNS_3Dev7DigitalERNS2_11TaskManagerEtt)
    [Anonymous Symbol]                       0x08006910   Section        0  lib.o(.text._ZN9EmbSysLib4Ctrl14DigitalEncoder6updateEv)
    [Anonymous Symbol]                       0x08006a98   Section        0  lib.o(.text._ZN9EmbSysLib4Ctrl14DigitalEncoder7getCtrlEv)
    [Anonymous Symbol]                       0x08006ac0   Section        0  lib.o(.text._ZN9EmbSysLib4Ctrl16DigitalIndicator3clrEv)
    [Anonymous Symbol]                       0x08006ad8   Section        0  lib.o(.text._ZN9EmbSysLib4Ctrl16DigitalIndicator6updateEv)
    [Anonymous Symbol]                       0x08006b28   Section        0  lib.o(.text._ZN9EmbSysLib4Ctrl16DigitalIndicator7triggerEt)
    [Anonymous Symbol]                       0x08006b40   Section        0  lib.o(.text._ZN9EmbSysLib4Ctrl16DigitalIndicatorC2ERNS_3Dev7DigitalERNS2_11TaskManagerE)
    [Anonymous Symbol]                       0x08006b80   Section        0  lib.o(.text._ZN9EmbSysLib4Ctrl22DigitalEncoderJoystick12getIncrementEv)
    [Anonymous Symbol]                       0x08006bf0   Section        0  lib.o(.text._ZN9EmbSysLib4Ctrl22DigitalEncoderJoystickC2EPNS_3Dev7DigitalES4_S4_RNS2_11TaskManagerEt)
    [Anonymous Symbol]                       0x08006c60   Section        0  lib.o(.text._ZNK9EmbSysLib2Hw6Bitmap8getWidthEv)
    [Anonymous Symbol]                       0x08006c68   Section        0  lib.o(.text._ZNK9EmbSysLib2Hw6Memory7getSizeEv)
    [Anonymous Symbol]                       0x08006c70   Section        0  lib.o(.text._ZNK9EmbSysLib2Hw6Memory7isFlashEv)
    [Anonymous Symbol]                       0x08006c74   Section        0  cxa_handlers.cpp.o(.text._ZSt15get_new_handlerv)
    [Anonymous Symbol]                       0x08006c80   Section        0  new.cpp.o(.text._Znaj)
    [Anonymous Symbol]                       0x08006c84   Section        0  new.cpp.o(.text._Znwj)
    [Anonymous Symbol]                       0x08006cac   Section        0  cxa_virtual.cpp.o(.text.__cxa_pure_virtual)
    [Anonymous Symbol]                       0x08006cd4   Section        0  abort_message.cpp.o(.text.abort_message)
    [Anonymous Symbol]                       0x08006cd8   Section        0  main.o(.text.main)
    CL$$btod_d2e                             0x08006f9c   Section       62  btod.o(CL$$btod_d2e)
    CL$$btod_d2e_denorm_low                  0x08006fda   Section       70  btod.o(CL$$btod_d2e_denorm_low)
    CL$$btod_d2e_norm_op1                    0x08007020   Section       96  btod.o(CL$$btod_d2e_norm_op1)
    CL$$btod_div_common                      0x08007080   Section      824  btod.o(CL$$btod_div_common)
    CL$$btod_e2e                             0x080073b8   Section      220  btod.o(CL$$btod_e2e)
    CL$$btod_ediv                            0x08007494   Section       42  btod.o(CL$$btod_ediv)
    CL$$btod_emul                            0x080074be   Section       42  btod.o(CL$$btod_emul)
    CL$$btod_mult_common                     0x080074e8   Section      580  btod.o(CL$$btod_mult_common)
    i.__ARM_fpclassify                       0x0800772c   Section        0  fpclassify.o(i.__ARM_fpclassify)
    i._is_digit                              0x0800775c   Section        0  __printf_wp.o(i._is_digit)
    locale$$code                             0x0800776c   Section       44  lc_numeric_c.o(locale$$code)
    locale$$code                             0x08007798   Section       44  lc_ctype_c.o(locale$$code)
    $v0                                      0x080077c4   Number         0  d2f.o(x$fpl$d2f)
    x$fpl$d2f                                0x080077c4   Section       98  d2f.o(x$fpl$d2f)
    $v0                                      0x08007828   Number         0  ddiv.o(x$fpl$ddiv)
    x$fpl$ddiv                               0x08007828   Section      692  ddiv.o(x$fpl$ddiv)
    ddiv_entry                               0x0800782f   Thumb Code     0  ddiv.o(x$fpl$ddiv)
    $v0                                      0x08007adc   Number         0  dfix.o(x$fpl$dfix)
    x$fpl$dfix                               0x08007adc   Section       94  dfix.o(x$fpl$dfix)
    $v0                                      0x08007b3c   Number         0  dfixu.o(x$fpl$dfixu)
    x$fpl$dfixu                              0x08007b3c   Section       90  dfixu.o(x$fpl$dfixu)
    $v0                                      0x08007b96   Number         0  dflt_clz.o(x$fpl$dfltu)
    x$fpl$dfltu                              0x08007b96   Section       38  dflt_clz.o(x$fpl$dfltu)
    $v0                                      0x08007bbc   Number         0  dmul.o(x$fpl$dmul)
    x$fpl$dmul                               0x08007bbc   Section      340  dmul.o(x$fpl$dmul)
    $v0                                      0x08007d10   Number         0  dnaninf.o(x$fpl$dnaninf)
    x$fpl$dnaninf                            0x08007d10   Section      156  dnaninf.o(x$fpl$dnaninf)
    $v0                                      0x08007dac   Number         0  dretinf.o(x$fpl$dretinf)
    x$fpl$dretinf                            0x08007dac   Section       12  dretinf.o(x$fpl$dretinf)
    $v0                                      0x08007db8   Number         0  fpinit.o(x$fpl$fpinit)
    x$fpl$fpinit                             0x08007db8   Section       26  fpinit.o(x$fpl$fpinit)
    $v0                                      0x08007dd2   Number         0  fretinf.o(x$fpl$fretinf)
    x$fpl$fretinf                            0x08007dd2   Section       10  fretinf.o(x$fpl$fretinf)
    $v0                                      0x08007ddc   Number         0  printf1.o(x$fpl$printf1)
    x$fpl$printf1                            0x08007ddc   Section        4  printf1.o(x$fpl$printf1)
    $v0                                      0x08007de0   Number         0  printf2.o(x$fpl$printf2)
    x$fpl$printf2                            0x08007de0   Section        4  printf2.o(x$fpl$printf2)
    initial_mbstate                          0x08007de4   Data           8  _printf_wctomb.o(.constdata)
    .constdata                               0x08007de4   Section        8  _printf_wctomb.o(.constdata)
    x$fpl$usenofp                            0x08007de4   Section        0  usenofp.o(x$fpl$usenofp)
    uc_hextab                                0x08007dec   Data          20  _printf_hex_int_ll_ptr.o(.constdata)
    .constdata                               0x08007dec   Section       40  _printf_hex_int_ll_ptr.o(.constdata)
    lc_hextab                                0x08007e00   Data          20  _printf_hex_int_ll_ptr.o(.constdata)
    maptable                                 0x08007e14   Data          17  __printf_flags_ss_wp.o(.constdata)
    .constdata                               0x08007e14   Section       17  __printf_flags_ss_wp.o(.constdata)
    lc_hextab                                0x08007e25   Data          19  _printf_fp_hex.o(.constdata)
    .constdata                               0x08007e25   Section       38  _printf_fp_hex.o(.constdata)
    uc_hextab                                0x08007e38   Data          19  _printf_fp_hex.o(.constdata)
    tenpwrs_x                                0x08007e4c   Data          60  bigflt0.o(.constdata)
    .constdata                               0x08007e4c   Section      148  bigflt0.o(.constdata)
    tenpwrs_i                                0x08007e88   Data          64  bigflt0.o(.constdata)
    .Lswitch.table._ZN9EmbSysLib2Hw12Memory_FlashC2Ehh 0x08007ee0   Data          48  lib.o(.rodata..Lswitch.table._ZN9EmbSysLib2Hw12Memory_FlashC2Ehh)
    locale$$data                             0x08008330   Section       28  lc_numeric_c.o(locale$$data)
    __lcnum_c_name                           0x08008334   Data           2  lc_numeric_c.o(locale$$data)
    __lcnum_c_start                          0x0800833c   Data           0  lc_numeric_c.o(locale$$data)
    __lcnum_c_point                          0x08008348   Data           0  lc_numeric_c.o(locale$$data)
    __lcnum_c_thousands                      0x0800834a   Data           0  lc_numeric_c.o(locale$$data)
    __lcnum_c_grouping                       0x0800834b   Data           0  lc_numeric_c.o(locale$$data)
    __lcnum_c_end                            0x0800834c   Data           0  lc_numeric_c.o(locale$$data)
    locale$$data                             0x0800834c   Section      272  lc_ctype_c.o(locale$$data)
    __lcctype_c_name                         0x08008350   Data           2  lc_ctype_c.o(locale$$data)
    __lcctype_c_start                        0x08008358   Data           0  lc_ctype_c.o(locale$$data)
    __lcctype_c_end                          0x0800845c   Data           0  lc_ctype_c.o(locale$$data)
    .init_array                              0x08008460   Section        0  init_aeabi.o(.init_array)
    .bss                                     0x20020108   Section       96  libspace.o(.bss)
    PendSV_Handler::stackPointer             0x200201d4   Data           4  lib.o(.bss._ZZ14PendSV_HandlerE12stackPointer)
    [Anonymous Symbol]                       0x200201d4   Section        0  lib.o(.bss._ZZ14PendSV_HandlerE12stackPointer)
    SysTick_Handler::stackPointer            0x200201d8   Data           4  lib.o(.bss._ZZ15SysTick_HandlerE12stackPointer)
    [Anonymous Symbol]                       0x200201d8   Section        0  lib.o(.bss._ZZ15SysTick_HandlerE12stackPointer)
    Heap_Mem                                 0x200204b0   Data        8192  startup.o(HEAP)
    HEAP                                     0x200204b0   Section     8192  startup.o(HEAP)
    Stack_Mem                                0x200224b0   Data        8192  startup.o(STACK)
    STACK                                    0x200224b0   Section     8192  startup.o(STACK)
    __initial_sp                             0x200244b0   Data           0  startup.o(STACK)

    Global Symbols

    Symbol Name                              Value     Ov Type        Size  Object(Section)

    BuildAttributes$$THM_ISAv4$E$P$D$K$B$S$7EM$VFPi5$EXTD16$VFPS$VFMA$PE$PLD8$A:L22UL41UL21$X:L11$S22US41US21$IEEE1$IW$~IW$USESV6$~STKCKD$USESV7$WCHAR32$ENUMINT$~SHL$OTIME$ROPI$IEEEJ$EBA8$UX$STANDARDLIB$REQ8$PRES8$EABIv2 0x00000000   Number         0  anon$$obj.o ABSOLUTE
    _printf_flags                            0x00000000   Number         0  printf_stubs.o ABSOLUTE
    _printf_return_value                     0x00000000   Number         0  printf_stubs.o ABSOLUTE
    _printf_sizespec                         0x00000000   Number         0  printf_stubs.o ABSOLUTE
    _printf_widthprec                        0x00000000   Number         0  printf_stubs.o ABSOLUTE
    __ARM_exceptions_init                     - Undefined Weak Reference
    __alloca_initialize                       - Undefined Weak Reference
    __arm_preinit_                            - Undefined Weak Reference
    __arm_relocate_pie_                       - Undefined Weak Reference
    __sigvec_lookup                           - Undefined Weak Reference
    __user_heap_extent                        - Undefined Weak Reference
    _atexit_init                              - Undefined Weak Reference
    _call_atexit_fns                          - Undefined Weak Reference
    _clock_init                               - Undefined Weak Reference
    _fp_trap_init                             - Undefined Weak Reference
    _fp_trap_shutdown                         - Undefined Weak Reference
    _get_lc_collate                           - Undefined Weak Reference
    _get_lc_monetary                          - Undefined Weak Reference
    _get_lc_time                              - Undefined Weak Reference
    _getenv_init                              - Undefined Weak Reference
    _handle_redirection                       - Undefined Weak Reference
    _initio                                   - Undefined Weak Reference
    _mutex_acquire                            - Undefined Weak Reference
    _mutex_free                               - Undefined Weak Reference
    _mutex_release                            - Undefined Weak Reference
    _printf_mbtowc                            - Undefined Weak Reference
    _printf_wc                                - Undefined Weak Reference
    _rand_init                                - Undefined Weak Reference
    _signal_finish                            - Undefined Weak Reference
    _signal_init                              - Undefined Weak Reference
    _terminateio                              - Undefined Weak Reference
    __Vectors_Size                           0x000001f8   Number         0  startup.o ABSOLUTE
    __Vectors                                0x08000000   Data           4  startup.o(RESET)
    __dso_handle                             0x08000000   Number         0  startup.o(RESET)
    __Vectors_End                            0x080001f8   Data           0  startup.o(RESET)
    __main                                   0x080001f9   Thumb Code     8  __main.o(!!!main)
    __scatterload                            0x08000201   Thumb Code     0  __scatter.o(!!!scatter)
    __scatterload_rt2                        0x08000201   Thumb Code    44  __scatter.o(!!!scatter)
    __scatterload_rt2_thumb_only             0x08000201   Thumb Code     0  __scatter.o(!!!scatter)
    __scatterload_null                       0x0800020f   Thumb Code     0  __scatter.o(!!!scatter)
    __scatterload_copy                       0x08000235   Thumb Code    26  __scatter_copy.o(!!handler_copy)
    __scatterload_zeroinit                   0x08000251   Thumb Code    28  __scatter_zi.o(!!handler_zi)
    _printf_n                                0x0800026d   Thumb Code     0  _printf_n.o(.ARM.Collect$$_printf_percent$$00000001)
    _printf_percent                          0x0800026d   Thumb Code     0  _printf_percent.o(.ARM.Collect$$_printf_percent$$00000000)
    _printf_p                                0x08000273   Thumb Code     0  _printf_p.o(.ARM.Collect$$_printf_percent$$00000002)
    _printf_f                                0x08000279   Thumb Code     0  _printf_f.o(.ARM.Collect$$_printf_percent$$00000003)
    _printf_e                                0x0800027f   Thumb Code     0  _printf_e.o(.ARM.Collect$$_printf_percent$$00000004)
    _printf_g                                0x08000285   Thumb Code     0  _printf_g.o(.ARM.Collect$$_printf_percent$$00000005)
    _printf_a                                0x0800028b   Thumb Code     0  _printf_a.o(.ARM.Collect$$_printf_percent$$00000006)
    _printf_ll                               0x08000291   Thumb Code     0  _printf_ll.o(.ARM.Collect$$_printf_percent$$00000007)
    _printf_i                                0x0800029b   Thumb Code     0  _printf_i.o(.ARM.Collect$$_printf_percent$$00000008)
    _printf_d                                0x080002a1   Thumb Code     0  _printf_d.o(.ARM.Collect$$_printf_percent$$00000009)
    _printf_u                                0x080002a7   Thumb Code     0  _printf_u.o(.ARM.Collect$$_printf_percent$$0000000A)
    _printf_o                                0x080002ad   Thumb Code     0  _printf_o.o(.ARM.Collect$$_printf_percent$$0000000B)
    _printf_x                                0x080002b3   Thumb Code     0  _printf_x.o(.ARM.Collect$$_printf_percent$$0000000C)
    _printf_lli                              0x080002b9   Thumb Code     0  _printf_lli.o(.ARM.Collect$$_printf_percent$$0000000D)
    _printf_lld                              0x080002bf   Thumb Code     0  _printf_lld.o(.ARM.Collect$$_printf_percent$$0000000E)
    _printf_llu                              0x080002c5   Thumb Code     0  _printf_llu.o(.ARM.Collect$$_printf_percent$$0000000F)
    _printf_llo                              0x080002cb   Thumb Code     0  _printf_llo.o(.ARM.Collect$$_printf_percent$$00000010)
    _printf_llx                              0x080002d1   Thumb Code     0  _printf_llx.o(.ARM.Collect$$_printf_percent$$00000011)
    _printf_l                                0x080002d7   Thumb Code     0  _printf_l.o(.ARM.Collect$$_printf_percent$$00000012)
    _printf_c                                0x080002e1   Thumb Code     0  _printf_c.o(.ARM.Collect$$_printf_percent$$00000013)
    _printf_s                                0x080002e7   Thumb Code     0  _printf_s.o(.ARM.Collect$$_printf_percent$$00000014)
    _printf_lc                               0x080002ed   Thumb Code     0  _printf_lc.o(.ARM.Collect$$_printf_percent$$00000015)
    _printf_ls                               0x080002f3   Thumb Code     0  _printf_ls.o(.ARM.Collect$$_printf_percent$$00000016)
    _printf_percent_end                      0x080002f9   Thumb Code     0  _printf_percent_end.o(.ARM.Collect$$_printf_percent$$00000017)
    __rt_lib_init                            0x080002fd   Thumb Code     0  libinit.o(.ARM.Collect$$libinit$$00000000)
    __rt_lib_init_fp_1                       0x080002ff   Thumb Code     0  libinit2.o(.ARM.Collect$$libinit$$00000001)
    __rt_lib_init_heap_2                     0x08000303   Thumb Code     0  libinit2.o(.ARM.Collect$$libinit$$00000007)
    __rt_lib_init_preinit_1                  0x08000303   Thumb Code     0  libinit2.o(.ARM.Collect$$libinit$$00000006)
    __rt_lib_init_relocate_pie_1             0x08000303   Thumb Code     0  libinit2.o(.ARM.Collect$$libinit$$00000004)
    __rt_lib_init_heap_1                     0x0800030b   Thumb Code     0  libinit2.o(.ARM.Collect$$libinit$$0000000C)
    __rt_lib_init_lc_common                  0x0800030b   Thumb Code     0  libinit2.o(.ARM.Collect$$libinit$$00000011)
    __rt_lib_init_rand_1                     0x0800030b   Thumb Code     0  libinit2.o(.ARM.Collect$$libinit$$00000010)
    __rt_lib_init_user_alloc_1               0x0800030b   Thumb Code     0  libinit2.o(.ARM.Collect$$libinit$$0000000E)
    __rt_lib_init_lc_collate_1               0x08000311   Thumb Code     0  libinit2.o(.ARM.Collect$$libinit$$00000013)
    __rt_lib_init_lc_ctype_2                 0x08000311   Thumb Code     0  libinit2.o(.ARM.Collect$$libinit$$00000014)
    __rt_lib_init_lc_ctype_1                 0x0800031d   Thumb Code     0  libinit2.o(.ARM.Collect$$libinit$$00000015)
    __rt_lib_init_lc_monetary_1              0x0800031d   Thumb Code     0  libinit2.o(.ARM.Collect$$libinit$$00000017)
    __rt_lib_init_lc_numeric_2               0x0800031d   Thumb Code     0  libinit2.o(.ARM.Collect$$libinit$$00000018)
    __rt_lib_init_alloca_1                   0x08000327   Thumb Code     0  libinit2.o(.ARM.Collect$$libinit$$00000030)
    __rt_lib_init_argv_1                     0x08000327   Thumb Code     0  libinit2.o(.ARM.Collect$$libinit$$0000002E)
    __rt_lib_init_atexit_1                   0x08000327   Thumb Code     0  libinit2.o(.ARM.Collect$$libinit$$0000001D)
    __rt_lib_init_clock_1                    0x08000327   Thumb Code     0  libinit2.o(.ARM.Collect$$libinit$$00000023)
    __rt_lib_init_cpp_2                      0x08000327   Thumb Code     0  libinit2.o(.ARM.Collect$$libinit$$00000033)
    __rt_lib_init_exceptions_1               0x08000327   Thumb Code     0  libinit2.o(.ARM.Collect$$libinit$$00000032)
    __rt_lib_init_fp_trap_1                  0x08000327   Thumb Code     0  libinit2.o(.ARM.Collect$$libinit$$00000021)
    __rt_lib_init_getenv_1                   0x08000327   Thumb Code     0  libinit2.o(.ARM.Collect$$libinit$$00000025)
    __rt_lib_init_lc_numeric_1               0x08000327   Thumb Code     0  libinit2.o(.ARM.Collect$$libinit$$00000019)
    __rt_lib_init_lc_time_1                  0x08000327   Thumb Code     0  libinit2.o(.ARM.Collect$$libinit$$0000001B)
    __rt_lib_init_signal_1                   0x08000327   Thumb Code     0  libinit2.o(.ARM.Collect$$libinit$$0000001F)
    __rt_lib_init_stdio_1                    0x08000327   Thumb Code     0  libinit2.o(.ARM.Collect$$libinit$$00000027)
    __rt_lib_init_cpp_1                      0x0800032b   Thumb Code     0  libinit2.o(.ARM.Collect$$libinit$$00000034)
    __rt_lib_init_return                     0x0800032b   Thumb Code     0  libinit2.o(.ARM.Collect$$libinit$$00000035)
    __rt_lib_shutdown                        0x0800032d   Thumb Code     0  libshutdown.o(.ARM.Collect$$libshutdown$$00000000)
    __rt_lib_shutdown_cpp_2                  0x0800032f   Thumb Code     0  libshutdown2.o(.ARM.Collect$$libshutdown$$00000001)
    __rt_lib_shutdown_cpp_1                  0x08000335   Thumb Code     0  libshutdown2.o(.ARM.Collect$$libshutdown$$00000002)
    __rt_lib_shutdown_fp_trap_1              0x08000335   Thumb Code     0  libshutdown2.o(.ARM.Collect$$libshutdown$$00000007)
    __rt_lib_shutdown_heap_1                 0x08000335   Thumb Code     0  libshutdown2.o(.ARM.Collect$$libshutdown$$0000000F)
    __rt_lib_shutdown_return                 0x08000335   Thumb Code     0  libshutdown2.o(.ARM.Collect$$libshutdown$$00000010)
    __rt_lib_shutdown_signal_1               0x08000335   Thumb Code     0  libshutdown2.o(.ARM.Collect$$libshutdown$$0000000A)
    __rt_lib_shutdown_stdio_1                0x08000335   Thumb Code     0  libshutdown2.o(.ARM.Collect$$libshutdown$$00000004)
    __rt_lib_shutdown_user_alloc_1           0x08000335   Thumb Code     0  libshutdown2.o(.ARM.Collect$$libshutdown$$0000000C)
    __rt_entry                               0x08000337   Thumb Code     0  __rtentry.o(.ARM.Collect$$rtentry$$00000000)
    __rt_entry_presh_1                       0x08000337   Thumb Code     0  __rtentry2.o(.ARM.Collect$$rtentry$$00000002)
    __rt_entry_sh                            0x08000337   Thumb Code     0  __rtentry4.o(.ARM.Collect$$rtentry$$00000004)
    __rt_entry_li                            0x0800033d   Thumb Code     0  __rtentry2.o(.ARM.Collect$$rtentry$$0000000A)
    __rt_entry_postsh_1                      0x0800033d   Thumb Code     0  __rtentry2.o(.ARM.Collect$$rtentry$$00000009)
    __rt_entry_main                          0x08000341   Thumb Code     0  __rtentry2.o(.ARM.Collect$$rtentry$$0000000D)
    __rt_entry_postli_1                      0x08000341   Thumb Code     0  __rtentry2.o(.ARM.Collect$$rtentry$$0000000C)
    __rt_exit                                0x08000349   Thumb Code     0  rtexit.o(.ARM.Collect$$rtexit$$00000000)
    __rt_exit_ls                             0x0800034b   Thumb Code     0  rtexit2.o(.ARM.Collect$$rtexit$$00000003)
    __rt_exit_prels_1                        0x0800034b   Thumb Code     0  rtexit2.o(.ARM.Collect$$rtexit$$00000002)
    __rt_exit_exit                           0x0800034f   Thumb Code     0  rtexit2.o(.ARM.Collect$$rtexit$$00000004)
    Reset_Handler                            0x08000355   Thumb Code     8  startup.o(.text)
    NMI_Handler                              0x0800035d   Thumb Code     2  startup.o(.text)
    HardFault_Handler                        0x0800035f   Thumb Code     2  startup.o(.text)
    MemManage_Handler                        0x08000361   Thumb Code     2  startup.o(.text)
    BusFault_Handler                         0x08000363   Thumb Code     2  startup.o(.text)
    UsageFault_Handler                       0x08000365   Thumb Code     2  startup.o(.text)
    SVC_Handler                              0x08000367   Thumb Code     2  startup.o(.text)
    DebugMon_Handler                         0x08000369   Thumb Code     2  startup.o(.text)
    CAN1_RX0_IRQHandler                      0x0800036f   Thumb Code     0  startup.o(.text)
    CAN1_RX1_IRQHandler                      0x0800036f   Thumb Code     0  startup.o(.text)
    CAN1_SCE_IRQHandler                      0x0800036f   Thumb Code     0  startup.o(.text)
    CAN1_TX_IRQHandler                       0x0800036f   Thumb Code     0  startup.o(.text)
    CAN2_RX0_IRQHandler                      0x0800036f   Thumb Code     0  startup.o(.text)
    CAN2_RX1_IRQHandler                      0x0800036f   Thumb Code     0  startup.o(.text)
    CAN2_SCE_IRQHandler                      0x0800036f   Thumb Code     0  startup.o(.text)
    CAN2_TX_IRQHandler                       0x0800036f   Thumb Code     0  startup.o(.text)
    CAN3_RX0_IRQHandler                      0x0800036f   Thumb Code     0  startup.o(.text)
    CAN3_RX1_IRQHandler                      0x0800036f   Thumb Code     0  startup.o(.text)
    CAN3_SCE_IRQHandler                      0x0800036f   Thumb Code     0  startup.o(.text)
    CAN3_TX_IRQHandler                       0x0800036f   Thumb Code     0  startup.o(.text)
    CEC_IRQHandler                           0x0800036f   Thumb Code     0  startup.o(.text)
    DCMI_IRQHandler                          0x0800036f   Thumb Code     0  startup.o(.text)
    DFSDM1_FLT0_IRQHandler                   0x0800036f   Thumb Code     0  startup.o(.text)
    DFSDM1_FLT1_IRQHandler                   0x0800036f   Thumb Code     0  startup.o(.text)
    DFSDM1_FLT2_IRQHandler                   0x0800036f   Thumb Code     0  startup.o(.text)
    DFSDM1_FLT3_IRQHandler                   0x0800036f   Thumb Code     0  startup.o(.text)
    DMA1_Stream0_IRQHandler                  0x0800036f   Thumb Code     0  startup.o(.text)
    DMA1_Stream1_IRQHandler                  0x0800036f   Thumb Code     0  startup.o(.text)
    DMA1_Stream2_IRQHandler                  0x0800036f   Thumb Code     0  startup.o(.text)
    DMA1_Stream3_IRQHandler                  0x0800036f   Thumb Code     0  startup.o(.text)
    DMA1_Stream4_IRQHandler                  0x0800036f   Thumb Code     0  startup.o(.text)
    DMA1_Stream5_IRQHandler                  0x0800036f   Thumb Code     0  startup.o(.text)
    DMA1_Stream6_IRQHandler                  0x0800036f   Thumb Code     0  startup.o(.text)
    DMA1_Stream7_IRQHandler                  0x0800036f   Thumb Code     0  startup.o(.text)
    DMA2D_IRQHandler                         0x0800036f   Thumb Code     0  startup.o(.text)
    DMA2_Stream0_IRQHandler                  0x0800036f   Thumb Code     0  startup.o(.text)
    DMA2_Stream1_IRQHandler                  0x0800036f   Thumb Code     0  startup.o(.text)
    DMA2_Stream2_IRQHandler                  0x0800036f   Thumb Code     0  startup.o(.text)
    DMA2_Stream3_IRQHandler                  0x0800036f   Thumb Code     0  startup.o(.text)
    DMA2_Stream4_IRQHandler                  0x0800036f   Thumb Code     0  startup.o(.text)
    DMA2_Stream5_IRQHandler                  0x0800036f   Thumb Code     0  startup.o(.text)
    DMA2_Stream6_IRQHandler                  0x0800036f   Thumb Code     0  startup.o(.text)
    DMA2_Stream7_IRQHandler                  0x0800036f   Thumb Code     0  startup.o(.text)
    DSI_IRQHandler                           0x0800036f   Thumb Code     0  startup.o(.text)
    ETH_IRQHandler                           0x0800036f   Thumb Code     0  startup.o(.text)
    ETH_WKUP_IRQHandler                      0x0800036f   Thumb Code     0  startup.o(.text)
    EXTI0_IRQHandler                         0x0800036f   Thumb Code     0  startup.o(.text)
    EXTI15_10_IRQHandler                     0x0800036f   Thumb Code     0  startup.o(.text)
    EXTI1_IRQHandler                         0x0800036f   Thumb Code     0  startup.o(.text)
    EXTI2_IRQHandler                         0x0800036f   Thumb Code     0  startup.o(.text)
    EXTI3_IRQHandler                         0x0800036f   Thumb Code     0  startup.o(.text)
    EXTI4_IRQHandler                         0x0800036f   Thumb Code     0  startup.o(.text)
    EXTI9_5_IRQHandler                       0x0800036f   Thumb Code     0  startup.o(.text)
    FLASH_IRQHandler                         0x0800036f   Thumb Code     0  startup.o(.text)
    FMC_IRQHandler                           0x0800036f   Thumb Code     0  startup.o(.text)
    FPU_IRQHandler                           0x0800036f   Thumb Code     0  startup.o(.text)
    I2C1_ER_IRQHandler                       0x0800036f   Thumb Code     0  startup.o(.text)
    I2C1_EV_IRQHandler                       0x0800036f   Thumb Code     0  startup.o(.text)
    I2C2_ER_IRQHandler                       0x0800036f   Thumb Code     0  startup.o(.text)
    I2C2_EV_IRQHandler                       0x0800036f   Thumb Code     0  startup.o(.text)
    I2C3_ER_IRQHandler                       0x0800036f   Thumb Code     0  startup.o(.text)
    I2C3_EV_IRQHandler                       0x0800036f   Thumb Code     0  startup.o(.text)
    I2C4_ER_IRQHandler                       0x0800036f   Thumb Code     0  startup.o(.text)
    I2C4_EV_IRQHandler                       0x0800036f   Thumb Code     0  startup.o(.text)
    JPEG_IRQHandler                          0x0800036f   Thumb Code     0  startup.o(.text)
    LPTIM1_IRQHandler                        0x0800036f   Thumb Code     0  startup.o(.text)
    LTDC_ER_IRQHandler                       0x0800036f   Thumb Code     0  startup.o(.text)
    LTDC_IRQHandler                          0x0800036f   Thumb Code     0  startup.o(.text)
    MDIOS_IRQHandler                         0x0800036f   Thumb Code     0  startup.o(.text)
    OTG_FS_WKUP_IRQHandler                   0x0800036f   Thumb Code     0  startup.o(.text)
    OTG_HS_EP1_IN_IRQHandler                 0x0800036f   Thumb Code     0  startup.o(.text)
    OTG_HS_EP1_OUT_IRQHandler                0x0800036f   Thumb Code     0  startup.o(.text)
    OTG_HS_IRQHandler                        0x0800036f   Thumb Code     0  startup.o(.text)
    OTG_HS_WKUP_IRQHandler                   0x0800036f   Thumb Code     0  startup.o(.text)
    PVD_IRQHandler                           0x0800036f   Thumb Code     0  startup.o(.text)
    QUADSPI_IRQHandler                       0x0800036f   Thumb Code     0  startup.o(.text)
    RCC_IRQHandler                           0x0800036f   Thumb Code     0  startup.o(.text)
    RNG_IRQHandler                           0x0800036f   Thumb Code     0  startup.o(.text)
    RTC_Alarm_IRQHandler                     0x0800036f   Thumb Code     0  startup.o(.text)
    RTC_WKUP_IRQHandler                      0x0800036f   Thumb Code     0  startup.o(.text)
    SAI1_IRQHandler                          0x0800036f   Thumb Code     0  startup.o(.text)
    SAI2_IRQHandler                          0x0800036f   Thumb Code     0  startup.o(.text)
    SDMMC1_IRQHandler                        0x0800036f   Thumb Code     0  startup.o(.text)
    SDMMC2_IRQHandler                        0x0800036f   Thumb Code     0  startup.o(.text)
    SPDIF_RX_IRQHandler                      0x0800036f   Thumb Code     0  startup.o(.text)
    SPI1_IRQHandler                          0x0800036f   Thumb Code     0  startup.o(.text)
    SPI2_IRQHandler                          0x0800036f   Thumb Code     0  startup.o(.text)
    SPI3_IRQHandler                          0x0800036f   Thumb Code     0  startup.o(.text)
    SPI4_IRQHandler                          0x0800036f   Thumb Code     0  startup.o(.text)
    SPI5_IRQHandler                          0x0800036f   Thumb Code     0  startup.o(.text)
    SPI6_IRQHandler                          0x0800036f   Thumb Code     0  startup.o(.text)
    TAMP_STAMP_IRQHandler                    0x0800036f   Thumb Code     0  startup.o(.text)
    TIM1_BRK_TIM9_IRQHandler                 0x0800036f   Thumb Code     0  startup.o(.text)
    TIM1_CC_IRQHandler                       0x0800036f   Thumb Code     0  startup.o(.text)
    TIM6_DAC_IRQHandler                      0x0800036f   Thumb Code     0  startup.o(.text)
    TIM8_BRK_TIM12_IRQHandler                0x0800036f   Thumb Code     0  startup.o(.text)
    TIM8_UP_TIM13_IRQHandler                 0x0800036f   Thumb Code     0  startup.o(.text)
    UART7_IRQHandler                         0x0800036f   Thumb Code     0  startup.o(.text)
    UART8_IRQHandler                         0x0800036f   Thumb Code     0  startup.o(.text)
    WWDG_IRQHandler                          0x0800036f   Thumb Code     0  startup.o(.text)
    __user_initial_stackheap                 0x08000371   Thumb Code     0  startup.o(.text)
    save_context                             0x08000395   Thumb Code    22  startup.o(.text)
    load_context                             0x080003ab   Thumb Code    22  startup.o(.text)
    vsnprintf                                0x080003c1   Thumb Code    56  vsnprintf.o(.text)
    __cxa_atexit                             0x080003fd   Thumb Code    10  cxa_atexit.o(.text)
    strlen                                   0x08000407   Thumb Code    62  strlen.o(.text)
    strcmp                                   0x08000449   Thumb Code   124  strcmpv7m_pel.o(.text)
    __use_two_region_memory                  0x080004c5   Thumb Code     2  heapauxi.o(.text)
    __rt_heap_escrow                         0x080004c7   Thumb Code     2  heapauxi.o(.text)
    __rt_heap_expand                         0x080004c9   Thumb Code     2  heapauxi.o(.text)
    __cpp_initialize__aeabi_                 0x080004cd   Thumb Code    28  init_aeabi.o(.text)
    malloc                                   0x080004f1   Thumb Code    94  h1_alloc.o(.text)
    free                                     0x0800054f   Thumb Code    78  h1_free.o(.text)
    _printf_pre_padding                      0x0800059d   Thumb Code    44  _printf_pad.o(.text)
    _printf_post_padding                     0x080005c9   Thumb Code    34  _printf_pad.o(.text)
    _printf_truncate_signed                  0x080005eb   Thumb Code    18  _printf_truncate.o(.text)
    _printf_truncate_unsigned                0x080005fd   Thumb Code    18  _printf_truncate.o(.text)
    _printf_str                              0x0800060f   Thumb Code    82  _printf_str.o(.text)
    _printf_int_dec                          0x08000661   Thumb Code   104  _printf_dec.o(.text)
    _printf_charcount                        0x080006d9   Thumb Code    40  _printf_charcount.o(.text)
    _printf_char_common                      0x0800070b   Thumb Code    32  _printf_char_common.o(.text)
    _snputc                                  0x08000731   Thumb Code    16  _snputc.o(.text)
    _printf_wctomb                           0x08000741   Thumb Code   182  _printf_wctomb.o(.text)
    _printf_longlong_dec                     0x080007fd   Thumb Code   108  _printf_longlong_dec.o(.text)
    _printf_longlong_oct                     0x08000879   Thumb Code    68  _printf_oct_int_ll.o(.text)
    _printf_int_oct                          0x080008bd   Thumb Code    24  _printf_oct_int_ll.o(.text)
    _printf_ll_oct                           0x080008d5   Thumb Code    12  _printf_oct_int_ll.o(.text)
    _printf_longlong_hex                     0x080008e9   Thumb Code    86  _printf_hex_int_ll_ptr.o(.text)
    _printf_int_hex                          0x0800093f   Thumb Code    28  _printf_hex_int_ll_ptr.o(.text)
    _printf_ll_hex                           0x0800095b   Thumb Code    12  _printf_hex_int_ll_ptr.o(.text)
    _printf_hex_ptr                          0x08000967   Thumb Code    18  _printf_hex_int_ll_ptr.o(.text)
    __printf                                 0x0800097d   Thumb Code   388  __printf_flags_ss_wp.o(.text)
    abort                                    0x08000b05   Thumb Code    22  abort.o(.text)
    __aeabi_atexit                           0x08000b1b   Thumb Code    46  aeabi_atexit.o(.text)
    _sys_exit                                0x08000b49   Thumb Code     8  sys_exit.o(.text)
    __rt_heap_descriptor                     0x08000b55   Thumb Code     8  rt_heap_descriptor_intlibspace.o(.text)
    __rt_ddtor_pointer_addr                  0x08000b5d   Thumb Code     8  rt_ddtor_pointer_addr_intlibspace.o(.text)
    __use_no_heap                            0x08000b65   Thumb Code     2  hguard.o(.text)
    __heap$guard                             0x08000b67   Thumb Code     2  hguard.o(.text)
    _terminate_user_alloc                    0x08000b69   Thumb Code     2  init_alloc.o(.text)
    _init_user_alloc                         0x08000b6b   Thumb Code     2  init_alloc.o(.text)
    __Heap_Full                              0x08000b6d   Thumb Code    34  init_alloc.o(.text)
    __Heap_Broken                            0x08000b8f   Thumb Code     6  init_alloc.o(.text)
    _init_alloc                              0x08000b95   Thumb Code    94  init_alloc.o(.text)
    __Heap_Initialize                        0x08000bf3   Thumb Code    10  h1_init.o(.text)
    __Heap_DescSize                          0x08000bfd   Thumb Code     4  h1_init.o(.text)
    _ll_udiv10                               0x08000c01   Thumb Code   138  lludiv10.o(.text)
    _printf_int_common                       0x08000c8b   Thumb Code   178  _printf_intcommon.o(.text)
    _printf_fp_dec_real                      0x08000eed   Thumb Code   620  _printf_fp_dec.o(.text)
    _printf_fp_hex_real                      0x08001159   Thumb Code   756  _printf_fp_hex.o(.text)
    _printf_cs_common                        0x08001455   Thumb Code    20  _printf_char.o(.text)
    _printf_char                             0x08001469   Thumb Code    16  _printf_char.o(.text)
    _printf_string                           0x08001479   Thumb Code     8  _printf_char.o(.text)
    _printf_lcs_common                       0x08001481   Thumb Code    20  _printf_wchar.o(.text)
    _printf_wchar                            0x08001495   Thumb Code    16  _printf_wchar.o(.text)
    _printf_wstring                          0x080014a5   Thumb Code     8  _printf_wchar.o(.text)
    _c32rtomb                                0x080014ad   Thumb Code    72  _c32rtomb.o(.text)
    _wcrtomb                                 0x080014ad   Thumb Code     0  _c32rtomb.o(.text)
    __cxa_finalize                           0x080014f5   Thumb Code    66  cxa_finalize.o(.text)
    __rt_SIGABRT                             0x08001537   Thumb Code    14  defsig_abrt_outer.o(.text)
    __user_libspace                          0x08001545   Thumb Code     8  libspace.o(.text)
    __user_perproc_libspace                  0x08001545   Thumb Code     0  libspace.o(.text)
    __user_perthread_libspace                0x08001545   Thumb Code     0  libspace.o(.text)
    __I$use$semihosting                      0x0800154d   Thumb Code     0  use_no_semi.o(.text)
    __use_no_semihosting_swi                 0x0800154d   Thumb Code     2  use_no_semi.o(.text)
    __semihosting_library_function           0x0800154f   Thumb Code     0  indicate_semi.o(.text)
    __user_setup_stackheap                   0x0800154f   Thumb Code    74  sys_stackheap_outer.o(.text)
    __rt_ctype_table                         0x08001599   Thumb Code    16  rt_ctype_table.o(.text)
    __rt_locale                              0x080015a9   Thumb Code     8  rt_locale_intlibspace.o(.text)
    __Heap_ProvideMemory                     0x080015b1   Thumb Code    52  h1_extend.o(.text)
    _maybe_terminate_alloc                   0x080015b1   Thumb Code     0  maybetermalloc1.o(.text)
    _printf_fp_infnan                        0x080015e5   Thumb Code   112  _printf_fp_infnan.o(.text)
    _btod_etento                             0x08001665   Thumb Code   224  bigflt0.o(.text)
    exit                                     0x08001749   Thumb Code    18  exit.o(.text)
    __sig_exit                               0x0800175b   Thumb Code    10  defsig_exit.o(.text)
    __rt_SIGABRT_inner                       0x08001765   Thumb Code    14  defsig_abrt_inner.o(.text)
    __rt_SIGRTMEM                            0x08001795   Thumb Code    14  defsig_rtmem_outer.o(.text)
    __default_signal_display                 0x080017a3   Thumb Code    50  defsig_general.o(.text)
    __rt_SIGRTMEM_inner                      0x080017d5   Thumb Code    22  defsig_rtmem_inner.o(.text)
    _ttywrch                                 0x08001825   Thumb Code    14  sys_wrch.o(.text)
    ADC_IRQHandler                           0x08001839   Thumb Code   118  lib.o(.text.ADC_IRQHandler)
    OTG_FS_IRQHandler                        0x080018b1   Thumb Code    14  lib.o(.text.OTG_FS_IRQHandler)
    PendSV_Handler                           0x080018c1   Thumb Code    44  lib.o(.text.PendSV_Handler)
    SysTick_Handler                          0x080018f1   Thumb Code    58  lib.o(.text.SysTick_Handler)
    SystemInit                               0x08001931   Thumb Code   744  lib.o(.text.SystemInit)
    TIM1_TRG_COM_TIM11_IRQHandler            0x08001c19   Thumb Code    40  lib.o(.text.TIM1_TRG_COM_TIM11_IRQHandler)
    TIM1_UP_TIM10_IRQHandler                 0x08001c41   Thumb Code   114  lib.o(.text.TIM1_UP_TIM10_IRQHandler)
    TIM2_IRQHandler                          0x08001cb9   Thumb Code    22  lib.o(.text.TIM2_IRQHandler)
    TIM3_IRQHandler                          0x08001cd1   Thumb Code    22  lib.o(.text.TIM3_IRQHandler)
    TIM4_IRQHandler                          0x08001ce9   Thumb Code    22  lib.o(.text.TIM4_IRQHandler)
    TIM5_IRQHandler                          0x08001d01   Thumb Code    22  lib.o(.text.TIM5_IRQHandler)
    TIM7_IRQHandler                          0x08001d19   Thumb Code    22  lib.o(.text.TIM7_IRQHandler)
    TIM8_CC_IRQHandler                       0x08001d31   Thumb Code    22  lib.o(.text.TIM8_CC_IRQHandler)
    TIM8_TRG_COM_TIM14_IRQHandler            0x08001d49   Thumb Code    40  lib.o(.text.TIM8_TRG_COM_TIM14_IRQHandler)
    UART4_IRQHandler                         0x08001d71   Thumb Code    58  lib.o(.text.UART4_IRQHandler)
    UART5_IRQHandler                         0x08001db1   Thumb Code    58  lib.o(.text.UART5_IRQHandler)
    USART1_IRQHandler                        0x08001df1   Thumb Code    58  lib.o(.text.USART1_IRQHandler)
    USART2_IRQHandler                        0x08001e31   Thumb Code    58  lib.o(.text.USART2_IRQHandler)
    USART3_IRQHandler                        0x08001e71   Thumb Code    58  lib.o(.text.USART3_IRQHandler)
    USART6_IRQHandler                        0x08001eb1   Thumb Code    58  lib.o(.text.USART6_IRQHandler)
    System_GetDSIclock()                     0x080022c9   Thumb Code     6  lib.o(.text._Z18System_GetDSIclockv)
    myReportHandler::onReport(unsigned short, unsigned short, bool) 0x08002301   Thumb Code     2  main.o(.text._ZN15myReportHandler8onReportEttb)
    EmbSysLib::Hw::DisplayChar::getNumberOfLines() 0x08002309   Thumb Code     4  lib.o(.text._ZN9EmbSysLib2Hw11DisplayChar16getNumberOfLinesEv)
    EmbSysLib::Hw::DisplayChar::getNumberOfColumns() 0x08002311   Thumb Code     4  lib.o(.text._ZN9EmbSysLib2Hw11DisplayChar18getNumberOfColumnsEv)
    EmbSysLib::Hw::DisplayChar::putString(char const*) 0x08002319   Thumb Code    36  lib.o(.text._ZN9EmbSysLib2Hw11DisplayChar9putStringEPKc)
    EmbSysLib::Hw::MemoryImage::lock()       0x08002341   Thumb Code     2  main.o(.text._ZN9EmbSysLib2Hw11MemoryImage4lockEv)
    EmbSysLib::Hw::MemoryImage::getPtr()     0x08002349   Thumb Code     4  main.o(.text._ZN9EmbSysLib2Hw11MemoryImage6getPtrEv)
    EmbSysLib::Hw::MemoryImage::unlock()     0x08002351   Thumb Code     2  main.o(.text._ZN9EmbSysLib2Hw11MemoryImage6unlockEv)
    EmbSysLib::Hw::MemoryImage::readByte(unsigned int) 0x08002359   Thumb Code     6  main.o(.text._ZN9EmbSysLib2Hw11MemoryImage8readByteEj)
    EmbSysLib::Hw::MemoryImage::writeByte(unsigned int, unsigned char) 0x08002361   Thumb Code     8  main.o(.text._ZN9EmbSysLib2Hw11MemoryImage9writeByteEjh)
    EmbSysLib::Hw::MemoryImage::MemoryImage__sub_object(EmbSysLib::Hw::Memory&, char const*) 0x08002369   Thumb Code   252  main.o(.text._ZN9EmbSysLib2Hw11MemoryImageC2ERNS0_6MemoryEPKc)
    EmbSysLib::Hw::Memory_Flash::lock()      0x08002469   Thumb Code    44  lib.o(.text._ZN9EmbSysLib2Hw12Memory_Flash4lockEv)
    EmbSysLib::Hw::Memory_Flash::erase()     0x08002499   Thumb Code   132  lib.o(.text._ZN9EmbSysLib2Hw12Memory_Flash5eraseEv)
    EmbSysLib::Hw::Memory_Flash::getPtr()    0x08002521   Thumb Code     4  lib.o(.text._ZN9EmbSysLib2Hw12Memory_Flash6getPtrEv)
    EmbSysLib::Hw::Memory_Flash::unlock()    0x08002529   Thumb Code    86  lib.o(.text._ZN9EmbSysLib2Hw12Memory_Flash6unlockEv)
    EmbSysLib::Hw::Memory_Flash::readByte(unsigned int) 0x08002581   Thumb Code     6  lib.o(.text._ZN9EmbSysLib2Hw12Memory_Flash8readByteEj)
    EmbSysLib::Hw::Memory_Flash::writeByte(unsigned int, unsigned char) 0x08002589   Thumb Code   254  lib.o(.text._ZN9EmbSysLib2Hw12Memory_Flash9writeByteEjh)
    EmbSysLib::Hw::Memory_Flash::Memory_Flash(unsigned char, unsigned char) 0x08002689   Thumb Code   522  lib.o(.text._ZN9EmbSysLib2Hw12Memory_FlashC2Ehh)
    EmbSysLib::Hw::Memory_Flash::Memory_Flash__sub_object(unsigned char, unsigned char) 0x08002689   Thumb Code   522  lib.o(.text._ZN9EmbSysLib2Hw12Memory_FlashC2Ehh)
    EmbSysLib::Hw::Touch_FT6206::update()    0x08002899   Thumb Code   116  main.o(.text._ZN9EmbSysLib2Hw12Touch_FT62066updateEv)
    EmbSysLib::Hw::I2Cmaster_Mcu::readByteAck() 0x08002911   Thumb Code    32  lib.o(.text._ZN9EmbSysLib2Hw13I2Cmaster_Mcu11readByteAckEv)
    EmbSysLib::Hw::I2Cmaster_Mcu::waitForAckn(unsigned int) 0x08002931   Thumb Code   138  lib.o(.text._ZN9EmbSysLib2Hw13I2Cmaster_Mcu11waitForAcknEj)
    EmbSysLib::Hw::I2Cmaster_Mcu::readByteNack() 0x080029c1   Thumb Code    32  lib.o(.text._ZN9EmbSysLib2Hw13I2Cmaster_Mcu12readByteNackEv)
    EmbSysLib::Hw::I2Cmaster_Mcu::stop()     0x080029e1   Thumb Code    12  lib.o(.text._ZN9EmbSysLib2Hw13I2Cmaster_Mcu4stopEv)
    EmbSysLib::Hw::I2Cmaster_Mcu::start(unsigned char) 0x080029f1   Thumb Code    24  lib.o(.text._ZN9EmbSysLib2Hw13I2Cmaster_Mcu5startEh)
    EmbSysLib::Hw::I2Cmaster_Mcu::sendAddr(unsigned char) 0x08002a09   Thumb Code    44  lib.o(.text._ZN9EmbSysLib2Hw13I2Cmaster_Mcu8sendAddrEh)
    EmbSysLib::Hw::I2Cmaster_Mcu::writeByte(unsigned char) 0x08002a39   Thumb Code    20  lib.o(.text._ZN9EmbSysLib2Hw13I2Cmaster_Mcu9writeByteEh)
    EmbSysLib::Hw::I2Cmaster_Mcu::I2Cmaster_Mcu(EmbSysLib::Hw::I2Cmaster_Mcu::I2C_ID, unsigned short) 0x08002a51   Thumb Code   426  lib.o(.text._ZN9EmbSysLib2Hw13I2Cmaster_McuC2ENS1_6I2C_IDEt)
    EmbSysLib::Hw::I2Cmaster_Mcu::I2Cmaster_Mcu__sub_object(EmbSysLib::Hw::I2Cmaster_Mcu::I2C_ID, unsigned short) 0x08002a51   Thumb Code   426  lib.o(.text._ZN9EmbSysLib2Hw13I2Cmaster_McuC2ENS1_6I2C_IDEt)
    EmbSysLib::Hw::USBdevice_Mcu::isr()      0x08002c01   Thumb Code  1836  lib.o(.text._ZN9EmbSysLib2Hw13USBdevice_Mcu3isrEv)
    EmbSysLib::Hw::DisplayGraphic::gotoTextPos(unsigned char, unsigned char) 0x08003331   Thumb Code    32  lib.o(.text._ZN9EmbSysLib2Hw14DisplayGraphic11gotoTextPosEhh)
    EmbSysLib::Hw::DisplayGraphic::gotoPixelPos(unsigned short, unsigned short) 0x08003351   Thumb Code     6  lib.o(.text._ZN9EmbSysLib2Hw14DisplayGraphic12gotoPixelPosEtt)
    EmbSysLib::Hw::DisplayGraphic::putRectangle(unsigned short, unsigned short, unsigned short, unsigned short) 0x08003359   Thumb Code    60  lib.o(.text._ZN9EmbSysLib2Hw14DisplayGraphic12putRectangleEtttt)
    EmbSysLib::Hw::DisplayGraphic::setBackColor(unsigned short) 0x08003399   Thumb Code     4  lib.o(.text._ZN9EmbSysLib2Hw14DisplayGraphic12setBackColorEt)
    EmbSysLib::Hw::DisplayGraphic::setTextColor(unsigned short) 0x080033a1   Thumb Code     4  lib.o(.text._ZN9EmbSysLib2Hw14DisplayGraphic12setTextColorEt)
    EmbSysLib::Hw::DisplayGraphic::setPaintColor(unsigned short) 0x080033a9   Thumb Code     4  lib.o(.text._ZN9EmbSysLib2Hw14DisplayGraphic13setPaintColorEt)
    EmbSysLib::Hw::DisplayGraphic::putChar(char) 0x080033b1   Thumb Code   244  lib.o(.text._ZN9EmbSysLib2Hw14DisplayGraphic7putCharEc)
    EmbSysLib::Hw::DisplayGraphic::refresh() 0x080034a9   Thumb Code     2  main.o(.text._ZN9EmbSysLib2Hw14DisplayGraphic7refreshEv)
    EmbSysLib::Hw::DisplayGraphic::setFont(EmbSysLib::Hw::Font, unsigned char) 0x080034b1   Thumb Code    16  lib.o(.text._ZN9EmbSysLib2Hw14DisplayGraphic7setFontENS0_4FontEh)
    EmbSysLib::Hw::DisplayGraphic::setZoom(unsigned char) 0x080034c1   Thumb Code     6  lib.o(.text._ZN9EmbSysLib2Hw14DisplayGraphic7setZoomEh)
    EmbSysLib::Hw::DisplayGraphic::getWidth() 0x080034c9   Thumb Code     4  main.o(.text._ZN9EmbSysLib2Hw14DisplayGraphic8getWidthEv)
    EmbSysLib::Hw::DisplayGraphic::putPixel(unsigned short, unsigned short) 0x080034d1   Thumb Code    26  lib.o(.text._ZN9EmbSysLib2Hw14DisplayGraphic8putPixelEtt)
    EmbSysLib::Hw::DisplayGraphic::getHeight() 0x080034f1   Thumb Code     4  main.o(.text._ZN9EmbSysLib2Hw14DisplayGraphic9getHeightEv)
    EmbSysLib::Hw::DisplayGraphic::putBitmap(unsigned short, unsigned short, EmbSysLib::Hw::Bitmap) 0x080034f9   Thumb Code    90  lib.o(.text._ZN9EmbSysLib2Hw14DisplayGraphic9putBitmapEttNS0_6BitmapE)
    EmbSysLib::Hw::DisplayGraphic::DisplayGraphic__sub_object(unsigned short, unsigned short, unsigned short, EmbSysLib::Hw::Font, unsigned char) 0x08003559   Thumb Code   104  lib.o(.text._ZN9EmbSysLib2Hw14DisplayGraphicC2EtttNS0_4FontEh)
    EmbSysLib::Hw::DisplayGraphic_OTM8009A::init() 0x080035c1   Thumb Code  1868  main.o(.text._ZN9EmbSysLib2Hw23DisplayGraphic_OTM8009A4initEv)
    EmbSysLib::Hw::DisplayGraphic_OTM8009Aram::clear() 0x08003d39   Thumb Code    86  main.o(.text._ZN9EmbSysLib2Hw26DisplayGraphic_OTM8009Aram5clearEv)
    EmbSysLib::Hw::DisplayGraphic_OTM8009Aram::refresh() 0x08003d91   Thumb Code    18  main.o(.text._ZN9EmbSysLib2Hw26DisplayGraphic_OTM8009Aram7refreshEv)
    EmbSysLib::Hw::DisplayGraphic_OTM8009Aram::setArea(unsigned short, unsigned short, unsigned short, unsigned short) 0x08003da9   Thumb Code    42  main.o(.text._ZN9EmbSysLib2Hw26DisplayGraphic_OTM8009Aram7setAreaEtttt)
    EmbSysLib::Hw::DisplayGraphic_OTM8009Aram::setPixel(unsigned short) 0x08003dd9   Thumb Code    66  main.o(.text._ZN9EmbSysLib2Hw26DisplayGraphic_OTM8009Aram8setPixelEt)
    EmbSysLib::Hw::DisplayGraphic_OTM8009Aram::setPixel(unsigned short, unsigned short, unsigned short) 0x08003e21   Thumb Code    26  main.o(.text._ZN9EmbSysLib2Hw26DisplayGraphic_OTM8009Aram8setPixelEttt)
    EmbSysLib::Hw::DisplayGraphic_OTM8009Aram::DisplayGraphic_OTM8009Aram(EmbSysLib::Hw::Dsi_Mcu&, EmbSysLib::Hw::Port::Pin&, EmbSysLib::Hw::DisplayGraphic_OTM8009A::Orientation, EmbSysLib::Hw::Font, unsigned char) 0x08003e41   Thumb Code   348  main.o(.text._ZN9EmbSysLib2Hw26DisplayGraphic_OTM8009AramC2ERNS0_7Dsi_McuERNS0_4Port3PinENS0_23DisplayGraphic_OTM8009A11OrientationENS0_4FontEh)
    EmbSysLib::Hw::DisplayGraphic_OTM8009Aram::DisplayGraphic_OTM8009Aram__sub_object(EmbSysLib::Hw::Dsi_Mcu&, EmbSysLib::Hw::Port::Pin&, EmbSysLib::Hw::DisplayGraphic_OTM8009A::Orientation, EmbSysLib::Hw::Font, unsigned char) 0x08003e41   Thumb Code   348  main.o(.text._ZN9EmbSysLib2Hw26DisplayGraphic_OTM8009AramC2ERNS0_7Dsi_McuERNS0_4Port3PinENS0_23DisplayGraphic_OTM8009A11OrientationENS0_4FontEh)
    EmbSysLib::Hw::Font::Font(unsigned char const*) 0x08003fa1   Thumb Code     8  lib.o(.text._ZN9EmbSysLib2Hw4FontC2EPKh)
    EmbSysLib::Hw::Font::Font__sub_object(unsigned char const*) 0x08003fa1   Thumb Code     8  lib.o(.text._ZN9EmbSysLib2Hw4FontC2EPKh)
    EmbSysLib::Hw::Port::Pin::clr()          0x08003fa9   Thumb Code    12  lib.o(.text._ZN9EmbSysLib2Hw4Port3Pin3clrEv)
    EmbSysLib::Hw::Port::Pin::get()          0x08003fb9   Thumb Code    22  lib.o(.text._ZN9EmbSysLib2Hw4Port3Pin3getEv)
    EmbSysLib::Hw::Port::Pin::set(bool)      0x08003fd1   Thumb Code    24  lib.o(.text._ZN9EmbSysLib2Hw4Port3Pin3setEb)
    EmbSysLib::Hw::Port::Pin::set()          0x08003fe9   Thumb Code    12  lib.o(.text._ZN9EmbSysLib2Hw4Port3Pin3setEv)
    EmbSysLib::Hw::Port::Pin::setMode(EmbSysLib::Hw::Port::Mode) 0x08003ff9   Thumb Code    26  lib.o(.text._ZN9EmbSysLib2Hw4Port3Pin7setModeENS1_4ModeE)
    EmbSysLib::Hw::Port::Pin::Pin(EmbSysLib::Hw::Port&, unsigned char) 0x08004019   Thumb Code    26  lib.o(.text._ZN9EmbSysLib2Hw4Port3PinC2ERS1_h)
    EmbSysLib::Hw::Port::Pin::Pin__sub_object(EmbSysLib::Hw::Port&, unsigned char) 0x08004019   Thumb Code    26  lib.o(.text._ZN9EmbSysLib2Hw4Port3PinC2ERS1_h)
    EmbSysLib::Hw::Uart::transmitByte(unsigned char) 0x08004039   Thumb Code   152  lib.o(.text._ZN9EmbSysLib2Hw4Uart12transmitByteEh)
    EmbSysLib::Hw::Uart::isTxBufferFull()    0x080040d1   Thumb Code    56  lib.o(.text._ZN9EmbSysLib2Hw4Uart14isTxBufferFullEv)
    EmbSysLib::Hw::Uart::getFifoRemainingSize() 0x08004109   Thumb Code    54  lib.o(.text._ZN9EmbSysLib2Hw4Uart20getFifoRemainingSizeEv)
    EmbSysLib::Hw::Uart::get(unsigned char&) 0x08004141   Thumb Code    90  lib.o(.text._ZN9EmbSysLib2Hw4Uart3getERh)
    EmbSysLib::Hw::Uart::get()               0x080041a1   Thumb Code    36  lib.o(.text._ZN9EmbSysLib2Hw4Uart3getEv)
    EmbSysLib::Hw::Uart::set(char const*)    0x080041c9   Thumb Code    36  lib.o(.text._ZN9EmbSysLib2Hw4Uart3setEPKc)
    EmbSysLib::Hw::Uart::set(unsigned char const*, unsigned short) 0x080041f1   Thumb Code    36  lib.o(.text._ZN9EmbSysLib2Hw4Uart3setEPKht)
    EmbSysLib::Hw::Uart::set(unsigned char)  0x08004219   Thumb Code     6  lib.o(.text._ZN9EmbSysLib2Hw4Uart3setEh)
    EmbSysLib::Hw::Uart::isrRx()             0x08004221   Thumb Code    98  lib.o(.text._ZN9EmbSysLib2Hw4Uart5isrRxEv)
    EmbSysLib::Hw::Uart::isrTx()             0x08004289   Thumb Code   140  lib.o(.text._ZN9EmbSysLib2Hw4Uart5isrTxEv)
    EmbSysLib::Hw::Timer::isrHandler()       0x08004319   Thumb Code    28  lib.o(.text._ZN9EmbSysLib2Hw5Timer10isrHandlerEv)
    EmbSysLib::Hw::Timer::getCycleTime()     0x08004339   Thumb Code     4  lib.o(.text._ZN9EmbSysLib2Hw5Timer12getCycleTimeEv)
    EmbSysLib::Hw::Timer::add(EmbSysLib::Hw::Timer::Task*) 0x08004341   Thumb Code    24  lib.o(.text._ZN9EmbSysLib2Hw5Timer3addEPNS1_4TaskE)
    EmbSysLib::Hw::Touch::getPosX()          0x08004359   Thumb Code    42  lib.o(.text._ZN9EmbSysLib2Hw5Touch7getPosXEv)
    EmbSysLib::Hw::Touch::getPosY()          0x08004389   Thumb Code    42  lib.o(.text._ZN9EmbSysLib2Hw5Touch7getPosYEv)
    EmbSysLib::Hw::Touch::isTouched()        0x080043b9   Thumb Code     4  lib.o(.text._ZN9EmbSysLib2Hw5Touch9isTouchedEv)
    EmbSysLib::Hw::Touch::Touch__sub_object(unsigned short, unsigned short, unsigned short, EmbSysLib::Hw::Touch::Orientation) 0x080043c1   Thumb Code    34  lib.o(.text._ZN9EmbSysLib2Hw5TouchC2EtttNS1_11OrientationE)
    EmbSysLib::Hw::Bitmap::Bitmap(unsigned char const*) 0x080043e9   Thumb Code     8  lib.o(.text._ZN9EmbSysLib2Hw6BitmapC2EPKh)
    EmbSysLib::Hw::Bitmap::Bitmap__sub_object(unsigned char const*) 0x080043e9   Thumb Code     8  lib.o(.text._ZN9EmbSysLib2Hw6BitmapC2EPKh)
    EmbSysLib::Hw::Memory::read(unsigned int) 0x080043f1   Thumb Code   114  lib.o(.text._ZN9EmbSysLib2Hw6Memory4readEj)
    EmbSysLib::Hw::Memory::erase()           0x08004469   Thumb Code    52  lib.o(.text._ZN9EmbSysLib2Hw6Memory5eraseEv)
    EmbSysLib::Hw::Memory::write(unsigned int, unsigned char) 0x080044a1   Thumb Code   122  lib.o(.text._ZN9EmbSysLib2Hw6Memory5writeEjh)
    EmbSysLib::Hw::Memory::Memory__sub_object(unsigned short, unsigned int, unsigned char, bool) 0x08004521   Thumb Code    32  lib.o(.text._ZN9EmbSysLib2Hw6MemoryC2Etjhb)
    EmbSysLib::Hw::System::delayMilliSec(unsigned short) 0x08004541   Thumb Code    34  lib.o(.text._ZN9EmbSysLib2Hw6System13delayMilliSecEt)
    EmbSysLib::Hw::Dsi_Mcu::writeShort(unsigned char, unsigned char) 0x08004569   Thumb Code    48  main.o(.text._ZN9EmbSysLib2Hw7Dsi_Mcu10writeShortEhh)
    EmbSysLib::Hw::Dsi_Mcu::Init(unsigned short, unsigned short, bool) 0x08004599   Thumb Code   512  main.o(.text._ZN9EmbSysLib2Hw7Dsi_Mcu4InitEttb)
    EmbSysLib::Hw::Dsi_Mcu::writeLong(unsigned char*, unsigned int) 0x08004799   Thumb Code   122  main.o(.text._ZN9EmbSysLib2Hw7Dsi_Mcu9writeLongEPhj)
    EmbSysLib::Hw::Fmc_Mcu::SDRAM_Init()     0x08004819   Thumb Code   296  main.o(.text._ZN9EmbSysLib2Hw7Fmc_Mcu10SDRAM_InitEv)
    EmbSysLib::Hw::Fmc_Mcu::Fmc_Mcu__sub_object(EmbSysLib::Hw::Fmc_Mcu::FMCtype, bool) 0x08004941   Thumb Code   630  main.o(.text._ZN9EmbSysLib2Hw7Fmc_McuC2ENS1_7FMCtypeEb)
    EmbSysLib::Hw::Port_Mcu::setPinMode(unsigned char, EmbSysLib::Hw::Port::Mode) 0x08004bb9   Thumb Code   162  lib.o(.text._ZN9EmbSysLib2Hw8Port_Mcu10setPinModeEhNS0_4Port4ModeE)
    EmbSysLib::Hw::Port_Mcu::clr(unsigned int) 0x08004c61   Thumb Code     8  lib.o(.text._ZN9EmbSysLib2Hw8Port_Mcu3clrEj)
    EmbSysLib::Hw::Port_Mcu::get()           0x08004c69   Thumb Code     6  lib.o(.text._ZN9EmbSysLib2Hw8Port_Mcu3getEv)
    EmbSysLib::Hw::Port_Mcu::set(unsigned int) 0x08004c71   Thumb Code     6  lib.o(.text._ZN9EmbSysLib2Hw8Port_Mcu3setEj)
    EmbSysLib::Hw::Port_Mcu::set(unsigned int, unsigned int) 0x08004c79   Thumb Code    16  lib.o(.text._ZN9EmbSysLib2Hw8Port_Mcu3setEjj)
    EmbSysLib::Hw::Port_Mcu::setMode(unsigned int, EmbSysLib::Hw::Port::Mode) 0x08004c89   Thumb Code    50  lib.o(.text._ZN9EmbSysLib2Hw8Port_Mcu7setModeEjNS0_4Port4ModeE)
    EmbSysLib::Hw::Port_Mcu::Port_Mcu(EmbSysLib::Hw::Port_Mcu::PortId) 0x08004cc1   Thumb Code   414  lib.o(.text._ZN9EmbSysLib2Hw8Port_McuC2ENS1_6PortIdE)
    EmbSysLib::Hw::Port_Mcu::Port_Mcu__sub_object(EmbSysLib::Hw::Port_Mcu::PortId) 0x08004cc1   Thumb Code   414  lib.o(.text._ZN9EmbSysLib2Hw8Port_McuC2ENS1_6PortIdE)
    EmbSysLib::Hw::Uart_Mcu::setBaudrate(unsigned int) 0x08004e61   Thumb Code   104  lib.o(.text._ZN9EmbSysLib2Hw8Uart_Mcu11setBaudrateEj)
    EmbSysLib::Hw::Uart_Mcu::getByte()       0x08004ec9   Thumb Code     8  lib.o(.text._ZN9EmbSysLib2Hw8Uart_Mcu7getByteEv)
    EmbSysLib::Hw::Uart_Mcu::setByte(unsigned char) 0x08004ed1   Thumb Code     6  lib.o(.text._ZN9EmbSysLib2Hw8Uart_Mcu7setByteEh)
    EmbSysLib::Hw::Uart_Mcu::Uart_Mcu(EmbSysLib::Hw::Uart_Mcu::USART_Id, unsigned int, unsigned char, unsigned short, unsigned short) 0x08004ed9   Thumb Code   840  lib.o(.text._ZN9EmbSysLib2Hw8Uart_McuC2ENS1_8USART_IdEjhtt)
    EmbSysLib::Hw::Uart_Mcu::Uart_Mcu__sub_object(EmbSysLib::Hw::Uart_Mcu::USART_Id, unsigned int, unsigned char, unsigned short, unsigned short) 0x08004ed9   Thumb Code   840  lib.o(.text._ZN9EmbSysLib2Hw8Uart_McuC2ENS1_8USART_IdEjhtt)
    EmbSysLib::Hw::I2Cmaster::read(unsigned char, unsigned char*, unsigned char, unsigned char*, unsigned char) 0x08005221   Thumb Code   172  lib.o(.text._ZN9EmbSysLib2Hw9I2Cmaster4readEhPhhS2_h)
    EmbSysLib::Hw::I2Cmaster::write(unsigned char, unsigned char*, unsigned char, unsigned char*, unsigned char) 0x080052d1   Thumb Code   116  lib.o(.text._ZN9EmbSysLib2Hw9I2Cmaster5writeEhPhhS2_h)
    EmbSysLib::Hw::I2Cmaster::Device::isError() 0x08005349   Thumb Code    10  main.o(.text._ZN9EmbSysLib2Hw9I2Cmaster6Device7isErrorEv)
    EmbSysLib::Hw::PinConfig::set(EmbSysLib::Hw::PinConfig::Function, unsigned int) 0x08005359   Thumb Code   380  lib.o(.text._ZN9EmbSysLib2Hw9PinConfig3setENS1_8FunctionEj)
    EmbSysLib::Hw::PinConfig::set(GPIO_TypeDef*, unsigned char, unsigned int, unsigned char) 0x080054d9   Thumb Code   190  lib.o(.text._ZN9EmbSysLib2Hw9PinConfig3setEP12GPIO_TypeDefhjh)
    EmbSysLib::Hw::Timer_Mcu::setPWM(unsigned char, unsigned short) 0x08005599   Thumb Code   148  lib.o(.text._ZN9EmbSysLib2Hw9Timer_Mcu6setPWMEht)
    EmbSysLib::Hw::Timer_Mcu::enablePWM(unsigned char, EmbSysLib::Hw::Timer::Mode) 0x08005631   Thumb Code   912  lib.o(.text._ZN9EmbSysLib2Hw9Timer_Mcu9enablePWMEhNS0_5Timer4ModeE)
    EmbSysLib::Hw::Timer_Mcu::Timer_Mcu(EmbSysLib::Hw::Timer_Mcu::TimerId, unsigned int) 0x080059c1   Thumb Code  1100  lib.o(.text._ZN9EmbSysLib2Hw9Timer_McuC2ENS1_7TimerIdEj)
    EmbSysLib::Hw::Timer_Mcu::Timer_Mcu__sub_object(EmbSysLib::Hw::Timer_Mcu::TimerId, unsigned int) 0x080059c1   Thumb Code  1100  lib.o(.text._ZN9EmbSysLib2Hw9Timer_McuC2ENS1_7TimerIdEj)
    EmbSysLib::Dev::ScreenChar::clear()      0x08005e11   Thumb Code     8  lib.o(.text._ZN9EmbSysLib3Dev10ScreenChar5clearEv)
    EmbSysLib::Dev::ScreenChar::printf(unsigned char, unsigned char, char const*, ...) 0x08005e19   Thumb Code    54  lib.o(.text._ZN9EmbSysLib3Dev10ScreenChar6printfEhhPKcz)
    EmbSysLib::Dev::ScreenChar::refresh()    0x08005e51   Thumb Code     8  lib.o(.text._ZN9EmbSysLib3Dev10ScreenChar7refreshEv)
    EmbSysLib::Dev::ScreenChar::ScreenChar(EmbSysLib::Hw::DisplayChar&) 0x08005e59   Thumb Code    50  lib.o(.text._ZN9EmbSysLib3Dev10ScreenCharC2ERNS_2Hw11DisplayCharE)
    EmbSysLib::Dev::ScreenChar::ScreenChar__sub_object(EmbSysLib::Hw::DisplayChar&) 0x08005e59   Thumb Code    50  lib.o(.text._ZN9EmbSysLib3Dev10ScreenCharC2ERNS_2Hw11DisplayCharE)
